ARM GAS  C:\Users\d4hhm\AppData\Local\Temp\ccLEMF4D.s 			page 1


   1              		.syntax unified
   2              		.cpu cortex-m0
   3              		.fpu softvfp
   4              		.eabi_attribute 20, 1
   5              		.eabi_attribute 21, 1
   6              		.eabi_attribute 23, 3
   7              		.eabi_attribute 24, 1
   8              		.eabi_attribute 25, 1
   9              		.eabi_attribute 26, 1
  10              		.eabi_attribute 30, 6
  11              		.eabi_attribute 34, 0
  12              		.eabi_attribute 18, 4
  13              		.thumb
  14              		.syntax unified
  15              		.file	"CapSense_1.c"
  16              		.text
  17              	.Ltext0:
  18              		.cfi_sections	.debug_frame
  19              		.global	CapSense_1_csdStatusVar
  20              		.bss
  21              		.type	CapSense_1_csdStatusVar, %object
  22              		.size	CapSense_1_csdStatusVar, 1
  23              	CapSense_1_csdStatusVar:
  24 0000 00       		.space	1
  25              		.global	CapSense_1_sensorIndex
  26              		.type	CapSense_1_sensorIndex, %object
  27              		.size	CapSense_1_sensorIndex, 1
  28              	CapSense_1_sensorIndex:
  29 0001 00       		.space	1
  30              		.global	CapSense_1_sensorRaw
  31 0002 0000     		.align	2
  32              		.type	CapSense_1_sensorRaw, %object
  33              		.size	CapSense_1_sensorRaw, 2
  34              	CapSense_1_sensorRaw:
  35 0004 0000     		.space	2
  36              		.comm	CapSense_1_csdTrim1,1,1
  37              		.comm	CapSense_1_unscannedSnsDriveMode,1,4
  38              		.comm	CapSense_1_sensorEnableMaskBackup,1,4
  39              		.global	CapSense_1_sensorEnableMask
  40              		.data
  41              		.align	2
  42              		.type	CapSense_1_sensorEnableMask, %object
  43              		.size	CapSense_1_sensorEnableMask, 1
  44              	CapSense_1_sensorEnableMask:
  45 0000 01       		.byte	1
  46              		.global	CapSense_1_pcTable
  47 0001 000000   		.align	2
  48              		.type	CapSense_1_pcTable, %object
  49              		.size	CapSense_1_pcTable, 4
  50              	CapSense_1_pcTable:
  51 0004 08030440 		.word	1074004744
  52              		.global	CapSense_1_portTable
  53              		.section	.rodata
  54              		.align	2
  55              		.type	CapSense_1_portTable, %object
  56              		.size	CapSense_1_portTable, 1
  57              	CapSense_1_portTable:
ARM GAS  C:\Users\d4hhm\AppData\Local\Temp\ccLEMF4D.s 			page 2


  58 0000 03       		.byte	3
  59              		.global	CapSense_1_maskTable
  60 0001 000000   		.align	2
  61              		.type	CapSense_1_maskTable, %object
  62              		.size	CapSense_1_maskTable, 4
  63              	CapSense_1_maskTable:
  64 0004 10000000 		.word	16
  65              		.global	CapSense_1_pinShiftTbl
  66              		.align	2
  67              		.type	CapSense_1_pinShiftTbl, %object
  68              		.size	CapSense_1_pinShiftTbl, 1
  69              	CapSense_1_pinShiftTbl:
  70 0008 04       		.byte	4
  71              		.global	CapSense_1_modulationIDAC
  72 0009 000000   		.align	2
  73              		.type	CapSense_1_modulationIDAC, %object
  74              		.size	CapSense_1_modulationIDAC, 1
  75              	CapSense_1_modulationIDAC:
  76 000c 50       		.byte	80
  77              		.global	CapSense_1_compensationIDAC
  78 000d 000000   		.align	2
  79              		.type	CapSense_1_compensationIDAC, %object
  80              		.size	CapSense_1_compensationIDAC, 1
  81              	CapSense_1_compensationIDAC:
  82 0010 50       		.byte	80
  83              		.global	CapSense_1_widgetResolution
  84 0011 000000   		.align	2
  85              		.type	CapSense_1_widgetResolution, %object
  86              		.size	CapSense_1_widgetResolution, 4
  87              	CapSense_1_widgetResolution:
  88 0014 0000FF03 		.word	67043328
  89              		.global	CapSense_1_senseClkDividerVal
  90              		.align	2
  91              		.type	CapSense_1_senseClkDividerVal, %object
  92              		.size	CapSense_1_senseClkDividerVal, 1
  93              	CapSense_1_senseClkDividerVal:
  94 0018 02       		.byte	2
  95              		.global	CapSense_1_sampleClkDividerVal
  96 0019 000000   		.align	2
  97              		.type	CapSense_1_sampleClkDividerVal, %object
  98              		.size	CapSense_1_sampleClkDividerVal, 1
  99              	CapSense_1_sampleClkDividerVal:
 100 001c 02       		.byte	2
 101              		.global	CapSense_1_widgetNumber
 102 001d 000000   		.align	2
 103              		.type	CapSense_1_widgetNumber, %object
 104              		.size	CapSense_1_widgetNumber, 1
 105              	CapSense_1_widgetNumber:
 106 0020 00       		.space	1
 107              		.global	CapSense_1_prtSelTbl
 108 0021 000000   		.align	2
 109              		.type	CapSense_1_prtSelTbl, %object
 110              		.size	CapSense_1_prtSelTbl, 28
 111              	CapSense_1_prtSelTbl:
 112 0024 00000240 		.word	1073872896
 113 0028 00010240 		.word	1073873152
 114 002c 00020240 		.word	1073873408
ARM GAS  C:\Users\d4hhm\AppData\Local\Temp\ccLEMF4D.s 			page 3


 115 0030 00030240 		.word	1073873664
 116 0034 00040240 		.word	1073873920
 117 0038 00050240 		.word	1073874176
 118 003c 00060240 		.word	1073874432
 119              		.global	CapSense_1_prtCfgTbl
 120              		.align	2
 121              		.type	CapSense_1_prtCfgTbl, %object
 122              		.size	CapSense_1_prtCfgTbl, 28
 123              	CapSense_1_prtCfgTbl:
 124 0040 08000440 		.word	1074003976
 125 0044 08010440 		.word	1074004232
 126 0048 08020440 		.word	1074004488
 127 004c 08030440 		.word	1074004744
 128 0050 08040440 		.word	1074005000
 129 0054 08050440 		.word	1074005256
 130 0058 08060440 		.word	1074005512
 131              		.global	CapSense_1_prtDRTbl
 132              		.align	2
 133              		.type	CapSense_1_prtDRTbl, %object
 134              		.size	CapSense_1_prtDRTbl, 28
 135              	CapSense_1_prtDRTbl:
 136 005c 00000440 		.word	1074003968
 137 0060 00010440 		.word	1074004224
 138 0064 00020440 		.word	1074004480
 139 0068 00030440 		.word	1074004736
 140 006c 00040440 		.word	1074004992
 141 0070 00050440 		.word	1074005248
 142 0074 00060440 		.word	1074005504
 143              		.section	.text.CapSense_1_Init,"ax",%progbits
 144              		.align	2
 145              		.global	CapSense_1_Init
 146              		.code	16
 147              		.thumb_func
 148              		.type	CapSense_1_Init, %function
 149              	CapSense_1_Init:
 150              	.LFB34:
 151              		.file 1 "Generated_Source\\PSoC4\\CapSense_1.c"
   1:Generated_Source\PSoC4/CapSense_1.c **** /*******************************************************************************
   2:Generated_Source\PSoC4/CapSense_1.c **** * File Name: CapSense_1.c
   3:Generated_Source\PSoC4/CapSense_1.c **** * Version 2.60
   4:Generated_Source\PSoC4/CapSense_1.c **** *
   5:Generated_Source\PSoC4/CapSense_1.c **** * Description:
   6:Generated_Source\PSoC4/CapSense_1.c **** *  This file provides the source code for scanning APIs for the CapSense CSD
   7:Generated_Source\PSoC4/CapSense_1.c **** *  component.
   8:Generated_Source\PSoC4/CapSense_1.c **** *
   9:Generated_Source\PSoC4/CapSense_1.c **** * Note:
  10:Generated_Source\PSoC4/CapSense_1.c **** *
  11:Generated_Source\PSoC4/CapSense_1.c **** ********************************************************************************
  12:Generated_Source\PSoC4/CapSense_1.c **** * Copyright 2013-2016, Cypress Semiconductor Corporation.  All rights reserved.
  13:Generated_Source\PSoC4/CapSense_1.c **** * You may use this file only in accordance with the license, terms, conditions,
  14:Generated_Source\PSoC4/CapSense_1.c **** * disclaimers, and limitations in the end user license agreement accompanying
  15:Generated_Source\PSoC4/CapSense_1.c **** * the software package with which this file was provided.
  16:Generated_Source\PSoC4/CapSense_1.c **** *******************************************************************************/
  17:Generated_Source\PSoC4/CapSense_1.c **** 
  18:Generated_Source\PSoC4/CapSense_1.c **** #include "CapSense_1.h"
  19:Generated_Source\PSoC4/CapSense_1.c **** #include "CapSense_1_PVT.h"
  20:Generated_Source\PSoC4/CapSense_1.c **** #include "cypins.h"
ARM GAS  C:\Users\d4hhm\AppData\Local\Temp\ccLEMF4D.s 			page 4


  21:Generated_Source\PSoC4/CapSense_1.c **** #include "cyapicallbacks.h"
  22:Generated_Source\PSoC4/CapSense_1.c **** 
  23:Generated_Source\PSoC4/CapSense_1.c **** #if(0u != CapSense_1_CSHL_API_GENERATE)
  24:Generated_Source\PSoC4/CapSense_1.c ****     #include "CapSense_1_CSHL.h"
  25:Generated_Source\PSoC4/CapSense_1.c **** #endif /* (0u != CapSense_1_CSHL_API_GENERATE) */
  26:Generated_Source\PSoC4/CapSense_1.c **** 
  27:Generated_Source\PSoC4/CapSense_1.c **** /* This definition is intended to prevent unexpected linker error.
  28:Generated_Source\PSoC4/CapSense_1.c ****    For more details please see the IAR Technical Note 49981 */
  29:Generated_Source\PSoC4/CapSense_1.c **** #if defined(__ICCARM__)
  30:Generated_Source\PSoC4/CapSense_1.c ****     extern void CapSense_1_EnableSensor(uint32 sensor);
  31:Generated_Source\PSoC4/CapSense_1.c ****     extern void CapSense_1_DisableSensor(uint32 sensor);
  32:Generated_Source\PSoC4/CapSense_1.c **** #endif /* (__ICCARM__) */
  33:Generated_Source\PSoC4/CapSense_1.c **** 
  34:Generated_Source\PSoC4/CapSense_1.c **** /* SmartSense functions */
  35:Generated_Source\PSoC4/CapSense_1.c **** #if (CapSense_1_TUNING_METHOD == CapSense_1__TUNING_AUTO)
  36:Generated_Source\PSoC4/CapSense_1.c ****     uint8 CapSense_1_lowLevelTuningDone = 0u;
  37:Generated_Source\PSoC4/CapSense_1.c ****     uint8 CapSense_1_scanSpeedTbl[((CapSense_1_TOTAL_SENSOR_COUNT - 1u) / 8u) + 1u];
  38:Generated_Source\PSoC4/CapSense_1.c **** #endif /* (CapSense_1_TUNING_METHOD == CapSense_1__TUNING_AUTO) */
  39:Generated_Source\PSoC4/CapSense_1.c **** 
  40:Generated_Source\PSoC4/CapSense_1.c **** #if(CapSense_1_PRS_OPTIONS != CapSense_1__PRS_NONE)
  41:Generated_Source\PSoC4/CapSense_1.c ****     uint8 CapSense_1_prescalersTuningDone = 0u;
  42:Generated_Source\PSoC4/CapSense_1.c **** #endif /* (CapSense_1_PRS_OPTIONS == CapSense_1__PRS_NONE) */
  43:Generated_Source\PSoC4/CapSense_1.c **** 
  44:Generated_Source\PSoC4/CapSense_1.c **** /* Global software variables */
  45:Generated_Source\PSoC4/CapSense_1.c **** volatile uint8 CapSense_1_csdStatusVar = 0u;   /* CapSense CSD status, variable */
  46:Generated_Source\PSoC4/CapSense_1.c **** volatile uint8 CapSense_1_sensorIndex = 0u;    /* Index of scannig sensor */
  47:Generated_Source\PSoC4/CapSense_1.c **** 
  48:Generated_Source\PSoC4/CapSense_1.c **** /* Global array of Raw Counts */
  49:Generated_Source\PSoC4/CapSense_1.c **** uint16 CapSense_1_sensorRaw[CapSense_1_TOTAL_SENSOR_COUNT] = {0u};
  50:Generated_Source\PSoC4/CapSense_1.c **** 
  51:Generated_Source\PSoC4/CapSense_1.c **** /* Backup variables for trim registers*/
  52:Generated_Source\PSoC4/CapSense_1.c **** #if (CapSense_1_IDAC1_POLARITY == CapSense_1__IDAC_SINK)
  53:Generated_Source\PSoC4/CapSense_1.c ****     uint8 CapSense_1_csdTrim2;
  54:Generated_Source\PSoC4/CapSense_1.c **** #else
  55:Generated_Source\PSoC4/CapSense_1.c ****     uint8 CapSense_1_csdTrim1;
  56:Generated_Source\PSoC4/CapSense_1.c **** #endif /* (CapSense_1_IDAC1_POLARITY == CapSense_1__IDAC_SINK) */
  57:Generated_Source\PSoC4/CapSense_1.c **** 
  58:Generated_Source\PSoC4/CapSense_1.c **** /* Global array of un-scanned sensors state */
  59:Generated_Source\PSoC4/CapSense_1.c **** uint8 CapSense_1_unscannedSnsDriveMode[CapSense_1_PORT_PIN_CONFIG_TBL_ZISE];
  60:Generated_Source\PSoC4/CapSense_1.c **** 
  61:Generated_Source\PSoC4/CapSense_1.c **** /* Backup array for CapSense_1_sensorEnableMask */
  62:Generated_Source\PSoC4/CapSense_1.c **** uint8 CapSense_1_sensorEnableMaskBackup[(((CapSense_1_TOTAL_SENSOR_COUNT - 1u) / 8u) + 1u)];
  63:Generated_Source\PSoC4/CapSense_1.c **** 
  64:Generated_Source\PSoC4/CapSense_1.c **** /* Configured constants and arrays by Customizer */
  65:Generated_Source\PSoC4/CapSense_1.c **** uint8 CapSense_1_sensorEnableMask[(((CapSense_1_TOTAL_SENSOR_COUNT - 1u) / 8u) + 1u)] = {
  66:Generated_Source\PSoC4/CapSense_1.c **** 0x1u, };
  67:Generated_Source\PSoC4/CapSense_1.c **** 
  68:Generated_Source\PSoC4/CapSense_1.c **** reg32 * CapSense_1_pcTable[] = {
  69:Generated_Source\PSoC4/CapSense_1.c ****     (reg32 *)CapSense_1_Sns__Button0__BTN__PC, 
  70:Generated_Source\PSoC4/CapSense_1.c **** };
  71:Generated_Source\PSoC4/CapSense_1.c **** 
  72:Generated_Source\PSoC4/CapSense_1.c **** const uint8 CapSense_1_portTable[] = {
  73:Generated_Source\PSoC4/CapSense_1.c ****     CapSense_1_Sns__Button0__BTN__PORT, 
  74:Generated_Source\PSoC4/CapSense_1.c **** };
  75:Generated_Source\PSoC4/CapSense_1.c **** 
  76:Generated_Source\PSoC4/CapSense_1.c **** const uint32 CapSense_1_maskTable[] = {
  77:Generated_Source\PSoC4/CapSense_1.c ****     CapSense_1_Sns__Button0__BTN__MASK, 
ARM GAS  C:\Users\d4hhm\AppData\Local\Temp\ccLEMF4D.s 			page 5


  78:Generated_Source\PSoC4/CapSense_1.c **** };
  79:Generated_Source\PSoC4/CapSense_1.c **** 
  80:Generated_Source\PSoC4/CapSense_1.c **** const uint8 CapSense_1_pinShiftTbl[] = {
  81:Generated_Source\PSoC4/CapSense_1.c ****     (uint8) CapSense_1_Sns__Button0__BTN__SHIFT, 
  82:Generated_Source\PSoC4/CapSense_1.c **** };
  83:Generated_Source\PSoC4/CapSense_1.c **** 
  84:Generated_Source\PSoC4/CapSense_1.c **** const uint8 CapSense_1_modulationIDAC[CapSense_1_TOTAL_SENSOR_COUNT] = {
  85:Generated_Source\PSoC4/CapSense_1.c ****     80u, 
  86:Generated_Source\PSoC4/CapSense_1.c **** };
  87:Generated_Source\PSoC4/CapSense_1.c **** const uint8 CapSense_1_compensationIDAC[CapSense_1_TOTAL_SENSOR_COUNT] = {
  88:Generated_Source\PSoC4/CapSense_1.c ****     80u, 
  89:Generated_Source\PSoC4/CapSense_1.c **** };
  90:Generated_Source\PSoC4/CapSense_1.c **** 
  91:Generated_Source\PSoC4/CapSense_1.c **** const uint32 CapSense_1_widgetResolution[CapSense_1_RESOLUTIONS_TBL_SIZE] = {
  92:Generated_Source\PSoC4/CapSense_1.c ****     CapSense_1_RESOLUTION_10_BITS,
  93:Generated_Source\PSoC4/CapSense_1.c **** };
  94:Generated_Source\PSoC4/CapSense_1.c **** 
  95:Generated_Source\PSoC4/CapSense_1.c **** const uint8 CapSense_1_senseClkDividerVal[CapSense_1_TOTAL_SCANSLOT_COUNT] = {
  96:Generated_Source\PSoC4/CapSense_1.c ****     2u, 
  97:Generated_Source\PSoC4/CapSense_1.c **** };
  98:Generated_Source\PSoC4/CapSense_1.c **** const uint8 CapSense_1_sampleClkDividerVal[CapSense_1_TOTAL_SCANSLOT_COUNT] = {
  99:Generated_Source\PSoC4/CapSense_1.c ****     2u, 
 100:Generated_Source\PSoC4/CapSense_1.c **** };
 101:Generated_Source\PSoC4/CapSense_1.c **** 
 102:Generated_Source\PSoC4/CapSense_1.c **** 
 103:Generated_Source\PSoC4/CapSense_1.c **** const uint8 CapSense_1_widgetNumber[CapSense_1_TOTAL_SENSOR_COUNT] = {
 104:Generated_Source\PSoC4/CapSense_1.c ****     0u, /* Button0__BTN */
 105:Generated_Source\PSoC4/CapSense_1.c **** };
 106:Generated_Source\PSoC4/CapSense_1.c **** 
 107:Generated_Source\PSoC4/CapSense_1.c **** reg32* const CapSense_1_prtSelTbl[CapSense_1_CFG_REG_TBL_SIZE] = {
 108:Generated_Source\PSoC4/CapSense_1.c ****     ((reg32 *) CYREG_HSIOM_PORT_SEL0),
 109:Generated_Source\PSoC4/CapSense_1.c ****     ((reg32 *) CYREG_HSIOM_PORT_SEL1),
 110:Generated_Source\PSoC4/CapSense_1.c ****     ((reg32 *) CYREG_HSIOM_PORT_SEL2),
 111:Generated_Source\PSoC4/CapSense_1.c ****     ((reg32 *) CYREG_HSIOM_PORT_SEL3),
 112:Generated_Source\PSoC4/CapSense_1.c ****     ((reg32 *) CYREG_HSIOM_PORT_SEL4),
 113:Generated_Source\PSoC4/CapSense_1.c ****     ((reg32 *) CYREG_HSIOM_PORT_SEL5),
 114:Generated_Source\PSoC4/CapSense_1.c ****     ((reg32 *) CYREG_HSIOM_PORT_SEL6),
 115:Generated_Source\PSoC4/CapSense_1.c **** };
 116:Generated_Source\PSoC4/CapSense_1.c **** 
 117:Generated_Source\PSoC4/CapSense_1.c **** reg32* const CapSense_1_prtCfgTbl[CapSense_1_CFG_REG_TBL_SIZE] = {
 118:Generated_Source\PSoC4/CapSense_1.c ****     ((reg32 *) CYREG_GPIO_PRT0_PC),
 119:Generated_Source\PSoC4/CapSense_1.c ****     ((reg32 *) CYREG_GPIO_PRT1_PC),
 120:Generated_Source\PSoC4/CapSense_1.c ****     ((reg32 *) CYREG_GPIO_PRT2_PC),
 121:Generated_Source\PSoC4/CapSense_1.c ****     ((reg32 *) CYREG_GPIO_PRT3_PC),
 122:Generated_Source\PSoC4/CapSense_1.c ****     ((reg32 *) CYREG_GPIO_PRT4_PC),
 123:Generated_Source\PSoC4/CapSense_1.c ****     ((reg32 *) CYREG_GPIO_PRT5_PC),
 124:Generated_Source\PSoC4/CapSense_1.c ****     ((reg32 *) CYREG_GPIO_PRT6_PC),
 125:Generated_Source\PSoC4/CapSense_1.c **** };
 126:Generated_Source\PSoC4/CapSense_1.c **** 
 127:Generated_Source\PSoC4/CapSense_1.c **** reg32* const CapSense_1_prtDRTbl[CapSense_1_CFG_REG_TBL_SIZE] = {
 128:Generated_Source\PSoC4/CapSense_1.c ****     ((reg32 *) CYREG_GPIO_PRT0_DR),
 129:Generated_Source\PSoC4/CapSense_1.c ****     ((reg32 *) CYREG_GPIO_PRT1_DR),
 130:Generated_Source\PSoC4/CapSense_1.c ****     ((reg32 *) CYREG_GPIO_PRT2_DR),
 131:Generated_Source\PSoC4/CapSense_1.c ****     ((reg32 *) CYREG_GPIO_PRT3_DR),
 132:Generated_Source\PSoC4/CapSense_1.c ****     ((reg32 *) CYREG_GPIO_PRT4_DR),
 133:Generated_Source\PSoC4/CapSense_1.c ****     ((reg32 *) CYREG_GPIO_PRT5_DR),
 134:Generated_Source\PSoC4/CapSense_1.c ****     ((reg32 *) CYREG_GPIO_PRT6_DR),
ARM GAS  C:\Users\d4hhm\AppData\Local\Temp\ccLEMF4D.s 			page 6


 135:Generated_Source\PSoC4/CapSense_1.c **** };
 136:Generated_Source\PSoC4/CapSense_1.c **** 
 137:Generated_Source\PSoC4/CapSense_1.c **** 
 138:Generated_Source\PSoC4/CapSense_1.c **** 
 139:Generated_Source\PSoC4/CapSense_1.c **** /*******************************************************************************
 140:Generated_Source\PSoC4/CapSense_1.c **** * Function Name: CapSense_1_Init
 141:Generated_Source\PSoC4/CapSense_1.c **** ********************************************************************************
 142:Generated_Source\PSoC4/CapSense_1.c **** *
 143:Generated_Source\PSoC4/CapSense_1.c **** * Summary:
 144:Generated_Source\PSoC4/CapSense_1.c **** *  API initializes default CapSense configuration provided by the customizer that defines
 145:Generated_Source\PSoC4/CapSense_1.c **** *  the mode of component operations and resets all the sensors to an inactive state.
 146:Generated_Source\PSoC4/CapSense_1.c **** *
 147:Generated_Source\PSoC4/CapSense_1.c **** * Parameters:
 148:Generated_Source\PSoC4/CapSense_1.c **** *  None
 149:Generated_Source\PSoC4/CapSense_1.c **** *
 150:Generated_Source\PSoC4/CapSense_1.c **** * Return:
 151:Generated_Source\PSoC4/CapSense_1.c **** *  None
 152:Generated_Source\PSoC4/CapSense_1.c **** *
 153:Generated_Source\PSoC4/CapSense_1.c **** * Global Variables:
 154:Generated_Source\PSoC4/CapSense_1.c **** *  CapSense_1_immunityIndex - defines immunity level.
 155:Generated_Source\PSoC4/CapSense_1.c **** *
 156:Generated_Source\PSoC4/CapSense_1.c **** * Side Effects:
 157:Generated_Source\PSoC4/CapSense_1.c **** *  None
 158:Generated_Source\PSoC4/CapSense_1.c **** *
 159:Generated_Source\PSoC4/CapSense_1.c **** *******************************************************************************/
 160:Generated_Source\PSoC4/CapSense_1.c **** void CapSense_1_Init(void)
 161:Generated_Source\PSoC4/CapSense_1.c **** {
 152              		.loc 1 161 0
 153              		.cfi_startproc
 154              		@ args = 0, pretend = 0, frame = 8
 155              		@ frame_needed = 1, uses_anonymous_args = 0
 156 0000 80B5     		push	{r7, lr}
 157              		.cfi_def_cfa_offset 8
 158              		.cfi_offset 7, -8
 159              		.cfi_offset 14, -4
 160 0002 82B0     		sub	sp, sp, #8
 161              		.cfi_def_cfa_offset 16
 162 0004 00AF     		add	r7, sp, #0
 163              		.cfi_def_cfa_register 7
 162:Generated_Source\PSoC4/CapSense_1.c ****     uint32 curSensor;
 163:Generated_Source\PSoC4/CapSense_1.c **** 
 164:Generated_Source\PSoC4/CapSense_1.c ****     #if(CapSense_1_IS_SHIELD_ENABLE)
 165:Generated_Source\PSoC4/CapSense_1.c **** 
 166:Generated_Source\PSoC4/CapSense_1.c ****         #if((CapSense_1_CSH_TANK_PREGARGE_OPTION == CapSense_1__CAPPRIOBUF) || (0u != CapSense_1_CS
 167:Generated_Source\PSoC4/CapSense_1.c ****             uint32 newRegValue;
 168:Generated_Source\PSoC4/CapSense_1.c **** 
 169:Generated_Source\PSoC4/CapSense_1.c ****             newRegValue = CapSense_1_CTANK_CONNECTION_REG;
 170:Generated_Source\PSoC4/CapSense_1.c ****             newRegValue &= ~(CapSense_1_CSD_CTANK_CONNECTION_MASK);
 171:Generated_Source\PSoC4/CapSense_1.c ****             newRegValue |= CapSense_1_CSD_CTANK_TO_AMUXBUS_B;
 172:Generated_Source\PSoC4/CapSense_1.c ****             CapSense_1_CTANK_CONNECTION_REG = newRegValue;
 173:Generated_Source\PSoC4/CapSense_1.c **** 
 174:Generated_Source\PSoC4/CapSense_1.c ****             #if(CapSense_1_CSH_TANK_PREGARGE_OPTION == CapSense_1__CAPPRIOBUF)
 175:Generated_Source\PSoC4/CapSense_1.c ****                 newRegValue = CapSense_1_CTANK_PORT_PC_REG;
 176:Generated_Source\PSoC4/CapSense_1.c ****                 newRegValue &= ~(CapSense_1_CSD_CTANK_PC_MASK);
 177:Generated_Source\PSoC4/CapSense_1.c ****                 newRegValue |= CapSense_1_CTANK_PC_STRONG_MODE;
 178:Generated_Source\PSoC4/CapSense_1.c ****                 CapSense_1_CTANK_PORT_PC_REG = newRegValue;
 179:Generated_Source\PSoC4/CapSense_1.c **** 
ARM GAS  C:\Users\d4hhm\AppData\Local\Temp\ccLEMF4D.s 			page 7


 180:Generated_Source\PSoC4/CapSense_1.c ****                 newRegValue = CapSense_1_CTANK_PORT_DR_REG;
 181:Generated_Source\PSoC4/CapSense_1.c ****                 newRegValue &= ~(CapSense_1_CTANK_DR_MASK);
 182:Generated_Source\PSoC4/CapSense_1.c ****                 newRegValue |= CapSense_1_CTANK_DR_CONFIG;
 183:Generated_Source\PSoC4/CapSense_1.c ****                 CapSense_1_CTANK_PORT_DR_REG = newRegValue;
 184:Generated_Source\PSoC4/CapSense_1.c ****             #endif /* (CapSense_1_CSH_TANK_PREGARGE_OPTION == CapSense_1__CAPPRIOBUF) */
 185:Generated_Source\PSoC4/CapSense_1.c **** 
 186:Generated_Source\PSoC4/CapSense_1.c ****         #endif /* ((CapSense_1_CSH_TANK_PREGARGE_OPTION == CapSense_1__CAPPRIOBUF) || (CapSense_1_C
 187:Generated_Source\PSoC4/CapSense_1.c **** 
 188:Generated_Source\PSoC4/CapSense_1.c ****         CapSense_1_EnableShieldElectrode((uint32)CapSense_1_SHIELD_PIN_NUMBER, (uint32)CapSense_1_S
 164              		.loc 1 188 0
 165 0006 0321     		movs	r1, #3
 166 0008 0720     		movs	r0, #7
 167 000a FFF7FEFF 		bl	CapSense_1_EnableShieldElectrode
 189:Generated_Source\PSoC4/CapSense_1.c **** 
 190:Generated_Source\PSoC4/CapSense_1.c ****     #endif /* (CapSense_1_IS_SHIELD_ENABLE) */
 191:Generated_Source\PSoC4/CapSense_1.c **** 
 192:Generated_Source\PSoC4/CapSense_1.c ****     for(curSensor = 0u; curSensor < CapSense_1_TOTAL_SENSOR_COUNT; curSensor++)
 168              		.loc 1 192 0
 169 000e 0023     		movs	r3, #0
 170 0010 7B60     		str	r3, [r7, #4]
 171 0012 07E0     		b	.L2
 172              	.L3:
 193:Generated_Source\PSoC4/CapSense_1.c ****     {
 194:Generated_Source\PSoC4/CapSense_1.c ****         CapSense_1_SetUnscannedSensorState(curSensor, CapSense_1_CONNECT_INACTIVE_SNS);
 173              		.loc 1 194 0 discriminator 3
 174 0014 7B68     		ldr	r3, [r7, #4]
 175 0016 0221     		movs	r1, #2
 176 0018 1800     		movs	r0, r3
 177 001a FFF7FEFF 		bl	CapSense_1_SetUnscannedSensorState
 192:Generated_Source\PSoC4/CapSense_1.c ****     {
 178              		.loc 1 192 0 discriminator 3
 179 001e 7B68     		ldr	r3, [r7, #4]
 180 0020 0133     		adds	r3, r3, #1
 181 0022 7B60     		str	r3, [r7, #4]
 182              	.L2:
 192:Generated_Source\PSoC4/CapSense_1.c ****     {
 183              		.loc 1 192 0 is_stmt 0 discriminator 1
 184 0024 7B68     		ldr	r3, [r7, #4]
 185 0026 002B     		cmp	r3, #0
 186 0028 F4D0     		beq	.L3
 195:Generated_Source\PSoC4/CapSense_1.c ****     }
 196:Generated_Source\PSoC4/CapSense_1.c **** 
 197:Generated_Source\PSoC4/CapSense_1.c ****     CapSense_1_CsdHwBlockInit();
 187              		.loc 1 197 0 is_stmt 1
 188 002a FFF7FEFF 		bl	CapSense_1_CsdHwBlockInit
 198:Generated_Source\PSoC4/CapSense_1.c ****     CapSense_1_SetShieldDelay(CapSense_1_SHIELD_DELAY );
 189              		.loc 1 198 0
 190 002e 0020     		movs	r0, #0
 191 0030 FFF7FEFF 		bl	CapSense_1_SetShieldDelay
 199:Generated_Source\PSoC4/CapSense_1.c **** 
 200:Generated_Source\PSoC4/CapSense_1.c ****     /* Clear all sensors */
 201:Generated_Source\PSoC4/CapSense_1.c ****     CapSense_1_ClearSensors();
 192              		.loc 1 201 0
 193 0034 FFF7FEFF 		bl	CapSense_1_ClearSensors
 202:Generated_Source\PSoC4/CapSense_1.c **** }
 194              		.loc 1 202 0
 195 0038 C046     		nop
ARM GAS  C:\Users\d4hhm\AppData\Local\Temp\ccLEMF4D.s 			page 8


 196 003a BD46     		mov	sp, r7
 197 003c 02B0     		add	sp, sp, #8
 198              		@ sp needed
 199 003e 80BD     		pop	{r7, pc}
 200              		.cfi_endproc
 201              	.LFE34:
 202              		.size	CapSense_1_Init, .-CapSense_1_Init
 203              		.section	.text.CapSense_1_CsdHwBlockInit,"ax",%progbits
 204              		.align	2
 205              		.global	CapSense_1_CsdHwBlockInit
 206              		.code	16
 207              		.thumb_func
 208              		.type	CapSense_1_CsdHwBlockInit, %function
 209              	CapSense_1_CsdHwBlockInit:
 210              	.LFB35:
 203:Generated_Source\PSoC4/CapSense_1.c **** 
 204:Generated_Source\PSoC4/CapSense_1.c **** /*******************************************************************************
 205:Generated_Source\PSoC4/CapSense_1.c **** * Function Name: CapSense_1_CsdHwBlockInit
 206:Generated_Source\PSoC4/CapSense_1.c **** ********************************************************************************
 207:Generated_Source\PSoC4/CapSense_1.c **** *
 208:Generated_Source\PSoC4/CapSense_1.c **** * Summary:
 209:Generated_Source\PSoC4/CapSense_1.c **** *  Initialises the hardware parameters of the CSD block
 210:Generated_Source\PSoC4/CapSense_1.c **** *
 211:Generated_Source\PSoC4/CapSense_1.c **** * Parameters:
 212:Generated_Source\PSoC4/CapSense_1.c **** *  None
 213:Generated_Source\PSoC4/CapSense_1.c **** *
 214:Generated_Source\PSoC4/CapSense_1.c **** * Return:
 215:Generated_Source\PSoC4/CapSense_1.c **** *  None
 216:Generated_Source\PSoC4/CapSense_1.c **** *
 217:Generated_Source\PSoC4/CapSense_1.c **** * Global Variables:
 218:Generated_Source\PSoC4/CapSense_1.c **** *  CapSense_1_csdTrim1 - Contains IDAC trim register value for Sourcing Mode.
 219:Generated_Source\PSoC4/CapSense_1.c **** *  CapSense_1_csdTrim2 - Contains IDAC trim register value for Sinking Mode.
 220:Generated_Source\PSoC4/CapSense_1.c **** *
 221:Generated_Source\PSoC4/CapSense_1.c **** * Side Effects:
 222:Generated_Source\PSoC4/CapSense_1.c **** *  None
 223:Generated_Source\PSoC4/CapSense_1.c **** *
 224:Generated_Source\PSoC4/CapSense_1.c **** *******************************************************************************/
 225:Generated_Source\PSoC4/CapSense_1.c **** void CapSense_1_CsdHwBlockInit(void)
 226:Generated_Source\PSoC4/CapSense_1.c **** {
 211              		.loc 1 226 0
 212              		.cfi_startproc
 213              		@ args = 0, pretend = 0, frame = 8
 214              		@ frame_needed = 1, uses_anonymous_args = 0
 215 0000 80B5     		push	{r7, lr}
 216              		.cfi_def_cfa_offset 8
 217              		.cfi_offset 7, -8
 218              		.cfi_offset 14, -4
 219 0002 82B0     		sub	sp, sp, #8
 220              		.cfi_def_cfa_offset 16
 221 0004 00AF     		add	r7, sp, #0
 222              		.cfi_def_cfa_register 7
 227:Generated_Source\PSoC4/CapSense_1.c ****     uint32 newRegValue;
 228:Generated_Source\PSoC4/CapSense_1.c **** 
 229:Generated_Source\PSoC4/CapSense_1.c ****         /* Set trim registers for CSD Mode */
 230:Generated_Source\PSoC4/CapSense_1.c ****     #if (CapSense_1_IDAC1_POLARITY == CapSense_1__IDAC_SINK)
 231:Generated_Source\PSoC4/CapSense_1.c ****         /* iDAC1 Sinking Mode */
 232:Generated_Source\PSoC4/CapSense_1.c ****         CapSense_1_csdTrim2 = (uint8)CapSense_1_CSD_TRIM2_REG;
ARM GAS  C:\Users\d4hhm\AppData\Local\Temp\ccLEMF4D.s 			page 9


 233:Generated_Source\PSoC4/CapSense_1.c ****         newRegValue = CapSense_1_csdTrim2;
 234:Generated_Source\PSoC4/CapSense_1.c ****         newRegValue &= CapSense_1_CSD_IDAC1_TRIM_MASK;
 235:Generated_Source\PSoC4/CapSense_1.c ****         newRegValue |= (uint32)((uint32)CapSense_1_SFLASH_CSD_TRIM2_REG & (uint32)CapSense_1_CSFLAS
 236:Generated_Source\PSoC4/CapSense_1.c **** 
 237:Generated_Source\PSoC4/CapSense_1.c ****         #if (CapSense_1_IDAC_CNT == 2u)
 238:Generated_Source\PSoC4/CapSense_1.c ****             /* iDAC2 Sinking Mode */
 239:Generated_Source\PSoC4/CapSense_1.c ****             newRegValue &= CapSense_1_CSD_IDAC2_TRIM_MASK;
 240:Generated_Source\PSoC4/CapSense_1.c ****             newRegValue |= (uint32)((uint32)CapSense_1_SFLASH_CSD_TRIM2_REG & (uint32)CapSense_1_CS
 241:Generated_Source\PSoC4/CapSense_1.c ****         #endif /* (CapSense_1_IDAC_CNT == 2u) */
 242:Generated_Source\PSoC4/CapSense_1.c ****         CapSense_1_CSD_TRIM2_REG = newRegValue;
 243:Generated_Source\PSoC4/CapSense_1.c ****     #else
 244:Generated_Source\PSoC4/CapSense_1.c ****         /* iDAC1 Sourcing Mode */
 245:Generated_Source\PSoC4/CapSense_1.c ****         CapSense_1_csdTrim1 = (uint8)CapSense_1_CSD_TRIM1_REG;
 223              		.loc 1 245 0
 224 0006 244B     		ldr	r3, .L5
 225 0008 1B68     		ldr	r3, [r3]
 226 000a DAB2     		uxtb	r2, r3
 227 000c 234B     		ldr	r3, .L5+4
 228 000e 1A70     		strb	r2, [r3]
 246:Generated_Source\PSoC4/CapSense_1.c ****         newRegValue = CapSense_1_csdTrim1;
 229              		.loc 1 246 0
 230 0010 224B     		ldr	r3, .L5+4
 231 0012 1B78     		ldrb	r3, [r3]
 232 0014 7B60     		str	r3, [r7, #4]
 247:Generated_Source\PSoC4/CapSense_1.c ****         newRegValue &= CapSense_1_CSD_IDAC1_TRIM_MASK;
 233              		.loc 1 247 0
 234 0016 7B68     		ldr	r3, [r7, #4]
 235 0018 0F22     		movs	r2, #15
 236 001a 9343     		bics	r3, r2
 237 001c 7B60     		str	r3, [r7, #4]
 248:Generated_Source\PSoC4/CapSense_1.c ****         newRegValue |= (uint32)((uint32)CapSense_1_SFLASH_CSD_TRIM1_REG & (uint32)CapSense_1_CSFLAS
 238              		.loc 1 248 0
 239 001e 204B     		ldr	r3, .L5+8
 240 0020 1B78     		ldrb	r3, [r3]
 241 0022 DBB2     		uxtb	r3, r3
 242 0024 1A00     		movs	r2, r3
 243 0026 0F23     		movs	r3, #15
 244 0028 1340     		ands	r3, r2
 245 002a 7A68     		ldr	r2, [r7, #4]
 246 002c 1343     		orrs	r3, r2
 247 002e 7B60     		str	r3, [r7, #4]
 249:Generated_Source\PSoC4/CapSense_1.c ****         #if (CapSense_1_IDAC_CNT == 2u)
 250:Generated_Source\PSoC4/CapSense_1.c ****              /* iDAC2 Sourcing Mode */
 251:Generated_Source\PSoC4/CapSense_1.c ****             newRegValue &= CapSense_1_CSD_IDAC2_TRIM_MASK;
 248              		.loc 1 251 0
 249 0030 7B68     		ldr	r3, [r7, #4]
 250 0032 F022     		movs	r2, #240
 251 0034 9343     		bics	r3, r2
 252 0036 7B60     		str	r3, [r7, #4]
 252:Generated_Source\PSoC4/CapSense_1.c ****             newRegValue |= (uint32)((uint32)CapSense_1_SFLASH_CSD_TRIM1_REG & (uint32)CapSense_1_CS
 253              		.loc 1 252 0
 254 0038 194B     		ldr	r3, .L5+8
 255 003a 1B78     		ldrb	r3, [r3]
 256 003c DBB2     		uxtb	r3, r3
 257 003e 1A00     		movs	r2, r3
 258 0040 F023     		movs	r3, #240
 259 0042 1340     		ands	r3, r2
ARM GAS  C:\Users\d4hhm\AppData\Local\Temp\ccLEMF4D.s 			page 10


 260 0044 7A68     		ldr	r2, [r7, #4]
 261 0046 1343     		orrs	r3, r2
 262 0048 7B60     		str	r3, [r7, #4]
 253:Generated_Source\PSoC4/CapSense_1.c ****         #endif
 254:Generated_Source\PSoC4/CapSense_1.c ****         CapSense_1_CSD_TRIM1_REG = newRegValue;
 263              		.loc 1 254 0
 264 004a 134B     		ldr	r3, .L5
 265 004c 7A68     		ldr	r2, [r7, #4]
 266 004e 1A60     		str	r2, [r3]
 255:Generated_Source\PSoC4/CapSense_1.c ****     #endif /* (CapSense_1_IDAC1_POLARITY == CapSense_1__IDAC_SINK) */
 256:Generated_Source\PSoC4/CapSense_1.c **** 
 257:Generated_Source\PSoC4/CapSense_1.c ****     /* Configure CSD and IDAC */
 258:Generated_Source\PSoC4/CapSense_1.c ****     #if (CapSense_1_IDAC_CNT > 1u)
 259:Generated_Source\PSoC4/CapSense_1.c ****         CapSense_1_CSD_IDAC_REG = CapSense_1_DEFAULT_CSD_IDAC_CONFIG;
 267              		.loc 1 259 0
 268 0050 144B     		ldr	r3, .L5+12
 269 0052 154A     		ldr	r2, .L5+16
 270 0054 1A60     		str	r2, [r3]
 260:Generated_Source\PSoC4/CapSense_1.c ****         CapSense_1_CSD_CFG_REG = CapSense_1_DEFAULT_CSD_CONFIG;
 271              		.loc 1 260 0
 272 0056 154B     		ldr	r3, .L5+20
 273 0058 154A     		ldr	r2, .L5+24
 274 005a 1A60     		str	r2, [r3]
 261:Generated_Source\PSoC4/CapSense_1.c ****     #else
 262:Generated_Source\PSoC4/CapSense_1.c ****         CapSense_1_CSD_IDAC_REG &= ~(CapSense_1_CSD_IDAC1_MODE_MASK  | CapSense_1_CSD_IDAC1_DATA_MA
 263:Generated_Source\PSoC4/CapSense_1.c ****         CapSense_1_CSD_IDAC_REG |= CapSense_1_DEFAULT_CSD_IDAC_CONFIG;
 264:Generated_Source\PSoC4/CapSense_1.c **** 
 265:Generated_Source\PSoC4/CapSense_1.c ****         CapSense_1_CSD_CFG_REG &= ~(CapSense_1_CSD_CONFIG_MASK);
 266:Generated_Source\PSoC4/CapSense_1.c ****         CapSense_1_CSD_CFG_REG |= (CapSense_1_DEFAULT_CSD_CONFIG);
 267:Generated_Source\PSoC4/CapSense_1.c ****     #endif /* (CapSense_1_IDAC_CNT > 1u) */
 268:Generated_Source\PSoC4/CapSense_1.c **** 
 269:Generated_Source\PSoC4/CapSense_1.c **** 
 270:Generated_Source\PSoC4/CapSense_1.c ****     /* Connect Cmod to AMUX bus */
 271:Generated_Source\PSoC4/CapSense_1.c ****     newRegValue = CapSense_1_CMOD_CONNECTION_REG;
 275              		.loc 1 271 0
 276 005c 154B     		ldr	r3, .L5+28
 277 005e 1B68     		ldr	r3, [r3]
 278 0060 7B60     		str	r3, [r7, #4]
 272:Generated_Source\PSoC4/CapSense_1.c ****     newRegValue &= ~(CapSense_1_CSD_CMOD_CONNECTION_MASK);
 279              		.loc 1 272 0
 280 0062 7B68     		ldr	r3, [r7, #4]
 281 0064 0F22     		movs	r2, #15
 282 0066 9343     		bics	r3, r2
 283 0068 7B60     		str	r3, [r7, #4]
 273:Generated_Source\PSoC4/CapSense_1.c ****     newRegValue |= CapSense_1_CSD_CMOD_TO_AMUXBUS_A;
 284              		.loc 1 273 0
 285 006a 7B68     		ldr	r3, [r7, #4]
 286 006c 0622     		movs	r2, #6
 287 006e 1343     		orrs	r3, r2
 288 0070 7B60     		str	r3, [r7, #4]
 274:Generated_Source\PSoC4/CapSense_1.c ****     CapSense_1_CMOD_CONNECTION_REG = newRegValue;
 289              		.loc 1 274 0
 290 0072 104B     		ldr	r3, .L5+28
 291 0074 7A68     		ldr	r2, [r7, #4]
 292 0076 1A60     		str	r2, [r3]
 275:Generated_Source\PSoC4/CapSense_1.c **** 
 276:Generated_Source\PSoC4/CapSense_1.c ****     /* Configure Dead Band PWM if it is enabled */
ARM GAS  C:\Users\d4hhm\AppData\Local\Temp\ccLEMF4D.s 			page 11


 277:Generated_Source\PSoC4/CapSense_1.c ****     #if(CapSense_1_CSD_4B_PWM_MODE != CapSense_1__PWM_OFF)
 278:Generated_Source\PSoC4/CapSense_1.c ****         CapSense_1_CSD_4B_PWM_REG = CapSense_1_DEFAULT_CSD_4B_PWM_CONFIG;
 279:Generated_Source\PSoC4/CapSense_1.c ****     #endif /* (CapSense_1_CSD_4B_PWM_MODE != CapSense_1__PWM_OFF) */
 280:Generated_Source\PSoC4/CapSense_1.c **** 
 281:Generated_Source\PSoC4/CapSense_1.c ****     /* Setup ISR */
 282:Generated_Source\PSoC4/CapSense_1.c ****     CyIntDisable(CapSense_1_ISR_NUMBER);
 293              		.loc 1 282 0
 294 0078 1020     		movs	r0, #16
 295 007a FFF7FEFF 		bl	CyIntDisable
 283:Generated_Source\PSoC4/CapSense_1.c ****     #if !defined(CY_EXTERNAL_INTERRUPT_CONFIG)
 284:Generated_Source\PSoC4/CapSense_1.c ****         (void)CyIntSetVector(CapSense_1_ISR_NUMBER, &CapSense_1_ISR);
 296              		.loc 1 284 0
 297 007e 0E4B     		ldr	r3, .L5+32
 298 0080 1900     		movs	r1, r3
 299 0082 1020     		movs	r0, #16
 300 0084 FFF7FEFF 		bl	CyIntSetVector
 285:Generated_Source\PSoC4/CapSense_1.c ****         CyIntSetPriority(CapSense_1_ISR_NUMBER, CapSense_1_ISR_PRIORITY);
 301              		.loc 1 285 0
 302 0088 0321     		movs	r1, #3
 303 008a 1020     		movs	r0, #16
 304 008c FFF7FEFF 		bl	CyIntSetPriority
 286:Generated_Source\PSoC4/CapSense_1.c ****     #endif /* (CY_EXTERNAL_INTERRUPT_CONFIG) */
 287:Generated_Source\PSoC4/CapSense_1.c **** }
 305              		.loc 1 287 0
 306 0090 C046     		nop
 307 0092 BD46     		mov	sp, r7
 308 0094 02B0     		add	sp, sp, #8
 309              		@ sp needed
 310 0096 80BD     		pop	{r7, pc}
 311              	.L6:
 312              		.align	2
 313              	.L5:
 314 0098 00FF2840 		.word	1076428544
 315 009c 00000000 		.word	CapSense_1_csdTrim1
 316 00a0 62F1FF0F 		.word	268431714
 317 00a4 08002840 		.word	1076363272
 318 00a8 00020001 		.word	16777728
 319 00ac 04002840 		.word	1076363268
 320 00b0 0008A001 		.word	27265024
 321 00b4 00040240 		.word	1073873920
 322 00b8 00000000 		.word	CapSense_1_ISR
 323              		.cfi_endproc
 324              	.LFE35:
 325              		.size	CapSense_1_CsdHwBlockInit, .-CapSense_1_CsdHwBlockInit
 326              		.section	.text.CapSense_1_Enable,"ax",%progbits
 327              		.align	2
 328              		.global	CapSense_1_Enable
 329              		.code	16
 330              		.thumb_func
 331              		.type	CapSense_1_Enable, %function
 332              	CapSense_1_Enable:
 333              	.LFB36:
 288:Generated_Source\PSoC4/CapSense_1.c **** 
 289:Generated_Source\PSoC4/CapSense_1.c **** 
 290:Generated_Source\PSoC4/CapSense_1.c **** /*******************************************************************************
 291:Generated_Source\PSoC4/CapSense_1.c **** * Function Name: CapSense_1_Enable
 292:Generated_Source\PSoC4/CapSense_1.c **** ********************************************************************************
ARM GAS  C:\Users\d4hhm\AppData\Local\Temp\ccLEMF4D.s 			page 12


 293:Generated_Source\PSoC4/CapSense_1.c **** *
 294:Generated_Source\PSoC4/CapSense_1.c **** * Summary:
 295:Generated_Source\PSoC4/CapSense_1.c **** *  Enables the CSD block and related resources to an active mode.
 296:Generated_Source\PSoC4/CapSense_1.c **** *
 297:Generated_Source\PSoC4/CapSense_1.c **** * Parameters:
 298:Generated_Source\PSoC4/CapSense_1.c **** *  None
 299:Generated_Source\PSoC4/CapSense_1.c **** *
 300:Generated_Source\PSoC4/CapSense_1.c **** * Return:
 301:Generated_Source\PSoC4/CapSense_1.c **** *  None
 302:Generated_Source\PSoC4/CapSense_1.c **** *
 303:Generated_Source\PSoC4/CapSense_1.c **** * Global Variables:
 304:Generated_Source\PSoC4/CapSense_1.c **** *  None.
 305:Generated_Source\PSoC4/CapSense_1.c **** *
 306:Generated_Source\PSoC4/CapSense_1.c **** * Side Effects:
 307:Generated_Source\PSoC4/CapSense_1.c **** *  None
 308:Generated_Source\PSoC4/CapSense_1.c **** *
 309:Generated_Source\PSoC4/CapSense_1.c **** *******************************************************************************/
 310:Generated_Source\PSoC4/CapSense_1.c **** void CapSense_1_Enable(void)
 311:Generated_Source\PSoC4/CapSense_1.c **** {
 334              		.loc 1 311 0
 335              		.cfi_startproc
 336              		@ args = 0, pretend = 0, frame = 8
 337              		@ frame_needed = 1, uses_anonymous_args = 0
 338 0000 80B5     		push	{r7, lr}
 339              		.cfi_def_cfa_offset 8
 340              		.cfi_offset 7, -8
 341              		.cfi_offset 14, -4
 342 0002 82B0     		sub	sp, sp, #8
 343              		.cfi_def_cfa_offset 16
 344 0004 00AF     		add	r7, sp, #0
 345              		.cfi_def_cfa_register 7
 312:Generated_Source\PSoC4/CapSense_1.c ****     uint32 newRegValue;
 313:Generated_Source\PSoC4/CapSense_1.c **** 
 314:Generated_Source\PSoC4/CapSense_1.c ****     /* Enable Clocks */
 315:Generated_Source\PSoC4/CapSense_1.c ****     CapSense_1_SenseClk_Stop();
 346              		.loc 1 315 0
 347 0006 FFF7FEFF 		bl	CapSense_1_SenseClk_Stop
 316:Generated_Source\PSoC4/CapSense_1.c ****     CapSense_1_SampleClk_Stop();
 348              		.loc 1 316 0
 349 000a FFF7FEFF 		bl	CapSense_1_SampleClk_Stop
 317:Generated_Source\PSoC4/CapSense_1.c **** 
 318:Generated_Source\PSoC4/CapSense_1.c ****     CapSense_1_SampleClk_SetDividerValue((uint16)CapSense_1_INITIAL_CLK_DIVIDER);
 350              		.loc 1 318 0
 351 000e 0021     		movs	r1, #0
 352 0010 0020     		movs	r0, #0
 353 0012 FFF7FEFF 		bl	CapSense_1_SampleClk_SetFractionalDividerRegister
 319:Generated_Source\PSoC4/CapSense_1.c ****     CapSense_1_SenseClk_SetDividerValue((uint16)CapSense_1_INITIAL_CLK_DIVIDER);
 354              		.loc 1 319 0
 355 0016 0021     		movs	r1, #0
 356 0018 0020     		movs	r0, #0
 357 001a FFF7FEFF 		bl	CapSense_1_SenseClk_SetFractionalDividerRegister
 320:Generated_Source\PSoC4/CapSense_1.c **** 
 321:Generated_Source\PSoC4/CapSense_1.c ****     #if (0u == CapSense_1_IS_M0S8PERI_BLOCK)
 322:Generated_Source\PSoC4/CapSense_1.c ****         CapSense_1_SenseClk_Start();
 323:Generated_Source\PSoC4/CapSense_1.c ****         CapSense_1_SampleClk_Start();
 324:Generated_Source\PSoC4/CapSense_1.c ****     #else
 325:Generated_Source\PSoC4/CapSense_1.c ****         CapSense_1_SampleClk_Start();
ARM GAS  C:\Users\d4hhm\AppData\Local\Temp\ccLEMF4D.s 			page 13


 358              		.loc 1 325 0
 359 001e FF20     		movs	r0, #255
 360 0020 FFF7FEFF 		bl	CapSense_1_SampleClk_StartEx
 326:Generated_Source\PSoC4/CapSense_1.c ****         CapSense_1_SenseClk_StartEx(CapSense_1_SampleClk__DIV_ID);
 361              		.loc 1 326 0
 362 0024 4020     		movs	r0, #64
 363 0026 FFF7FEFF 		bl	CapSense_1_SenseClk_StartEx
 327:Generated_Source\PSoC4/CapSense_1.c ****     #endif /* (0u == CapSense_1_IS_M0S8PERI_BLOCK) */
 328:Generated_Source\PSoC4/CapSense_1.c **** 
 329:Generated_Source\PSoC4/CapSense_1.c ****     /* Enable the CSD block */
 330:Generated_Source\PSoC4/CapSense_1.c ****     newRegValue = CapSense_1_CSD_CFG_REG;
 364              		.loc 1 330 0
 365 002a 084B     		ldr	r3, .L8
 366 002c 1B68     		ldr	r3, [r3]
 367 002e 7B60     		str	r3, [r7, #4]
 331:Generated_Source\PSoC4/CapSense_1.c ****     newRegValue |= (CapSense_1_CSD_CFG_ENABLE | CapSense_1_CSD_CFG_SENSE_COMP_EN
 368              		.loc 1 331 0
 369 0030 7B68     		ldr	r3, [r7, #4]
 370 0032 074A     		ldr	r2, .L8+4
 371 0034 1343     		orrs	r3, r2
 372 0036 7B60     		str	r3, [r7, #4]
 332:Generated_Source\PSoC4/CapSense_1.c ****                                                    | CapSense_1_CSD_CFG_SENSE_EN);
 333:Generated_Source\PSoC4/CapSense_1.c ****     CapSense_1_CSD_CFG_REG = newRegValue;
 373              		.loc 1 333 0
 374 0038 044B     		ldr	r3, .L8
 375 003a 7A68     		ldr	r2, [r7, #4]
 376 003c 1A60     		str	r2, [r3]
 334:Generated_Source\PSoC4/CapSense_1.c **** 
 335:Generated_Source\PSoC4/CapSense_1.c ****     /* Enable interrupt */
 336:Generated_Source\PSoC4/CapSense_1.c ****     CyIntEnable(CapSense_1_ISR_NUMBER);
 377              		.loc 1 336 0
 378 003e 1020     		movs	r0, #16
 379 0040 FFF7FEFF 		bl	CyIntEnable
 337:Generated_Source\PSoC4/CapSense_1.c **** }
 380              		.loc 1 337 0
 381 0044 C046     		nop
 382 0046 BD46     		mov	sp, r7
 383 0048 02B0     		add	sp, sp, #8
 384              		@ sp needed
 385 004a 80BD     		pop	{r7, pc}
 386              	.L9:
 387              		.align	2
 388              	.L8:
 389 004c 04002840 		.word	1076363268
 390 0050 00100880 		.word	-2146955264
 391              		.cfi_endproc
 392              	.LFE36:
 393              		.size	CapSense_1_Enable, .-CapSense_1_Enable
 394              		.section	.text.CapSense_1_Start,"ax",%progbits
 395              		.align	2
 396              		.global	CapSense_1_Start
 397              		.code	16
 398              		.thumb_func
 399              		.type	CapSense_1_Start, %function
 400              	CapSense_1_Start:
 401              	.LFB37:
 338:Generated_Source\PSoC4/CapSense_1.c **** 
ARM GAS  C:\Users\d4hhm\AppData\Local\Temp\ccLEMF4D.s 			page 14


 339:Generated_Source\PSoC4/CapSense_1.c **** 
 340:Generated_Source\PSoC4/CapSense_1.c **** /*******************************************************************************
 341:Generated_Source\PSoC4/CapSense_1.c **** * Function Name: CapSense_1_Start
 342:Generated_Source\PSoC4/CapSense_1.c **** ********************************************************************************
 343:Generated_Source\PSoC4/CapSense_1.c **** *
 344:Generated_Source\PSoC4/CapSense_1.c **** * Summary:
 345:Generated_Source\PSoC4/CapSense_1.c **** *  This is the preferred method to begin the component operation. CapSense_Start()
 346:Generated_Source\PSoC4/CapSense_1.c **** *  calls the CapSense_Init() function, and then calls the CapSense_Enable()
 347:Generated_Source\PSoC4/CapSense_1.c **** *  function. Initializes the registers and starts the CSD method of the CapSense
 348:Generated_Source\PSoC4/CapSense_1.c **** *  component. Resets all the sensors to an inactive state. Enables interrupts for
 349:Generated_Source\PSoC4/CapSense_1.c **** *  sensors scanning. When the SmartSense tuning mode is selected, the tuning procedure
 350:Generated_Source\PSoC4/CapSense_1.c **** *  is applied for all the sensors. The CapSense_Start() routine must be called before
 351:Generated_Source\PSoC4/CapSense_1.c **** *  any other API routines.
 352:Generated_Source\PSoC4/CapSense_1.c **** *
 353:Generated_Source\PSoC4/CapSense_1.c **** * Parameters:
 354:Generated_Source\PSoC4/CapSense_1.c **** *  None
 355:Generated_Source\PSoC4/CapSense_1.c **** *
 356:Generated_Source\PSoC4/CapSense_1.c **** * Return:
 357:Generated_Source\PSoC4/CapSense_1.c **** *  None
 358:Generated_Source\PSoC4/CapSense_1.c **** *
 359:Generated_Source\PSoC4/CapSense_1.c **** * Global Variables:
 360:Generated_Source\PSoC4/CapSense_1.c **** *   CapSense_1_initVar - used to check the initial configuration,
 361:Generated_Source\PSoC4/CapSense_1.c **** *   modified on the first function call.
 362:Generated_Source\PSoC4/CapSense_1.c **** *  CapSense_1_lowLevelTuningDone - Used to notify the Tuner GUI that
 363:Generated_Source\PSoC4/CapSense_1.c **** *   tuning of the scanning parameters is done.
 364:Generated_Source\PSoC4/CapSense_1.c **** *
 365:Generated_Source\PSoC4/CapSense_1.c **** * Side Effects:
 366:Generated_Source\PSoC4/CapSense_1.c **** *  None
 367:Generated_Source\PSoC4/CapSense_1.c **** *
 368:Generated_Source\PSoC4/CapSense_1.c **** *******************************************************************************/
 369:Generated_Source\PSoC4/CapSense_1.c **** void CapSense_1_Start(void)
 370:Generated_Source\PSoC4/CapSense_1.c **** {
 402              		.loc 1 370 0
 403              		.cfi_startproc
 404              		@ args = 0, pretend = 0, frame = 0
 405              		@ frame_needed = 1, uses_anonymous_args = 0
 406 0000 80B5     		push	{r7, lr}
 407              		.cfi_def_cfa_offset 8
 408              		.cfi_offset 7, -8
 409              		.cfi_offset 14, -4
 410 0002 00AF     		add	r7, sp, #0
 411              		.cfi_def_cfa_register 7
 371:Generated_Source\PSoC4/CapSense_1.c **** 
 372:Generated_Source\PSoC4/CapSense_1.c ****     static uint8 CapSense_1_initVar = 0u;
 373:Generated_Source\PSoC4/CapSense_1.c **** 
 374:Generated_Source\PSoC4/CapSense_1.c ****     #if((0u != CapSense_1_AUTOCALIBRATION_ENABLE) && (CapSense_1_TUNING_METHOD != CapSense_1__TUNIN
 375:Generated_Source\PSoC4/CapSense_1.c ****         uint32 curSensor;
 376:Generated_Source\PSoC4/CapSense_1.c ****         uint32 rawLevel;
 377:Generated_Source\PSoC4/CapSense_1.c ****         uint32 widget;
 378:Generated_Source\PSoC4/CapSense_1.c ****     #endif /* ((0u != CapSense_1_AUTOCALIBRATION_ENABLE) && (CapSense_1_TUNING_METHOD != CapSense_1
 379:Generated_Source\PSoC4/CapSense_1.c **** 
 380:Generated_Source\PSoC4/CapSense_1.c ****     if (CapSense_1_initVar == 0u)
 412              		.loc 1 380 0
 413 0004 0A4B     		ldr	r3, .L12
 414 0006 1B78     		ldrb	r3, [r3]
 415 0008 002B     		cmp	r3, #0
 416 000a 04D1     		bne	.L11
ARM GAS  C:\Users\d4hhm\AppData\Local\Temp\ccLEMF4D.s 			page 15


 381:Generated_Source\PSoC4/CapSense_1.c ****     {
 382:Generated_Source\PSoC4/CapSense_1.c ****         CapSense_1_Init();
 417              		.loc 1 382 0
 418 000c FFF7FEFF 		bl	CapSense_1_Init
 383:Generated_Source\PSoC4/CapSense_1.c ****         CapSense_1_initVar = 1u;
 419              		.loc 1 383 0
 420 0010 074B     		ldr	r3, .L12
 421 0012 0122     		movs	r2, #1
 422 0014 1A70     		strb	r2, [r3]
 423              	.L11:
 384:Generated_Source\PSoC4/CapSense_1.c ****     }
 385:Generated_Source\PSoC4/CapSense_1.c ****     CapSense_1_Enable();
 424              		.loc 1 385 0
 425 0016 FFF7FEFF 		bl	CapSense_1_Enable
 386:Generated_Source\PSoC4/CapSense_1.c **** 
 387:Generated_Source\PSoC4/CapSense_1.c ****     /* AutoTunning start */
 388:Generated_Source\PSoC4/CapSense_1.c ****     #if(CapSense_1_TUNING_METHOD == CapSense_1__TUNING_AUTO)
 389:Generated_Source\PSoC4/CapSense_1.c ****         #if(0u != CapSense_1_CSHL_API_GENERATE)
 390:Generated_Source\PSoC4/CapSense_1.c ****             CapSense_1_AutoTune();
 391:Generated_Source\PSoC4/CapSense_1.c ****             CapSense_1_lowLevelTuningDone = 1u;
 392:Generated_Source\PSoC4/CapSense_1.c ****         #endif /* (0u != CapSense_1_CSHL_API_GENERATE) */
 393:Generated_Source\PSoC4/CapSense_1.c ****     #else
 394:Generated_Source\PSoC4/CapSense_1.c ****         #if(0u != CapSense_1_AUTOCALIBRATION_ENABLE)
 395:Generated_Source\PSoC4/CapSense_1.c **** 
 396:Generated_Source\PSoC4/CapSense_1.c ****             #if(CapSense_1_IDAC_CNT > 1u)
 397:Generated_Source\PSoC4/CapSense_1.c ****                 CapSense_1_CSD_IDAC_REG &= ~(CapSense_1_CSD_IDAC2_MODE_MASK);
 398:Generated_Source\PSoC4/CapSense_1.c ****             #endif /* (CapSense_1_IDAC_CNT > 1u) */
 399:Generated_Source\PSoC4/CapSense_1.c **** 
 400:Generated_Source\PSoC4/CapSense_1.c ****             for(curSensor = 0u; curSensor < CapSense_1_TOTAL_SCANSLOT_COUNT; curSensor++)
 401:Generated_Source\PSoC4/CapSense_1.c ****             {
 402:Generated_Source\PSoC4/CapSense_1.c ****                 widget = CapSense_1_widgetNumber[curSensor];
 403:Generated_Source\PSoC4/CapSense_1.c ****                 rawLevel = CapSense_1_widgetResolution[widget] >> CapSense_1_RESOLUTION_OFFSET;
 404:Generated_Source\PSoC4/CapSense_1.c **** 
 405:Generated_Source\PSoC4/CapSense_1.c ****                 /* Calibration level should be equal to 85% from scanning resolution */
 406:Generated_Source\PSoC4/CapSense_1.c ****                 rawLevel = (rawLevel * 85u) / 100u;
 407:Generated_Source\PSoC4/CapSense_1.c **** 
 408:Generated_Source\PSoC4/CapSense_1.c ****                 CapSense_1_CalibrateSensor(curSensor, rawLevel, CapSense_1_modulationIDAC);
 409:Generated_Source\PSoC4/CapSense_1.c ****             }
 410:Generated_Source\PSoC4/CapSense_1.c **** 
 411:Generated_Source\PSoC4/CapSense_1.c ****             #if(0u != CapSense_1_TOTAL_CENTROIDS_COUNT)
 412:Generated_Source\PSoC4/CapSense_1.c ****                 CapSense_1_NormalizeWidgets(CapSense_1_END_OF_WIDGETS_INDEX, CapSense_1_modulationI
 413:Generated_Source\PSoC4/CapSense_1.c ****             #endif /* (0u != CapSense_1_TOTAL_CENTROIDS_COUNT)  */
 414:Generated_Source\PSoC4/CapSense_1.c **** 
 415:Generated_Source\PSoC4/CapSense_1.c ****             #if(CapSense_1_IDAC_CNT > 1u)
 416:Generated_Source\PSoC4/CapSense_1.c ****                 for(curSensor = 0u; curSensor < CapSense_1_TOTAL_SCANSLOT_COUNT; curSensor++)
 417:Generated_Source\PSoC4/CapSense_1.c ****                 {
 418:Generated_Source\PSoC4/CapSense_1.c ****                     CapSense_1_compensationIDAC[curSensor] = CapSense_1_modulationIDAC[curSensor] /
 419:Generated_Source\PSoC4/CapSense_1.c ****                     CapSense_1_modulationIDAC[curSensor] = (CapSense_1_modulationIDAC[curSensor] + 
 420:Generated_Source\PSoC4/CapSense_1.c ****                 }
 421:Generated_Source\PSoC4/CapSense_1.c ****                 CapSense_1_CSD_IDAC_REG |= CapSense_1_CSD_IDAC2_MODE_FIXED;
 422:Generated_Source\PSoC4/CapSense_1.c ****             #endif /* (CapSense_1_IDAC_CNT > 1u) */
 423:Generated_Source\PSoC4/CapSense_1.c **** 
 424:Generated_Source\PSoC4/CapSense_1.c ****         #endif /* (0u != CapSense_1_AUTOCALIBRATION_ENABLE) */
 425:Generated_Source\PSoC4/CapSense_1.c **** 
 426:Generated_Source\PSoC4/CapSense_1.c ****     #endif /* ((CapSense_1_TUNING_METHOD == CapSense_1__TUNING_AUTO) */
 427:Generated_Source\PSoC4/CapSense_1.c **** 
 428:Generated_Source\PSoC4/CapSense_1.c ****     /* Initialize Advanced Centroid */
ARM GAS  C:\Users\d4hhm\AppData\Local\Temp\ccLEMF4D.s 			page 16


 429:Generated_Source\PSoC4/CapSense_1.c ****     #if(CapSense_1_TOTAL_TRACKPAD_GESTURES_COUNT > 0u)
 430:Generated_Source\PSoC4/CapSense_1.c ****         CapSense_1_AdvancedCentroidInit();
 431:Generated_Source\PSoC4/CapSense_1.c ****     #endif /* (CapSense_1_TOTAL_TRACKPAD_GESTURES_COUNT > 0u) */
 432:Generated_Source\PSoC4/CapSense_1.c **** 
 433:Generated_Source\PSoC4/CapSense_1.c ****     /* Connect sense comparator input to AMUXA */
 434:Generated_Source\PSoC4/CapSense_1.c ****     CapSense_1_CSD_CFG_REG |= CapSense_1_CSD_CFG_SENSE_INSEL;
 426              		.loc 1 434 0
 427 001a 064B     		ldr	r3, .L12+4
 428 001c 054A     		ldr	r2, .L12+4
 429 001e 1268     		ldr	r2, [r2]
 430 0020 8021     		movs	r1, #128
 431 0022 C903     		lsls	r1, r1, #15
 432 0024 0A43     		orrs	r2, r1
 433 0026 1A60     		str	r2, [r3]
 435:Generated_Source\PSoC4/CapSense_1.c **** }
 434              		.loc 1 435 0
 435 0028 C046     		nop
 436 002a BD46     		mov	sp, r7
 437              		@ sp needed
 438 002c 80BD     		pop	{r7, pc}
 439              	.L13:
 440 002e C046     		.align	2
 441              	.L12:
 442 0030 06000000 		.word	CapSense_1_initVar.5375
 443 0034 04002840 		.word	1076363268
 444              		.cfi_endproc
 445              	.LFE37:
 446              		.size	CapSense_1_Start, .-CapSense_1_Start
 447              		.section	.text.CapSense_1_Stop,"ax",%progbits
 448              		.align	2
 449              		.global	CapSense_1_Stop
 450              		.code	16
 451              		.thumb_func
 452              		.type	CapSense_1_Stop, %function
 453              	CapSense_1_Stop:
 454              	.LFB38:
 436:Generated_Source\PSoC4/CapSense_1.c **** 
 437:Generated_Source\PSoC4/CapSense_1.c **** 
 438:Generated_Source\PSoC4/CapSense_1.c **** /*******************************************************************************
 439:Generated_Source\PSoC4/CapSense_1.c **** * Function Name: CapSense_1_Stop
 440:Generated_Source\PSoC4/CapSense_1.c **** ********************************************************************************
 441:Generated_Source\PSoC4/CapSense_1.c **** *
 442:Generated_Source\PSoC4/CapSense_1.c **** * Summary:
 443:Generated_Source\PSoC4/CapSense_1.c **** *  Stops the sensor scanning, disables component interrupts, and resets all the
 444:Generated_Source\PSoC4/CapSense_1.c **** *  sensors to an inactive state. Disables the Active mode power template bits for
 445:Generated_Source\PSoC4/CapSense_1.c **** *  the subcomponents used within CapSense.
 446:Generated_Source\PSoC4/CapSense_1.c **** *
 447:Generated_Source\PSoC4/CapSense_1.c **** * Parameters:
 448:Generated_Source\PSoC4/CapSense_1.c **** *  None
 449:Generated_Source\PSoC4/CapSense_1.c **** *
 450:Generated_Source\PSoC4/CapSense_1.c **** * Return:
 451:Generated_Source\PSoC4/CapSense_1.c **** *  None
 452:Generated_Source\PSoC4/CapSense_1.c **** *
 453:Generated_Source\PSoC4/CapSense_1.c **** * Global Variables:
 454:Generated_Source\PSoC4/CapSense_1.c **** *  CapSense_1_csdTrim1 - Contains the IDAC trim register value for the Sourcing Mode.
 455:Generated_Source\PSoC4/CapSense_1.c **** *  CapSense_1_csdTrim2 - Contains the IDAC trim register value for vSinking Mode.
 456:Generated_Source\PSoC4/CapSense_1.c **** *
ARM GAS  C:\Users\d4hhm\AppData\Local\Temp\ccLEMF4D.s 			page 17


 457:Generated_Source\PSoC4/CapSense_1.c **** * Side Effects:
 458:Generated_Source\PSoC4/CapSense_1.c **** *  This function should be called after scans are completed.
 459:Generated_Source\PSoC4/CapSense_1.c **** *
 460:Generated_Source\PSoC4/CapSense_1.c **** *******************************************************************************/
 461:Generated_Source\PSoC4/CapSense_1.c **** void CapSense_1_Stop(void)
 462:Generated_Source\PSoC4/CapSense_1.c **** {
 455              		.loc 1 462 0
 456              		.cfi_startproc
 457              		@ args = 0, pretend = 0, frame = 0
 458              		@ frame_needed = 1, uses_anonymous_args = 0
 459 0000 80B5     		push	{r7, lr}
 460              		.cfi_def_cfa_offset 8
 461              		.cfi_offset 7, -8
 462              		.cfi_offset 14, -4
 463 0002 00AF     		add	r7, sp, #0
 464              		.cfi_def_cfa_register 7
 463:Generated_Source\PSoC4/CapSense_1.c ****     /* Disable interrupt */
 464:Generated_Source\PSoC4/CapSense_1.c ****     CyIntDisable(CapSense_1_ISR_NUMBER);
 465              		.loc 1 464 0
 466 0004 1020     		movs	r0, #16
 467 0006 FFF7FEFF 		bl	CyIntDisable
 465:Generated_Source\PSoC4/CapSense_1.c **** 
 466:Generated_Source\PSoC4/CapSense_1.c ****     CapSense_1_CSD_CFG_REG &= ~(CapSense_1_CSD_CFG_SENSE_COMP_EN | CapSense_1_CSD_CFG_SENSE_EN);
 468              		.loc 1 466 0
 469 000a 094B     		ldr	r3, .L15
 470 000c 084A     		ldr	r2, .L15
 471 000e 1268     		ldr	r2, [r2]
 472 0010 0849     		ldr	r1, .L15+4
 473 0012 0A40     		ands	r2, r1
 474 0014 1A60     		str	r2, [r3]
 467:Generated_Source\PSoC4/CapSense_1.c **** 
 468:Generated_Source\PSoC4/CapSense_1.c ****     #if(CapSense_1_IDAC_CNT == 2u)
 469:Generated_Source\PSoC4/CapSense_1.c ****         CapSense_1_CSD_CFG_REG &= ~(CapSense_1_CSD_CFG_ENABLE);
 475              		.loc 1 469 0
 476 0016 064B     		ldr	r3, .L15
 477 0018 054A     		ldr	r2, .L15
 478 001a 1268     		ldr	r2, [r2]
 479 001c 5200     		lsls	r2, r2, #1
 480 001e 5208     		lsrs	r2, r2, #1
 481 0020 1A60     		str	r2, [r3]
 470:Generated_Source\PSoC4/CapSense_1.c ****     #endif /* (CapSense_1_IDAC_CNT == 2u) */
 471:Generated_Source\PSoC4/CapSense_1.c **** 
 472:Generated_Source\PSoC4/CapSense_1.c ****     /* Disable the Clocks */
 473:Generated_Source\PSoC4/CapSense_1.c ****     CapSense_1_SenseClk_Stop();
 482              		.loc 1 473 0
 483 0022 FFF7FEFF 		bl	CapSense_1_SenseClk_Stop
 474:Generated_Source\PSoC4/CapSense_1.c ****     CapSense_1_SampleClk_Stop();
 484              		.loc 1 474 0
 485 0026 FFF7FEFF 		bl	CapSense_1_SampleClk_Stop
 475:Generated_Source\PSoC4/CapSense_1.c **** }
 486              		.loc 1 475 0
 487 002a C046     		nop
 488 002c BD46     		mov	sp, r7
 489              		@ sp needed
 490 002e 80BD     		pop	{r7, pc}
 491              	.L16:
 492              		.align	2
ARM GAS  C:\Users\d4hhm\AppData\Local\Temp\ccLEMF4D.s 			page 18


 493              	.L15:
 494 0030 04002840 		.word	1076363268
 495 0034 FFEFF7FF 		.word	-528385
 496              		.cfi_endproc
 497              	.LFE38:
 498              		.size	CapSense_1_Stop, .-CapSense_1_Stop
 499              		.section	.text.CapSense_1_FindNextSensor,"ax",%progbits
 500              		.align	2
 501              		.global	CapSense_1_FindNextSensor
 502              		.code	16
 503              		.thumb_func
 504              		.type	CapSense_1_FindNextSensor, %function
 505              	CapSense_1_FindNextSensor:
 506              	.LFB39:
 476:Generated_Source\PSoC4/CapSense_1.c **** 
 477:Generated_Source\PSoC4/CapSense_1.c **** 
 478:Generated_Source\PSoC4/CapSense_1.c **** /*******************************************************************************
 479:Generated_Source\PSoC4/CapSense_1.c **** * Function Name: CapSense_1_FindNextSensor
 480:Generated_Source\PSoC4/CapSense_1.c **** ********************************************************************************
 481:Generated_Source\PSoC4/CapSense_1.c **** *
 482:Generated_Source\PSoC4/CapSense_1.c **** * Summary:
 483:Generated_Source\PSoC4/CapSense_1.c **** *  Finds the next sensor to scan.
 484:Generated_Source\PSoC4/CapSense_1.c **** *
 485:Generated_Source\PSoC4/CapSense_1.c **** * Parameters:
 486:Generated_Source\PSoC4/CapSense_1.c **** *  snsIndex:  Current index of sensor.
 487:Generated_Source\PSoC4/CapSense_1.c **** *
 488:Generated_Source\PSoC4/CapSense_1.c **** * Return:
 489:Generated_Source\PSoC4/CapSense_1.c **** *  Returns the next sensor index to scan.
 490:Generated_Source\PSoC4/CapSense_1.c **** *
 491:Generated_Source\PSoC4/CapSense_1.c **** * Global Variables:
 492:Generated_Source\PSoC4/CapSense_1.c **** *  CapSense_1_sensorEnableMask[] - used to store bit masks of the enabled sensors.
 493:Generated_Source\PSoC4/CapSense_1.c **** *
 494:Generated_Source\PSoC4/CapSense_1.c **** * Side Effects:
 495:Generated_Source\PSoC4/CapSense_1.c **** *  This function affects the  current scanning and should not
 496:Generated_Source\PSoC4/CapSense_1.c **** *  be used outside the component.
 497:Generated_Source\PSoC4/CapSense_1.c **** *
 498:Generated_Source\PSoC4/CapSense_1.c **** *******************************************************************************/
 499:Generated_Source\PSoC4/CapSense_1.c **** uint8 CapSense_1_FindNextSensor(uint8 snsIndex)
 500:Generated_Source\PSoC4/CapSense_1.c **** {
 507              		.loc 1 500 0
 508              		.cfi_startproc
 509              		@ args = 0, pretend = 0, frame = 16
 510              		@ frame_needed = 1, uses_anonymous_args = 0
 511 0000 80B5     		push	{r7, lr}
 512              		.cfi_def_cfa_offset 8
 513              		.cfi_offset 7, -8
 514              		.cfi_offset 14, -4
 515 0002 84B0     		sub	sp, sp, #16
 516              		.cfi_def_cfa_offset 24
 517 0004 00AF     		add	r7, sp, #0
 518              		.cfi_def_cfa_register 7
 519 0006 0200     		movs	r2, r0
 520 0008 FB1D     		adds	r3, r7, #7
 521 000a 1A70     		strb	r2, [r3]
 522              	.L20:
 501:Generated_Source\PSoC4/CapSense_1.c ****     uint32 enableFlag;
 502:Generated_Source\PSoC4/CapSense_1.c **** 
ARM GAS  C:\Users\d4hhm\AppData\Local\Temp\ccLEMF4D.s 			page 19


 503:Generated_Source\PSoC4/CapSense_1.c ****     /* Check if sensor enabled */
 504:Generated_Source\PSoC4/CapSense_1.c ****     do
 505:Generated_Source\PSoC4/CapSense_1.c ****     {
 506:Generated_Source\PSoC4/CapSense_1.c ****         /* Proceed with next sensor */
 507:Generated_Source\PSoC4/CapSense_1.c ****         snsIndex++;
 523              		.loc 1 507 0
 524 000c FB1D     		adds	r3, r7, #7
 525 000e 1A78     		ldrb	r2, [r3]
 526 0010 FB1D     		adds	r3, r7, #7
 527 0012 0132     		adds	r2, r2, #1
 528 0014 1A70     		strb	r2, [r3]
 508:Generated_Source\PSoC4/CapSense_1.c ****         if(snsIndex == CapSense_1_TOTAL_SENSOR_COUNT)
 529              		.loc 1 508 0
 530 0016 FB1D     		adds	r3, r7, #7
 531 0018 1B78     		ldrb	r3, [r3]
 532 001a 012B     		cmp	r3, #1
 533 001c 0CD0     		beq	.L22
 509:Generated_Source\PSoC4/CapSense_1.c ****         {
 510:Generated_Source\PSoC4/CapSense_1.c ****             break;
 511:Generated_Source\PSoC4/CapSense_1.c ****         }
 512:Generated_Source\PSoC4/CapSense_1.c ****         enableFlag = CapSense_1_GetBitValue(CapSense_1_sensorEnableMask, (uint32)snsIndex);
 534              		.loc 1 512 0
 535 001e FB1D     		adds	r3, r7, #7
 536 0020 1A78     		ldrb	r2, [r3]
 537 0022 094B     		ldr	r3, .L23
 538 0024 1100     		movs	r1, r2
 539 0026 1800     		movs	r0, r3
 540 0028 FFF7FEFF 		bl	CapSense_1_GetBitValue
 541 002c 0300     		movs	r3, r0
 542 002e FB60     		str	r3, [r7, #12]
 513:Generated_Source\PSoC4/CapSense_1.c ****     }
 514:Generated_Source\PSoC4/CapSense_1.c ****     while(enableFlag == 0u);
 543              		.loc 1 514 0
 544 0030 FB68     		ldr	r3, [r7, #12]
 545 0032 002B     		cmp	r3, #0
 546 0034 EAD0     		beq	.L20
 547 0036 00E0     		b	.L19
 548              	.L22:
 510:Generated_Source\PSoC4/CapSense_1.c ****         }
 549              		.loc 1 510 0
 550 0038 C046     		nop
 551              	.L19:
 515:Generated_Source\PSoC4/CapSense_1.c **** 
 516:Generated_Source\PSoC4/CapSense_1.c ****     return ((uint8)snsIndex);
 552              		.loc 1 516 0
 553 003a FB1D     		adds	r3, r7, #7
 554 003c 1B78     		ldrb	r3, [r3]
 517:Generated_Source\PSoC4/CapSense_1.c **** }
 555              		.loc 1 517 0
 556 003e 1800     		movs	r0, r3
 557 0040 BD46     		mov	sp, r7
 558 0042 04B0     		add	sp, sp, #16
 559              		@ sp needed
 560 0044 80BD     		pop	{r7, pc}
 561              	.L24:
 562 0046 C046     		.align	2
 563              	.L23:
ARM GAS  C:\Users\d4hhm\AppData\Local\Temp\ccLEMF4D.s 			page 20


 564 0048 00000000 		.word	CapSense_1_sensorEnableMask
 565              		.cfi_endproc
 566              	.LFE39:
 567              		.size	CapSense_1_FindNextSensor, .-CapSense_1_FindNextSensor
 568              		.section	.text.CapSense_1_ScanSensor,"ax",%progbits
 569              		.align	2
 570              		.global	CapSense_1_ScanSensor
 571              		.code	16
 572              		.thumb_func
 573              		.type	CapSense_1_ScanSensor, %function
 574              	CapSense_1_ScanSensor:
 575              	.LFB40:
 518:Generated_Source\PSoC4/CapSense_1.c **** 
 519:Generated_Source\PSoC4/CapSense_1.c **** 
 520:Generated_Source\PSoC4/CapSense_1.c **** /*******************************************************************************
 521:Generated_Source\PSoC4/CapSense_1.c **** * Function Name: CapSense_1_ScanSensor
 522:Generated_Source\PSoC4/CapSense_1.c **** ********************************************************************************
 523:Generated_Source\PSoC4/CapSense_1.c **** *
 524:Generated_Source\PSoC4/CapSense_1.c **** * Summary:
 525:Generated_Source\PSoC4/CapSense_1.c **** *  Sets the scan settings and starts scanning a sensor. After scanning is complete,
 526:Generated_Source\PSoC4/CapSense_1.c **** *  the ISR copies the measured sensor raw data to the global raw sensor array.
 527:Generated_Source\PSoC4/CapSense_1.c **** *  Use of the ISR ensures this function is non-blocking.
 528:Generated_Source\PSoC4/CapSense_1.c **** *  Each sensor has a unique number within the sensor array.
 529:Generated_Source\PSoC4/CapSense_1.c **** *  This number is assigned by the CapSense customizer in sequence.
 530:Generated_Source\PSoC4/CapSense_1.c **** *
 531:Generated_Source\PSoC4/CapSense_1.c **** * Parameters:
 532:Generated_Source\PSoC4/CapSense_1.c **** *  sensor:  Sensor number.
 533:Generated_Source\PSoC4/CapSense_1.c **** *
 534:Generated_Source\PSoC4/CapSense_1.c **** * Return:
 535:Generated_Source\PSoC4/CapSense_1.c **** *  None
 536:Generated_Source\PSoC4/CapSense_1.c **** *
 537:Generated_Source\PSoC4/CapSense_1.c **** * Global Variables:
 538:Generated_Source\PSoC4/CapSense_1.c **** *  CapSense_1_csdStatusVar - used to provide the status and mode of the scanning process.
 539:Generated_Source\PSoC4/CapSense_1.c **** *  Sets the busy status(scan in progress) and mode of scan as single scan.
 540:Generated_Source\PSoC4/CapSense_1.c **** *  CapSense_1_sensorIndex - used to store a sensor scanning sensor number.
 541:Generated_Source\PSoC4/CapSense_1.c **** *  Sets to the provided sensor argument.
 542:Generated_Source\PSoC4/CapSense_1.c **** *
 543:Generated_Source\PSoC4/CapSense_1.c **** * Side Effects:
 544:Generated_Source\PSoC4/CapSense_1.c **** *  None
 545:Generated_Source\PSoC4/CapSense_1.c **** *
 546:Generated_Source\PSoC4/CapSense_1.c **** *******************************************************************************/
 547:Generated_Source\PSoC4/CapSense_1.c **** void CapSense_1_ScanSensor(uint32 sensor)
 548:Generated_Source\PSoC4/CapSense_1.c **** {
 576              		.loc 1 548 0
 577              		.cfi_startproc
 578              		@ args = 0, pretend = 0, frame = 8
 579              		@ frame_needed = 1, uses_anonymous_args = 0
 580 0000 80B5     		push	{r7, lr}
 581              		.cfi_def_cfa_offset 8
 582              		.cfi_offset 7, -8
 583              		.cfi_offset 14, -4
 584 0002 82B0     		sub	sp, sp, #8
 585              		.cfi_def_cfa_offset 16
 586 0004 00AF     		add	r7, sp, #0
 587              		.cfi_def_cfa_register 7
 588 0006 7860     		str	r0, [r7, #4]
 549:Generated_Source\PSoC4/CapSense_1.c ****     /* Clears status/control variable and set sensorIndex */
ARM GAS  C:\Users\d4hhm\AppData\Local\Temp\ccLEMF4D.s 			page 21


 550:Generated_Source\PSoC4/CapSense_1.c ****     CapSense_1_csdStatusVar = 0u;
 589              		.loc 1 550 0
 590 0008 084B     		ldr	r3, .L26
 591 000a 0022     		movs	r2, #0
 592 000c 1A70     		strb	r2, [r3]
 551:Generated_Source\PSoC4/CapSense_1.c ****     CapSense_1_sensorIndex = (uint8)sensor;
 593              		.loc 1 551 0
 594 000e 7B68     		ldr	r3, [r7, #4]
 595 0010 DAB2     		uxtb	r2, r3
 596 0012 074B     		ldr	r3, .L26+4
 597 0014 1A70     		strb	r2, [r3]
 552:Generated_Source\PSoC4/CapSense_1.c **** 
 553:Generated_Source\PSoC4/CapSense_1.c ****     /* Start of sensor scan */
 554:Generated_Source\PSoC4/CapSense_1.c ****     CapSense_1_csdStatusVar = (CapSense_1_SW_STS_BUSY | CapSense_1_SW_CTRL_SINGLE_SCAN);
 598              		.loc 1 554 0
 599 0016 054B     		ldr	r3, .L26
 600 0018 8122     		movs	r2, #129
 601 001a 1A70     		strb	r2, [r3]
 555:Generated_Source\PSoC4/CapSense_1.c ****     CapSense_1_PreScan(sensor);
 602              		.loc 1 555 0
 603 001c 7B68     		ldr	r3, [r7, #4]
 604 001e 1800     		movs	r0, r3
 605 0020 FFF7FEFF 		bl	CapSense_1_PreScan
 556:Generated_Source\PSoC4/CapSense_1.c **** }
 606              		.loc 1 556 0
 607 0024 C046     		nop
 608 0026 BD46     		mov	sp, r7
 609 0028 02B0     		add	sp, sp, #8
 610              		@ sp needed
 611 002a 80BD     		pop	{r7, pc}
 612              	.L27:
 613              		.align	2
 614              	.L26:
 615 002c 00000000 		.word	CapSense_1_csdStatusVar
 616 0030 00000000 		.word	CapSense_1_sensorIndex
 617              		.cfi_endproc
 618              	.LFE40:
 619              		.size	CapSense_1_ScanSensor, .-CapSense_1_ScanSensor
 620              		.section	.text.CapSense_1_ScanWidget,"ax",%progbits
 621              		.align	2
 622              		.global	CapSense_1_ScanWidget
 623              		.code	16
 624              		.thumb_func
 625              		.type	CapSense_1_ScanWidget, %function
 626              	CapSense_1_ScanWidget:
 627              	.LFB41:
 557:Generated_Source\PSoC4/CapSense_1.c **** 
 558:Generated_Source\PSoC4/CapSense_1.c **** 
 559:Generated_Source\PSoC4/CapSense_1.c **** #if(0u != CapSense_1_CSHL_API_GENERATE)
 560:Generated_Source\PSoC4/CapSense_1.c **** /*******************************************************************************
 561:Generated_Source\PSoC4/CapSense_1.c **** * Function Name: CapSense_1_ScanWidget
 562:Generated_Source\PSoC4/CapSense_1.c **** ********************************************************************************
 563:Generated_Source\PSoC4/CapSense_1.c **** *
 564:Generated_Source\PSoC4/CapSense_1.c **** * Summary:
 565:Generated_Source\PSoC4/CapSense_1.c **** *  Sets the scan settings and starts scanning a widget.
 566:Generated_Source\PSoC4/CapSense_1.c **** *
 567:Generated_Source\PSoC4/CapSense_1.c **** * Parameters:
ARM GAS  C:\Users\d4hhm\AppData\Local\Temp\ccLEMF4D.s 			page 22


 568:Generated_Source\PSoC4/CapSense_1.c **** *  uint32 widget: Widget number.
 569:Generated_Source\PSoC4/CapSense_1.c **** *
 570:Generated_Source\PSoC4/CapSense_1.c **** * Return:
 571:Generated_Source\PSoC4/CapSense_1.c **** *  None
 572:Generated_Source\PSoC4/CapSense_1.c **** *
 573:Generated_Source\PSoC4/CapSense_1.c **** * Global Variables:
 574:Generated_Source\PSoC4/CapSense_1.c **** *  CapSense_1_csdStatusVar - used to provide the status and mode of the scanning process.
 575:Generated_Source\PSoC4/CapSense_1.c **** *  Sets the busy status(scan in progress) and clears the single scan mode.
 576:Generated_Source\PSoC4/CapSense_1.c **** *  CapSense_1_sensorIndex - used to store a sensor scanning sensor number.
 577:Generated_Source\PSoC4/CapSense_1.c **** *  Sets to 0xFF and provided to function CapSense_1_FindNextSensor or
 578:Generated_Source\PSoC4/CapSense_1.c **** *  CapSense_1_sensorEnableMask[] - used to store bit masks of the enabled sensors.
 579:Generated_Source\PSoC4/CapSense_1.c **** *  CapSense_1_sensorEnableMaskBackup[] - used to backup bit masks of the enabled
 580:Generated_Source\PSoC4/CapSense_1.c **** *   sensors.
 581:Generated_Source\PSoC4/CapSense_1.c **** *
 582:Generated_Source\PSoC4/CapSense_1.c **** * Side Effects:
 583:Generated_Source\PSoC4/CapSense_1.c **** *  None
 584:Generated_Source\PSoC4/CapSense_1.c **** *
 585:Generated_Source\PSoC4/CapSense_1.c **** *******************************************************************************/
 586:Generated_Source\PSoC4/CapSense_1.c **** void CapSense_1_ScanWidget(uint32 widget)
 587:Generated_Source\PSoC4/CapSense_1.c **** {
 628              		.loc 1 587 0
 629              		.cfi_startproc
 630              		@ args = 0, pretend = 0, frame = 24
 631              		@ frame_needed = 1, uses_anonymous_args = 0
 632 0000 80B5     		push	{r7, lr}
 633              		.cfi_def_cfa_offset 8
 634              		.cfi_offset 7, -8
 635              		.cfi_offset 14, -4
 636 0002 86B0     		sub	sp, sp, #24
 637              		.cfi_def_cfa_offset 32
 638 0004 00AF     		add	r7, sp, #0
 639              		.cfi_def_cfa_register 7
 640 0006 7860     		str	r0, [r7, #4]
 588:Generated_Source\PSoC4/CapSense_1.c ****     uint32 sensorsPerWidget;
 589:Generated_Source\PSoC4/CapSense_1.c ****     uint32 lastSensor;
 590:Generated_Source\PSoC4/CapSense_1.c ****     uint32 snsIndex;
 591:Generated_Source\PSoC4/CapSense_1.c **** 
 592:Generated_Source\PSoC4/CapSense_1.c ****     /* Get first sensor in widget */
 593:Generated_Source\PSoC4/CapSense_1.c ****     CapSense_1_sensorIndex = CapSense_1_rawDataIndex[widget];
 641              		.loc 1 593 0
 642 0008 2E4A     		ldr	r2, .L38
 643 000a 7B68     		ldr	r3, [r7, #4]
 644 000c D318     		adds	r3, r2, r3
 645 000e 1A78     		ldrb	r2, [r3]
 646 0010 2D4B     		ldr	r3, .L38+4
 647 0012 1A70     		strb	r2, [r3]
 594:Generated_Source\PSoC4/CapSense_1.c **** 
 595:Generated_Source\PSoC4/CapSense_1.c ****     /* Get number of sensors in widget */
 596:Generated_Source\PSoC4/CapSense_1.c ****     sensorsPerWidget = CapSense_1_numberOfSensors[widget];
 648              		.loc 1 596 0
 649 0014 2D4A     		ldr	r2, .L38+8
 650 0016 7B68     		ldr	r3, [r7, #4]
 651 0018 D318     		adds	r3, r2, r3
 652 001a 1B78     		ldrb	r3, [r3]
 653 001c 7B61     		str	r3, [r7, #20]
 597:Generated_Source\PSoC4/CapSense_1.c **** 
 598:Generated_Source\PSoC4/CapSense_1.c ****     /* Check if generic Sensor */
ARM GAS  C:\Users\d4hhm\AppData\Local\Temp\ccLEMF4D.s 			page 23


 599:Generated_Source\PSoC4/CapSense_1.c ****     if(sensorsPerWidget == 0u)
 654              		.loc 1 599 0
 655 001e 7B69     		ldr	r3, [r7, #20]
 656 0020 002B     		cmp	r3, #0
 657 0022 01D1     		bne	.L29
 600:Generated_Source\PSoC4/CapSense_1.c ****     {
 601:Generated_Source\PSoC4/CapSense_1.c ****         sensorsPerWidget = 1u;
 658              		.loc 1 601 0
 659 0024 0123     		movs	r3, #1
 660 0026 7B61     		str	r3, [r7, #20]
 661              	.L29:
 602:Generated_Source\PSoC4/CapSense_1.c ****     }
 603:Generated_Source\PSoC4/CapSense_1.c **** 
 604:Generated_Source\PSoC4/CapSense_1.c ****     /* Get last sensor in widget */
 605:Generated_Source\PSoC4/CapSense_1.c ****     lastSensor = (CapSense_1_rawDataIndex[widget] + sensorsPerWidget) - 1u;
 662              		.loc 1 605 0
 663 0028 264A     		ldr	r2, .L38
 664 002a 7B68     		ldr	r3, [r7, #4]
 665 002c D318     		adds	r3, r2, r3
 666 002e 1B78     		ldrb	r3, [r3]
 667 0030 1A00     		movs	r2, r3
 668 0032 7B69     		ldr	r3, [r7, #20]
 669 0034 D318     		adds	r3, r2, r3
 670 0036 013B     		subs	r3, r3, #1
 671 0038 FB60     		str	r3, [r7, #12]
 606:Generated_Source\PSoC4/CapSense_1.c **** 
 607:Generated_Source\PSoC4/CapSense_1.c ****     /* Backup sensorEnableMask array */
 608:Generated_Source\PSoC4/CapSense_1.c ****     for(snsIndex = 0u; snsIndex < CapSense_1_TOTAL_SENSOR_MASK; snsIndex++)
 672              		.loc 1 608 0
 673 003a 0023     		movs	r3, #0
 674 003c 3B61     		str	r3, [r7, #16]
 675 003e 0BE0     		b	.L30
 676              	.L31:
 609:Generated_Source\PSoC4/CapSense_1.c ****     {
 610:Generated_Source\PSoC4/CapSense_1.c ****         /* Backup sensorEnableMask array */
 611:Generated_Source\PSoC4/CapSense_1.c ****         CapSense_1_sensorEnableMaskBackup[snsIndex] = CapSense_1_sensorEnableMask[snsIndex];
 677              		.loc 1 611 0 discriminator 3
 678 0040 234A     		ldr	r2, .L38+12
 679 0042 3B69     		ldr	r3, [r7, #16]
 680 0044 D318     		adds	r3, r2, r3
 681 0046 1978     		ldrb	r1, [r3]
 682 0048 224A     		ldr	r2, .L38+16
 683 004a 3B69     		ldr	r3, [r7, #16]
 684 004c D318     		adds	r3, r2, r3
 685 004e 0A1C     		adds	r2, r1, #0
 686 0050 1A70     		strb	r2, [r3]
 608:Generated_Source\PSoC4/CapSense_1.c ****     {
 687              		.loc 1 608 0 discriminator 3
 688 0052 3B69     		ldr	r3, [r7, #16]
 689 0054 0133     		adds	r3, r3, #1
 690 0056 3B61     		str	r3, [r7, #16]
 691              	.L30:
 608:Generated_Source\PSoC4/CapSense_1.c ****     {
 692              		.loc 1 608 0 is_stmt 0 discriminator 1
 693 0058 3B69     		ldr	r3, [r7, #16]
 694 005a 002B     		cmp	r3, #0
 695 005c F0D0     		beq	.L31
ARM GAS  C:\Users\d4hhm\AppData\Local\Temp\ccLEMF4D.s 			page 24


 612:Generated_Source\PSoC4/CapSense_1.c ****     }
 613:Generated_Source\PSoC4/CapSense_1.c **** 
 614:Generated_Source\PSoC4/CapSense_1.c ****     /* Update sensorEnableMask to scan the sensors that belong to widget */
 615:Generated_Source\PSoC4/CapSense_1.c ****     for(snsIndex = 0u; snsIndex < CapSense_1_TOTAL_SENSOR_COUNT; snsIndex++)
 696              		.loc 1 615 0 is_stmt 1
 697 005e 0023     		movs	r3, #0
 698 0060 3B61     		str	r3, [r7, #16]
 699 0062 1AE0     		b	.L32
 700              	.L35:
 616:Generated_Source\PSoC4/CapSense_1.c ****     {
 617:Generated_Source\PSoC4/CapSense_1.c ****         /* Update sensorEnableMask array bits to scan the widget only */
 618:Generated_Source\PSoC4/CapSense_1.c ****         if((snsIndex >= CapSense_1_sensorIndex) && (snsIndex <= lastSensor))
 701              		.loc 1 618 0
 702 0064 184B     		ldr	r3, .L38+4
 703 0066 1B78     		ldrb	r3, [r3]
 704 0068 DBB2     		uxtb	r3, r3
 705 006a 1A00     		movs	r2, r3
 706 006c 3B69     		ldr	r3, [r7, #16]
 707 006e 9A42     		cmp	r2, r3
 708 0070 0AD8     		bhi	.L33
 709              		.loc 1 618 0 is_stmt 0 discriminator 1
 710 0072 3A69     		ldr	r2, [r7, #16]
 711 0074 FB68     		ldr	r3, [r7, #12]
 712 0076 9A42     		cmp	r2, r3
 713 0078 06D8     		bhi	.L33
 619:Generated_Source\PSoC4/CapSense_1.c ****         {
 620:Generated_Source\PSoC4/CapSense_1.c ****             /* Set sensor bit to scan */
 621:Generated_Source\PSoC4/CapSense_1.c ****             CapSense_1_SetBitValue(CapSense_1_sensorEnableMask, snsIndex, 1u);
 714              		.loc 1 621 0 is_stmt 1
 715 007a 3969     		ldr	r1, [r7, #16]
 716 007c 144B     		ldr	r3, .L38+12
 717 007e 0122     		movs	r2, #1
 718 0080 1800     		movs	r0, r3
 719 0082 FFF7FEFF 		bl	CapSense_1_SetBitValue
 720 0086 05E0     		b	.L34
 721              	.L33:
 622:Generated_Source\PSoC4/CapSense_1.c ****         }
 623:Generated_Source\PSoC4/CapSense_1.c ****         else
 624:Generated_Source\PSoC4/CapSense_1.c ****         {
 625:Generated_Source\PSoC4/CapSense_1.c ****             /* Reset sensor bit to do not scan */
 626:Generated_Source\PSoC4/CapSense_1.c ****             CapSense_1_SetBitValue(CapSense_1_sensorEnableMask, snsIndex, 0u);
 722              		.loc 1 626 0
 723 0088 3969     		ldr	r1, [r7, #16]
 724 008a 114B     		ldr	r3, .L38+12
 725 008c 0022     		movs	r2, #0
 726 008e 1800     		movs	r0, r3
 727 0090 FFF7FEFF 		bl	CapSense_1_SetBitValue
 728              	.L34:
 615:Generated_Source\PSoC4/CapSense_1.c ****     {
 729              		.loc 1 615 0 discriminator 2
 730 0094 3B69     		ldr	r3, [r7, #16]
 731 0096 0133     		adds	r3, r3, #1
 732 0098 3B61     		str	r3, [r7, #16]
 733              	.L32:
 615:Generated_Source\PSoC4/CapSense_1.c ****     {
 734              		.loc 1 615 0 is_stmt 0 discriminator 1
 735 009a 3B69     		ldr	r3, [r7, #16]
ARM GAS  C:\Users\d4hhm\AppData\Local\Temp\ccLEMF4D.s 			page 25


 736 009c 002B     		cmp	r3, #0
 737 009e E1D0     		beq	.L35
 627:Generated_Source\PSoC4/CapSense_1.c ****         }
 628:Generated_Source\PSoC4/CapSense_1.c ****     }
 629:Generated_Source\PSoC4/CapSense_1.c **** 
 630:Generated_Source\PSoC4/CapSense_1.c ****     /* Check end of scan condition */
 631:Generated_Source\PSoC4/CapSense_1.c ****     if(CapSense_1_sensorIndex < CapSense_1_TOTAL_SENSOR_COUNT)
 738              		.loc 1 631 0 is_stmt 1
 739 00a0 094B     		ldr	r3, .L38+4
 740 00a2 1B78     		ldrb	r3, [r3]
 741 00a4 DBB2     		uxtb	r3, r3
 742 00a6 002B     		cmp	r3, #0
 743 00a8 08D1     		bne	.L37
 632:Generated_Source\PSoC4/CapSense_1.c ****     {
 633:Generated_Source\PSoC4/CapSense_1.c ****         /* Set widget busy bit in status/control variable*/
 634:Generated_Source\PSoC4/CapSense_1.c ****         CapSense_1_csdStatusVar = (CapSense_1_SW_STS_BUSY | CapSense_1_SW_CTRL_WIDGET_SCAN);
 744              		.loc 1 634 0
 745 00aa 0B4B     		ldr	r3, .L38+20
 746 00ac 4122     		movs	r2, #65
 747 00ae 1A70     		strb	r2, [r3]
 635:Generated_Source\PSoC4/CapSense_1.c ****         /* Scan first sensor of widget*/
 636:Generated_Source\PSoC4/CapSense_1.c ****         CapSense_1_PreScan((uint32)CapSense_1_sensorIndex);
 748              		.loc 1 636 0
 749 00b0 054B     		ldr	r3, .L38+4
 750 00b2 1B78     		ldrb	r3, [r3]
 751 00b4 DBB2     		uxtb	r3, r3
 752 00b6 1800     		movs	r0, r3
 753 00b8 FFF7FEFF 		bl	CapSense_1_PreScan
 754              	.L37:
 637:Generated_Source\PSoC4/CapSense_1.c ****     }
 638:Generated_Source\PSoC4/CapSense_1.c **** }
 755              		.loc 1 638 0
 756 00bc C046     		nop
 757 00be BD46     		mov	sp, r7
 758 00c0 06B0     		add	sp, sp, #24
 759              		@ sp needed
 760 00c2 80BD     		pop	{r7, pc}
 761              	.L39:
 762              		.align	2
 763              	.L38:
 764 00c4 00000000 		.word	CapSense_1_rawDataIndex
 765 00c8 00000000 		.word	CapSense_1_sensorIndex
 766 00cc 00000000 		.word	CapSense_1_numberOfSensors
 767 00d0 00000000 		.word	CapSense_1_sensorEnableMask
 768 00d4 00000000 		.word	CapSense_1_sensorEnableMaskBackup
 769 00d8 00000000 		.word	CapSense_1_csdStatusVar
 770              		.cfi_endproc
 771              	.LFE41:
 772              		.size	CapSense_1_ScanWidget, .-CapSense_1_ScanWidget
 773              		.section	.text.CapSense_1_ScanEnabledWidgets,"ax",%progbits
 774              		.align	2
 775              		.global	CapSense_1_ScanEnabledWidgets
 776              		.code	16
 777              		.thumb_func
 778              		.type	CapSense_1_ScanEnabledWidgets, %function
 779              	CapSense_1_ScanEnabledWidgets:
 780              	.LFB42:
ARM GAS  C:\Users\d4hhm\AppData\Local\Temp\ccLEMF4D.s 			page 26


 639:Generated_Source\PSoC4/CapSense_1.c **** #endif /* (0u != CapSense_1_CSHL_API_GENERATE) */
 640:Generated_Source\PSoC4/CapSense_1.c **** 
 641:Generated_Source\PSoC4/CapSense_1.c **** 
 642:Generated_Source\PSoC4/CapSense_1.c **** /*******************************************************************************
 643:Generated_Source\PSoC4/CapSense_1.c **** * Function Name: CapSense_1_ScanEnableWidgets
 644:Generated_Source\PSoC4/CapSense_1.c **** ********************************************************************************
 645:Generated_Source\PSoC4/CapSense_1.c **** *
 646:Generated_Source\PSoC4/CapSense_1.c **** * Summary:
 647:Generated_Source\PSoC4/CapSense_1.c **** *  This is the preferred method to scan all of the enabled widgets.
 648:Generated_Source\PSoC4/CapSense_1.c **** *  The API starts scanning a sensor within the enabled widgets.
 649:Generated_Source\PSoC4/CapSense_1.c **** *  The ISR continues scanning the sensors until all the enabled widgets are scanned.
 650:Generated_Source\PSoC4/CapSense_1.c **** *  Use of the ISR ensures this function is non-blocking.
 651:Generated_Source\PSoC4/CapSense_1.c **** *  All the widgets are enabled by default except proximity widgets.
 652:Generated_Source\PSoC4/CapSense_1.c **** *  The proximity widgets must be manually enabled as their long scan time
 653:Generated_Source\PSoC4/CapSense_1.c **** *  is incompatible with a fast response required of other widget types.
 654:Generated_Source\PSoC4/CapSense_1.c **** *
 655:Generated_Source\PSoC4/CapSense_1.c **** * Parameters:
 656:Generated_Source\PSoC4/CapSense_1.c **** *  None
 657:Generated_Source\PSoC4/CapSense_1.c **** *
 658:Generated_Source\PSoC4/CapSense_1.c **** * Return:
 659:Generated_Source\PSoC4/CapSense_1.c **** *  None
 660:Generated_Source\PSoC4/CapSense_1.c **** *
 661:Generated_Source\PSoC4/CapSense_1.c **** * Global Variables:
 662:Generated_Source\PSoC4/CapSense_1.c **** *  CapSense_1_csdStatusVar - used to provide the status and mode of the scanning process.
 663:Generated_Source\PSoC4/CapSense_1.c **** *  Sets the busy status(scan in progress) and clears the single scan mode.
 664:Generated_Source\PSoC4/CapSense_1.c **** *  CapSense_1_sensorIndex - used to store a sensor scanning sensor number.
 665:Generated_Source\PSoC4/CapSense_1.c **** *  Sets to 0xFF and provided to function CapSense_1_FindNextSensor or
 666:Generated_Source\PSoC4/CapSense_1.c **** *
 667:Generated_Source\PSoC4/CapSense_1.c **** * Side Effects:
 668:Generated_Source\PSoC4/CapSense_1.c **** *  None
 669:Generated_Source\PSoC4/CapSense_1.c **** *
 670:Generated_Source\PSoC4/CapSense_1.c **** *******************************************************************************/
 671:Generated_Source\PSoC4/CapSense_1.c **** void CapSense_1_ScanEnabledWidgets(void)
 672:Generated_Source\PSoC4/CapSense_1.c **** {
 781              		.loc 1 672 0
 782              		.cfi_startproc
 783              		@ args = 0, pretend = 0, frame = 0
 784              		@ frame_needed = 1, uses_anonymous_args = 0
 785 0000 80B5     		push	{r7, lr}
 786              		.cfi_def_cfa_offset 8
 787              		.cfi_offset 7, -8
 788              		.cfi_offset 14, -4
 789 0002 00AF     		add	r7, sp, #0
 790              		.cfi_def_cfa_register 7
 673:Generated_Source\PSoC4/CapSense_1.c ****     /* Clears status/control variable and set sensorIndex */
 674:Generated_Source\PSoC4/CapSense_1.c ****     CapSense_1_csdStatusVar = 0u;
 791              		.loc 1 674 0
 792 0004 124B     		ldr	r3, .L43
 793 0006 0022     		movs	r2, #0
 794 0008 1A70     		strb	r2, [r3]
 675:Generated_Source\PSoC4/CapSense_1.c ****     CapSense_1_sensorIndex = 0xFFu;
 795              		.loc 1 675 0
 796 000a 124B     		ldr	r3, .L43+4
 797 000c FF22     		movs	r2, #255
 798 000e 1A70     		strb	r2, [r3]
 676:Generated_Source\PSoC4/CapSense_1.c **** 
 677:Generated_Source\PSoC4/CapSense_1.c ****     /* Find next sensor */
ARM GAS  C:\Users\d4hhm\AppData\Local\Temp\ccLEMF4D.s 			page 27


 678:Generated_Source\PSoC4/CapSense_1.c ****     CapSense_1_sensorIndex = (uint8)CapSense_1_FindNextSensor(CapSense_1_sensorIndex);
 799              		.loc 1 678 0
 800 0010 104B     		ldr	r3, .L43+4
 801 0012 1B78     		ldrb	r3, [r3]
 802 0014 DBB2     		uxtb	r3, r3
 803 0016 1800     		movs	r0, r3
 804 0018 FFF7FEFF 		bl	CapSense_1_FindNextSensor
 805 001c 0300     		movs	r3, r0
 806 001e 1A00     		movs	r2, r3
 807 0020 0C4B     		ldr	r3, .L43+4
 808 0022 1A70     		strb	r2, [r3]
 679:Generated_Source\PSoC4/CapSense_1.c **** 
 680:Generated_Source\PSoC4/CapSense_1.c ****     /* Check end of scan condition */
 681:Generated_Source\PSoC4/CapSense_1.c ****     if(CapSense_1_sensorIndex < CapSense_1_TOTAL_SENSOR_COUNT)
 809              		.loc 1 681 0
 810 0024 0B4B     		ldr	r3, .L43+4
 811 0026 1B78     		ldrb	r3, [r3]
 812 0028 DBB2     		uxtb	r3, r3
 813 002a 002B     		cmp	r3, #0
 814 002c 0DD1     		bne	.L42
 682:Generated_Source\PSoC4/CapSense_1.c ****     {
 683:Generated_Source\PSoC4/CapSense_1.c ****         CapSense_1_csdStatusVar |= CapSense_1_SW_STS_BUSY;
 815              		.loc 1 683 0
 816 002e 084B     		ldr	r3, .L43
 817 0030 1B78     		ldrb	r3, [r3]
 818 0032 DBB2     		uxtb	r3, r3
 819 0034 0122     		movs	r2, #1
 820 0036 1343     		orrs	r3, r2
 821 0038 DAB2     		uxtb	r2, r3
 822 003a 054B     		ldr	r3, .L43
 823 003c 1A70     		strb	r2, [r3]
 684:Generated_Source\PSoC4/CapSense_1.c ****         CapSense_1_PreScan((uint32)CapSense_1_sensorIndex);
 824              		.loc 1 684 0
 825 003e 054B     		ldr	r3, .L43+4
 826 0040 1B78     		ldrb	r3, [r3]
 827 0042 DBB2     		uxtb	r3, r3
 828 0044 1800     		movs	r0, r3
 829 0046 FFF7FEFF 		bl	CapSense_1_PreScan
 830              	.L42:
 685:Generated_Source\PSoC4/CapSense_1.c ****     }
 686:Generated_Source\PSoC4/CapSense_1.c **** }
 831              		.loc 1 686 0
 832 004a C046     		nop
 833 004c BD46     		mov	sp, r7
 834              		@ sp needed
 835 004e 80BD     		pop	{r7, pc}
 836              	.L44:
 837              		.align	2
 838              	.L43:
 839 0050 00000000 		.word	CapSense_1_csdStatusVar
 840 0054 00000000 		.word	CapSense_1_sensorIndex
 841              		.cfi_endproc
 842              	.LFE42:
 843              		.size	CapSense_1_ScanEnabledWidgets, .-CapSense_1_ScanEnabledWidgets
 844              		.section	.text.CapSense_1_IsBusy,"ax",%progbits
 845              		.align	2
 846              		.global	CapSense_1_IsBusy
ARM GAS  C:\Users\d4hhm\AppData\Local\Temp\ccLEMF4D.s 			page 28


 847              		.code	16
 848              		.thumb_func
 849              		.type	CapSense_1_IsBusy, %function
 850              	CapSense_1_IsBusy:
 851              	.LFB43:
 687:Generated_Source\PSoC4/CapSense_1.c **** 
 688:Generated_Source\PSoC4/CapSense_1.c **** 
 689:Generated_Source\PSoC4/CapSense_1.c **** /*******************************************************************************
 690:Generated_Source\PSoC4/CapSense_1.c **** * Function Name: CapSense_1_IsBusy
 691:Generated_Source\PSoC4/CapSense_1.c **** ********************************************************************************
 692:Generated_Source\PSoC4/CapSense_1.c **** *
 693:Generated_Source\PSoC4/CapSense_1.c **** * Summary:
 694:Generated_Source\PSoC4/CapSense_1.c **** *  Returns the state of the CapSense component. 1 means that scanning in
 695:Generated_Source\PSoC4/CapSense_1.c **** *  progress and 0 means that scanning is complete.
 696:Generated_Source\PSoC4/CapSense_1.c **** *
 697:Generated_Source\PSoC4/CapSense_1.c **** * Parameters:
 698:Generated_Source\PSoC4/CapSense_1.c **** *  None
 699:Generated_Source\PSoC4/CapSense_1.c **** *
 700:Generated_Source\PSoC4/CapSense_1.c **** * Return:
 701:Generated_Source\PSoC4/CapSense_1.c **** *  Returns the state of scanning. 1 - scanning in progress, 0 - scanning
 702:Generated_Source\PSoC4/CapSense_1.c **** *  completed.
 703:Generated_Source\PSoC4/CapSense_1.c **** *
 704:Generated_Source\PSoC4/CapSense_1.c **** * Global Variables:
 705:Generated_Source\PSoC4/CapSense_1.c **** *  CapSense_1_csdStatusVar - used to provide the status and mode of the scanning process.
 706:Generated_Source\PSoC4/CapSense_1.c **** *  Checks the busy status.
 707:Generated_Source\PSoC4/CapSense_1.c **** *
 708:Generated_Source\PSoC4/CapSense_1.c **** * Side Effects:
 709:Generated_Source\PSoC4/CapSense_1.c **** *  None
 710:Generated_Source\PSoC4/CapSense_1.c **** *
 711:Generated_Source\PSoC4/CapSense_1.c **** *******************************************************************************/
 712:Generated_Source\PSoC4/CapSense_1.c **** uint32 CapSense_1_IsBusy(void)
 713:Generated_Source\PSoC4/CapSense_1.c **** {
 852              		.loc 1 713 0
 853              		.cfi_startproc
 854              		@ args = 0, pretend = 0, frame = 0
 855              		@ frame_needed = 1, uses_anonymous_args = 0
 856 0000 80B5     		push	{r7, lr}
 857              		.cfi_def_cfa_offset 8
 858              		.cfi_offset 7, -8
 859              		.cfi_offset 14, -4
 860 0002 00AF     		add	r7, sp, #0
 861              		.cfi_def_cfa_register 7
 714:Generated_Source\PSoC4/CapSense_1.c ****     return ((uint32)((0u != (CapSense_1_csdStatusVar & CapSense_1_SW_STS_BUSY)) ? 1u : 0u));
 862              		.loc 1 714 0
 863 0004 044B     		ldr	r3, .L47
 864 0006 1B78     		ldrb	r3, [r3]
 865 0008 DBB2     		uxtb	r3, r3
 866 000a 1A00     		movs	r2, r3
 867 000c 0123     		movs	r3, #1
 868 000e 1340     		ands	r3, r2
 715:Generated_Source\PSoC4/CapSense_1.c **** }
 869              		.loc 1 715 0
 870 0010 1800     		movs	r0, r3
 871 0012 BD46     		mov	sp, r7
 872              		@ sp needed
 873 0014 80BD     		pop	{r7, pc}
 874              	.L48:
ARM GAS  C:\Users\d4hhm\AppData\Local\Temp\ccLEMF4D.s 			page 29


 875 0016 C046     		.align	2
 876              	.L47:
 877 0018 00000000 		.word	CapSense_1_csdStatusVar
 878              		.cfi_endproc
 879              	.LFE43:
 880              		.size	CapSense_1_IsBusy, .-CapSense_1_IsBusy
 881              		.section	.text.CapSense_1_ReadSensorRaw,"ax",%progbits
 882              		.align	2
 883              		.global	CapSense_1_ReadSensorRaw
 884              		.code	16
 885              		.thumb_func
 886              		.type	CapSense_1_ReadSensorRaw, %function
 887              	CapSense_1_ReadSensorRaw:
 888              	.LFB44:
 716:Generated_Source\PSoC4/CapSense_1.c **** 
 717:Generated_Source\PSoC4/CapSense_1.c **** 
 718:Generated_Source\PSoC4/CapSense_1.c **** /*******************************************************************************
 719:Generated_Source\PSoC4/CapSense_1.c **** * Function Name: CapSense_1_ReadSensorRaw
 720:Generated_Source\PSoC4/CapSense_1.c **** ********************************************************************************
 721:Generated_Source\PSoC4/CapSense_1.c **** *
 722:Generated_Source\PSoC4/CapSense_1.c **** * Summary:
 723:Generated_Source\PSoC4/CapSense_1.c **** *  Returns sensor raw data from the global CapSense_sensorRaw[ ] array.
 724:Generated_Source\PSoC4/CapSense_1.c **** *  Each scan sensor has a unique number within the sensor array.
 725:Generated_Source\PSoC4/CapSense_1.c **** *  This number is assigned by the CapSense customizer in sequence.
 726:Generated_Source\PSoC4/CapSense_1.c **** *  Raw data can be used to perform calculations outside of the CapSense
 727:Generated_Source\PSoC4/CapSense_1.c **** *  provided framework.
 728:Generated_Source\PSoC4/CapSense_1.c **** *
 729:Generated_Source\PSoC4/CapSense_1.c **** * Parameters:
 730:Generated_Source\PSoC4/CapSense_1.c **** *  sensor:  Sensor number.
 731:Generated_Source\PSoC4/CapSense_1.c **** *
 732:Generated_Source\PSoC4/CapSense_1.c **** * Return:
 733:Generated_Source\PSoC4/CapSense_1.c **** *  Returns the current raw data value for a defined sensor number.
 734:Generated_Source\PSoC4/CapSense_1.c **** *
 735:Generated_Source\PSoC4/CapSense_1.c **** * Global Variables:
 736:Generated_Source\PSoC4/CapSense_1.c **** *  CapSense_1_sensorRaw[] - used to store sensors raw data.
 737:Generated_Source\PSoC4/CapSense_1.c **** *
 738:Generated_Source\PSoC4/CapSense_1.c **** * Side Effects:
 739:Generated_Source\PSoC4/CapSense_1.c **** *  None
 740:Generated_Source\PSoC4/CapSense_1.c **** *
 741:Generated_Source\PSoC4/CapSense_1.c **** *******************************************************************************/
 742:Generated_Source\PSoC4/CapSense_1.c **** uint16 CapSense_1_ReadSensorRaw(uint32 sensor)
 743:Generated_Source\PSoC4/CapSense_1.c **** {
 889              		.loc 1 743 0
 890              		.cfi_startproc
 891              		@ args = 0, pretend = 0, frame = 8
 892              		@ frame_needed = 1, uses_anonymous_args = 0
 893 0000 80B5     		push	{r7, lr}
 894              		.cfi_def_cfa_offset 8
 895              		.cfi_offset 7, -8
 896              		.cfi_offset 14, -4
 897 0002 82B0     		sub	sp, sp, #8
 898              		.cfi_def_cfa_offset 16
 899 0004 00AF     		add	r7, sp, #0
 900              		.cfi_def_cfa_register 7
 901 0006 7860     		str	r0, [r7, #4]
 744:Generated_Source\PSoC4/CapSense_1.c ****     return CapSense_1_sensorRaw[sensor];
 902              		.loc 1 744 0
ARM GAS  C:\Users\d4hhm\AppData\Local\Temp\ccLEMF4D.s 			page 30


 903 0008 034B     		ldr	r3, .L51
 904 000a 7A68     		ldr	r2, [r7, #4]
 905 000c 5200     		lsls	r2, r2, #1
 906 000e D35A     		ldrh	r3, [r2, r3]
 745:Generated_Source\PSoC4/CapSense_1.c **** }
 907              		.loc 1 745 0
 908 0010 1800     		movs	r0, r3
 909 0012 BD46     		mov	sp, r7
 910 0014 02B0     		add	sp, sp, #8
 911              		@ sp needed
 912 0016 80BD     		pop	{r7, pc}
 913              	.L52:
 914              		.align	2
 915              	.L51:
 916 0018 00000000 		.word	CapSense_1_sensorRaw
 917              		.cfi_endproc
 918              	.LFE44:
 919              		.size	CapSense_1_ReadSensorRaw, .-CapSense_1_ReadSensorRaw
 920              		.section	.text.CapSense_1_WriteSensorRaw,"ax",%progbits
 921              		.align	2
 922              		.global	CapSense_1_WriteSensorRaw
 923              		.code	16
 924              		.thumb_func
 925              		.type	CapSense_1_WriteSensorRaw, %function
 926              	CapSense_1_WriteSensorRaw:
 927              	.LFB45:
 746:Generated_Source\PSoC4/CapSense_1.c **** 
 747:Generated_Source\PSoC4/CapSense_1.c **** 
 748:Generated_Source\PSoC4/CapSense_1.c **** /*******************************************************************************
 749:Generated_Source\PSoC4/CapSense_1.c **** * Function Name: CapSense_1_WriteSensorRaw
 750:Generated_Source\PSoC4/CapSense_1.c **** ********************************************************************************
 751:Generated_Source\PSoC4/CapSense_1.c **** *
 752:Generated_Source\PSoC4/CapSense_1.c **** * Summary:
 753:Generated_Source\PSoC4/CapSense_1.c **** *  This API writes the raw count value passed as an argument to the sensor Raw count array.
 754:Generated_Source\PSoC4/CapSense_1.c **** *
 755:Generated_Source\PSoC4/CapSense_1.c **** * Parameters:
 756:Generated_Source\PSoC4/CapSense_1.c **** *  sensor:  Sensor number.
 757:Generated_Source\PSoC4/CapSense_1.c **** *  value: Raw count value.
 758:Generated_Source\PSoC4/CapSense_1.c **** *
 759:Generated_Source\PSoC4/CapSense_1.c **** * Global Variables:
 760:Generated_Source\PSoC4/CapSense_1.c **** *  CapSense_1_sensorRaw[] - used to store sensors raw data.
 761:Generated_Source\PSoC4/CapSense_1.c **** *
 762:Generated_Source\PSoC4/CapSense_1.c **** * Return:
 763:Generated_Source\PSoC4/CapSense_1.c **** *  None
 764:Generated_Source\PSoC4/CapSense_1.c **** *
 765:Generated_Source\PSoC4/CapSense_1.c **** * Side Effects:
 766:Generated_Source\PSoC4/CapSense_1.c **** *  None
 767:Generated_Source\PSoC4/CapSense_1.c **** *
 768:Generated_Source\PSoC4/CapSense_1.c **** *******************************************************************************/
 769:Generated_Source\PSoC4/CapSense_1.c **** void CapSense_1_WriteSensorRaw(uint32 sensor, uint16 value)
 770:Generated_Source\PSoC4/CapSense_1.c **** {
 928              		.loc 1 770 0
 929              		.cfi_startproc
 930              		@ args = 0, pretend = 0, frame = 8
 931              		@ frame_needed = 1, uses_anonymous_args = 0
 932 0000 80B5     		push	{r7, lr}
 933              		.cfi_def_cfa_offset 8
ARM GAS  C:\Users\d4hhm\AppData\Local\Temp\ccLEMF4D.s 			page 31


 934              		.cfi_offset 7, -8
 935              		.cfi_offset 14, -4
 936 0002 82B0     		sub	sp, sp, #8
 937              		.cfi_def_cfa_offset 16
 938 0004 00AF     		add	r7, sp, #0
 939              		.cfi_def_cfa_register 7
 940 0006 7860     		str	r0, [r7, #4]
 941 0008 0A00     		movs	r2, r1
 942 000a BB1C     		adds	r3, r7, #2
 943 000c 1A80     		strh	r2, [r3]
 771:Generated_Source\PSoC4/CapSense_1.c ****     CapSense_1_sensorRaw[sensor] = value;
 944              		.loc 1 771 0
 945 000e 054B     		ldr	r3, .L54
 946 0010 7A68     		ldr	r2, [r7, #4]
 947 0012 5200     		lsls	r2, r2, #1
 948 0014 B91C     		adds	r1, r7, #2
 949 0016 0988     		ldrh	r1, [r1]
 950 0018 D152     		strh	r1, [r2, r3]
 772:Generated_Source\PSoC4/CapSense_1.c **** }
 951              		.loc 1 772 0
 952 001a C046     		nop
 953 001c BD46     		mov	sp, r7
 954 001e 02B0     		add	sp, sp, #8
 955              		@ sp needed
 956 0020 80BD     		pop	{r7, pc}
 957              	.L55:
 958 0022 C046     		.align	2
 959              	.L54:
 960 0024 00000000 		.word	CapSense_1_sensorRaw
 961              		.cfi_endproc
 962              	.LFE45:
 963              		.size	CapSense_1_WriteSensorRaw, .-CapSense_1_WriteSensorRaw
 964              		.section	.text.CapSense_1_GetScanResolution,"ax",%progbits
 965              		.align	2
 966              		.global	CapSense_1_GetScanResolution
 967              		.code	16
 968              		.thumb_func
 969              		.type	CapSense_1_GetScanResolution, %function
 970              	CapSense_1_GetScanResolution:
 971              	.LFB46:
 773:Generated_Source\PSoC4/CapSense_1.c **** 
 774:Generated_Source\PSoC4/CapSense_1.c **** 
 775:Generated_Source\PSoC4/CapSense_1.c **** #if (CapSense_1_TUNING_METHOD != CapSense_1__TUNING_NONE)
 776:Generated_Source\PSoC4/CapSense_1.c ****     /*******************************************************************************
 777:Generated_Source\PSoC4/CapSense_1.c ****     * Function Name: CapSense_1_SetScanResolution
 778:Generated_Source\PSoC4/CapSense_1.c ****     ********************************************************************************
 779:Generated_Source\PSoC4/CapSense_1.c ****     *
 780:Generated_Source\PSoC4/CapSense_1.c ****     * Summary:
 781:Generated_Source\PSoC4/CapSense_1.c ****     *  Sets a value of the sensor scan resolution for a widget.
 782:Generated_Source\PSoC4/CapSense_1.c ****     *  The MIN resolution can be set 8-bit. The MAX Resolution can be set 16 bit.
 783:Generated_Source\PSoC4/CapSense_1.c ****     *  This function is not available for the tuning mode "None".
 784:Generated_Source\PSoC4/CapSense_1.c ****     *
 785:Generated_Source\PSoC4/CapSense_1.c ****     * Parameters:
 786:Generated_Source\PSoC4/CapSense_1.c ****     *  widget:     Widget index.
 787:Generated_Source\PSoC4/CapSense_1.c ****     *  resolution: Represents the resolution value. The following defines which are available in th
 788:Generated_Source\PSoC4/CapSense_1.c ****     *              CapSense_1.h file should be used:
 789:Generated_Source\PSoC4/CapSense_1.c ****     *              CapSense_1_RESOLUTION_6_BITS
ARM GAS  C:\Users\d4hhm\AppData\Local\Temp\ccLEMF4D.s 			page 32


 790:Generated_Source\PSoC4/CapSense_1.c ****     *              CapSense_1_RESOLUTION_7_BITS
 791:Generated_Source\PSoC4/CapSense_1.c ****     *              CapSense_1_RESOLUTION_8_BITS
 792:Generated_Source\PSoC4/CapSense_1.c ****     *              CapSense_1_RESOLUTION_9_BITS
 793:Generated_Source\PSoC4/CapSense_1.c ****     *              CapSense_1_RESOLUTION_10_BITS
 794:Generated_Source\PSoC4/CapSense_1.c ****     *              CapSense_1_RESOLUTION_11_BITS
 795:Generated_Source\PSoC4/CapSense_1.c ****     *              CapSense_1_RESOLUTION_12_BITS
 796:Generated_Source\PSoC4/CapSense_1.c ****     *              CapSense_1_RESOLUTION_13_BITS
 797:Generated_Source\PSoC4/CapSense_1.c ****     *              CapSense_1_RESOLUTION_14_BITS
 798:Generated_Source\PSoC4/CapSense_1.c ****     *              CapSense_1_RESOLUTION_15_BITS
 799:Generated_Source\PSoC4/CapSense_1.c ****     *              CapSense_1_RESOLUTION_16_BITS
 800:Generated_Source\PSoC4/CapSense_1.c ****     *
 801:Generated_Source\PSoC4/CapSense_1.c ****     * Return:
 802:Generated_Source\PSoC4/CapSense_1.c ****     *  None
 803:Generated_Source\PSoC4/CapSense_1.c ****     *
 804:Generated_Source\PSoC4/CapSense_1.c ****     * Global Variables:
 805:Generated_Source\PSoC4/CapSense_1.c ****     *  CapSense_1_widgetResolution[] - used to store scan resolution of each widget.
 806:Generated_Source\PSoC4/CapSense_1.c ****     *
 807:Generated_Source\PSoC4/CapSense_1.c ****     * Side Effects:
 808:Generated_Source\PSoC4/CapSense_1.c ****     *  None
 809:Generated_Source\PSoC4/CapSense_1.c ****     *
 810:Generated_Source\PSoC4/CapSense_1.c ****     *******************************************************************************/
 811:Generated_Source\PSoC4/CapSense_1.c ****     void CapSense_1_SetScanResolution(uint32 widget, uint32 resolution)
 812:Generated_Source\PSoC4/CapSense_1.c ****     {
 813:Generated_Source\PSoC4/CapSense_1.c ****         CapSense_1_widgetResolution[widget] = resolution;
 814:Generated_Source\PSoC4/CapSense_1.c ****     }
 815:Generated_Source\PSoC4/CapSense_1.c **** #endif /* (CapSense_1_TUNING_METHOD != CapSense_1__TUNING_NONE) */
 816:Generated_Source\PSoC4/CapSense_1.c **** 
 817:Generated_Source\PSoC4/CapSense_1.c **** 
 818:Generated_Source\PSoC4/CapSense_1.c **** /*******************************************************************************
 819:Generated_Source\PSoC4/CapSense_1.c **** * Function Name: CapSense_1_GetScanResolution
 820:Generated_Source\PSoC4/CapSense_1.c **** ********************************************************************************
 821:Generated_Source\PSoC4/CapSense_1.c **** *
 822:Generated_Source\PSoC4/CapSense_1.c **** * Summary:
 823:Generated_Source\PSoC4/CapSense_1.c **** *  Returns the resolution value for the appropriate sensor.
 824:Generated_Source\PSoC4/CapSense_1.c **** *  This function is not available for tuning mode "None".
 825:Generated_Source\PSoC4/CapSense_1.c **** *
 826:Generated_Source\PSoC4/CapSense_1.c **** * Parameters:
 827:Generated_Source\PSoC4/CapSense_1.c **** *  widget:     Widget index.
 828:Generated_Source\PSoC4/CapSense_1.c **** *
 829:Generated_Source\PSoC4/CapSense_1.c **** * Return:
 830:Generated_Source\PSoC4/CapSense_1.c **** *  resolution: Returns the resolution value for the appropriate sensor.
 831:Generated_Source\PSoC4/CapSense_1.c **** *              The resolution values are defined in the CapSense_1.h file
 832:Generated_Source\PSoC4/CapSense_1.c **** *              The defines are encountered below:
 833:Generated_Source\PSoC4/CapSense_1.c **** *              CapSense_1_RESOLUTION_6_BITS
 834:Generated_Source\PSoC4/CapSense_1.c **** *              CapSense_1_RESOLUTION_7_BITS
 835:Generated_Source\PSoC4/CapSense_1.c **** *              CapSense_1_RESOLUTION_8_BITS
 836:Generated_Source\PSoC4/CapSense_1.c **** *              CapSense_1_RESOLUTION_9_BITS
 837:Generated_Source\PSoC4/CapSense_1.c **** *              CapSense_1_RESOLUTION_10_BITS
 838:Generated_Source\PSoC4/CapSense_1.c **** *              CapSense_1_RESOLUTION_11_BITS
 839:Generated_Source\PSoC4/CapSense_1.c **** *              CapSense_1_RESOLUTION_12_BITS
 840:Generated_Source\PSoC4/CapSense_1.c **** *              CapSense_1_RESOLUTION_13_BITS
 841:Generated_Source\PSoC4/CapSense_1.c **** *              CapSense_1_RESOLUTION_14_BITS
 842:Generated_Source\PSoC4/CapSense_1.c **** *              CapSense_1_RESOLUTION_15_BITS
 843:Generated_Source\PSoC4/CapSense_1.c **** *              CapSense_1_RESOLUTION_16_BITS
 844:Generated_Source\PSoC4/CapSense_1.c **** *
 845:Generated_Source\PSoC4/CapSense_1.c **** * Global Variables:
 846:Generated_Source\PSoC4/CapSense_1.c **** *  CapSense_1_widgetResolution[] - used to store scan resolution of every widget.
ARM GAS  C:\Users\d4hhm\AppData\Local\Temp\ccLEMF4D.s 			page 33


 847:Generated_Source\PSoC4/CapSense_1.c **** *
 848:Generated_Source\PSoC4/CapSense_1.c **** * Side Effects:
 849:Generated_Source\PSoC4/CapSense_1.c **** *  None
 850:Generated_Source\PSoC4/CapSense_1.c **** *
 851:Generated_Source\PSoC4/CapSense_1.c **** *******************************************************************************/
 852:Generated_Source\PSoC4/CapSense_1.c **** uint32 CapSense_1_GetScanResolution(uint32 widget)
 853:Generated_Source\PSoC4/CapSense_1.c **** {
 972              		.loc 1 853 0
 973              		.cfi_startproc
 974              		@ args = 0, pretend = 0, frame = 8
 975              		@ frame_needed = 1, uses_anonymous_args = 0
 976 0000 80B5     		push	{r7, lr}
 977              		.cfi_def_cfa_offset 8
 978              		.cfi_offset 7, -8
 979              		.cfi_offset 14, -4
 980 0002 82B0     		sub	sp, sp, #8
 981              		.cfi_def_cfa_offset 16
 982 0004 00AF     		add	r7, sp, #0
 983              		.cfi_def_cfa_register 7
 984 0006 7860     		str	r0, [r7, #4]
 854:Generated_Source\PSoC4/CapSense_1.c ****     return(CapSense_1_widgetResolution[widget]);
 985              		.loc 1 854 0
 986 0008 024B     		ldr	r3, .L58
 855:Generated_Source\PSoC4/CapSense_1.c **** }
 987              		.loc 1 855 0
 988 000a 1800     		movs	r0, r3
 989 000c BD46     		mov	sp, r7
 990 000e 02B0     		add	sp, sp, #8
 991              		@ sp needed
 992 0010 80BD     		pop	{r7, pc}
 993              	.L59:
 994 0012 C046     		.align	2
 995              	.L58:
 996 0014 0000FF03 		.word	67043328
 997              		.cfi_endproc
 998              	.LFE46:
 999              		.size	CapSense_1_GetScanResolution, .-CapSense_1_GetScanResolution
 1000              		.section	.text.CapSense_1_ClearSensors,"ax",%progbits
 1001              		.align	2
 1002              		.global	CapSense_1_ClearSensors
 1003              		.code	16
 1004              		.thumb_func
 1005              		.type	CapSense_1_ClearSensors, %function
 1006              	CapSense_1_ClearSensors:
 1007              	.LFB47:
 856:Generated_Source\PSoC4/CapSense_1.c **** 
 857:Generated_Source\PSoC4/CapSense_1.c **** 
 858:Generated_Source\PSoC4/CapSense_1.c **** /*******************************************************************************
 859:Generated_Source\PSoC4/CapSense_1.c **** * Function Name: CapSense_1_ClearSensors
 860:Generated_Source\PSoC4/CapSense_1.c **** ********************************************************************************
 861:Generated_Source\PSoC4/CapSense_1.c **** *
 862:Generated_Source\PSoC4/CapSense_1.c **** * Summary:
 863:Generated_Source\PSoC4/CapSense_1.c **** *  Resets all the sensors to the non-sampling state by sequentially disconnecting
 864:Generated_Source\PSoC4/CapSense_1.c **** *  all the sensors from Analog MUX Bus and putting them to an inactive state.
 865:Generated_Source\PSoC4/CapSense_1.c **** *
 866:Generated_Source\PSoC4/CapSense_1.c **** * Parameters:
 867:Generated_Source\PSoC4/CapSense_1.c **** *  None
ARM GAS  C:\Users\d4hhm\AppData\Local\Temp\ccLEMF4D.s 			page 34


 868:Generated_Source\PSoC4/CapSense_1.c **** *
 869:Generated_Source\PSoC4/CapSense_1.c **** * Return:
 870:Generated_Source\PSoC4/CapSense_1.c **** *  None
 871:Generated_Source\PSoC4/CapSense_1.c **** *
 872:Generated_Source\PSoC4/CapSense_1.c **** * Global Variables:
 873:Generated_Source\PSoC4/CapSense_1.c **** *  None
 874:Generated_Source\PSoC4/CapSense_1.c **** *
 875:Generated_Source\PSoC4/CapSense_1.c **** * Side Effects:
 876:Generated_Source\PSoC4/CapSense_1.c **** *  None
 877:Generated_Source\PSoC4/CapSense_1.c **** *
 878:Generated_Source\PSoC4/CapSense_1.c **** *******************************************************************************/
 879:Generated_Source\PSoC4/CapSense_1.c **** void CapSense_1_ClearSensors(void)
 880:Generated_Source\PSoC4/CapSense_1.c **** {
 1008              		.loc 1 880 0
 1009              		.cfi_startproc
 1010              		@ args = 0, pretend = 0, frame = 8
 1011              		@ frame_needed = 1, uses_anonymous_args = 0
 1012 0000 80B5     		push	{r7, lr}
 1013              		.cfi_def_cfa_offset 8
 1014              		.cfi_offset 7, -8
 1015              		.cfi_offset 14, -4
 1016 0002 82B0     		sub	sp, sp, #8
 1017              		.cfi_def_cfa_offset 16
 1018 0004 00AF     		add	r7, sp, #0
 1019              		.cfi_def_cfa_register 7
 881:Generated_Source\PSoC4/CapSense_1.c ****     uint32 snsIndex;
 882:Generated_Source\PSoC4/CapSense_1.c **** 
 883:Generated_Source\PSoC4/CapSense_1.c ****     for (snsIndex = 0u; snsIndex < CapSense_1_TOTAL_SENSOR_COUNT; snsIndex++)
 1020              		.loc 1 883 0
 1021 0006 0023     		movs	r3, #0
 1022 0008 7B60     		str	r3, [r7, #4]
 1023 000a 06E0     		b	.L61
 1024              	.L62:
 884:Generated_Source\PSoC4/CapSense_1.c ****     {
 885:Generated_Source\PSoC4/CapSense_1.c ****         CapSense_1_DisableScanSlot(snsIndex);
 1025              		.loc 1 885 0 discriminator 3
 1026 000c 7B68     		ldr	r3, [r7, #4]
 1027 000e 1800     		movs	r0, r3
 1028 0010 FFF7FEFF 		bl	CapSense_1_DisableSensor
 883:Generated_Source\PSoC4/CapSense_1.c ****     {
 1029              		.loc 1 883 0 discriminator 3
 1030 0014 7B68     		ldr	r3, [r7, #4]
 1031 0016 0133     		adds	r3, r3, #1
 1032 0018 7B60     		str	r3, [r7, #4]
 1033              	.L61:
 883:Generated_Source\PSoC4/CapSense_1.c ****     {
 1034              		.loc 1 883 0 is_stmt 0 discriminator 1
 1035 001a 7B68     		ldr	r3, [r7, #4]
 1036 001c 002B     		cmp	r3, #0
 1037 001e F5D0     		beq	.L62
 886:Generated_Source\PSoC4/CapSense_1.c ****     }
 887:Generated_Source\PSoC4/CapSense_1.c **** }
 1038              		.loc 1 887 0 is_stmt 1
 1039 0020 C046     		nop
 1040 0022 BD46     		mov	sp, r7
 1041 0024 02B0     		add	sp, sp, #8
 1042              		@ sp needed
ARM GAS  C:\Users\d4hhm\AppData\Local\Temp\ccLEMF4D.s 			page 35


 1043 0026 80BD     		pop	{r7, pc}
 1044              		.cfi_endproc
 1045              	.LFE47:
 1046              		.size	CapSense_1_ClearSensors, .-CapSense_1_ClearSensors
 1047              		.section	.text.CapSense_1_EnableSensor,"ax",%progbits
 1048              		.align	2
 1049              		.global	CapSense_1_EnableSensor
 1050              		.code	16
 1051              		.thumb_func
 1052              		.type	CapSense_1_EnableSensor, %function
 1053              	CapSense_1_EnableSensor:
 1054              	.LFB48:
 888:Generated_Source\PSoC4/CapSense_1.c **** 
 889:Generated_Source\PSoC4/CapSense_1.c **** 
 890:Generated_Source\PSoC4/CapSense_1.c **** #if (CapSense_1_IS_COMPLEX_SCANSLOTS)
 891:Generated_Source\PSoC4/CapSense_1.c ****     /*******************************************************************************
 892:Generated_Source\PSoC4/CapSense_1.c ****     * Function Name: CapSense_1_EnableScanSlot
 893:Generated_Source\PSoC4/CapSense_1.c ****     ********************************************************************************
 894:Generated_Source\PSoC4/CapSense_1.c ****     *
 895:Generated_Source\PSoC4/CapSense_1.c ****     * Summary:
 896:Generated_Source\PSoC4/CapSense_1.c ****     *  Configures the selected slot to measure during the next measurement
 897:Generated_Source\PSoC4/CapSense_1.c ****     *  cycle. The corresponding pin/pins are set to Analog High-Z mode and
 898:Generated_Source\PSoC4/CapSense_1.c ****     *  connected to the Analog Mux Bus. This also enables the comparator function.
 899:Generated_Source\PSoC4/CapSense_1.c ****     *
 900:Generated_Source\PSoC4/CapSense_1.c ****     * Parameters:
 901:Generated_Source\PSoC4/CapSense_1.c ****     *  slot:  Slot number.
 902:Generated_Source\PSoC4/CapSense_1.c ****     *
 903:Generated_Source\PSoC4/CapSense_1.c ****     * Return:
 904:Generated_Source\PSoC4/CapSense_1.c ****     *  None
 905:Generated_Source\PSoC4/CapSense_1.c ****     *
 906:Generated_Source\PSoC4/CapSense_1.c ****     * Global Constants:
 907:Generated_Source\PSoC4/CapSense_1.c ****     *  CapSense_1_portTable[]  - used to store the port number that pin
 908:Generated_Source\PSoC4/CapSense_1.c ****     *  belongs to for each sensor.
 909:Generated_Source\PSoC4/CapSense_1.c ****     *  CapSense_1_maskTable[]  - used to store the pin within the port for
 910:Generated_Source\PSoC4/CapSense_1.c ****     *  each sensor.
 911:Generated_Source\PSoC4/CapSense_1.c ****     *  CapSense_1_indexTable[] - used to store indexes of complex sensors.
 912:Generated_Source\PSoC4/CapSense_1.c ****     *  The offset and position in this array are stored in a port and mask table for
 913:Generated_Source\PSoC4/CapSense_1.c ****     *  complex sensors.
 914:Generated_Source\PSoC4/CapSense_1.c ****     *  Bit 7 (msb) is used to define the sensor type: single or complex.
 915:Generated_Source\PSoC4/CapSense_1.c ****     *
 916:Generated_Source\PSoC4/CapSense_1.c ****     * Side Effects:
 917:Generated_Source\PSoC4/CapSense_1.c ****     *  None
 918:Generated_Source\PSoC4/CapSense_1.c ****     *
 919:Generated_Source\PSoC4/CapSense_1.c ****     *******************************************************************************/
 920:Generated_Source\PSoC4/CapSense_1.c ****     void CapSense_1_EnableScanSlot(uint32 slot)
 921:Generated_Source\PSoC4/CapSense_1.c ****     {
 922:Generated_Source\PSoC4/CapSense_1.c ****         uint8 j;
 923:Generated_Source\PSoC4/CapSense_1.c ****         uint8 snsNumber;
 924:Generated_Source\PSoC4/CapSense_1.c ****         const uint8 *index;
 925:Generated_Source\PSoC4/CapSense_1.c ****         /* Read sensor type: single or complex */
 926:Generated_Source\PSoC4/CapSense_1.c ****         uint8 snsType = CapSense_1_portTable[slot];
 927:Generated_Source\PSoC4/CapSense_1.c **** 
 928:Generated_Source\PSoC4/CapSense_1.c ****         /* Check if sensor is complex */
 929:Generated_Source\PSoC4/CapSense_1.c ****         if ((snsType & CapSense_1_COMPLEX_SS_FLAG) == 0u)
 930:Generated_Source\PSoC4/CapSense_1.c ****         {
 931:Generated_Source\PSoC4/CapSense_1.c ****             /* Enable sensor (single) */
 932:Generated_Source\PSoC4/CapSense_1.c ****             CapSense_1_EnableSensor(slot);
ARM GAS  C:\Users\d4hhm\AppData\Local\Temp\ccLEMF4D.s 			page 36


 933:Generated_Source\PSoC4/CapSense_1.c ****         }
 934:Generated_Source\PSoC4/CapSense_1.c ****         else
 935:Generated_Source\PSoC4/CapSense_1.c ****         {
 936:Generated_Source\PSoC4/CapSense_1.c ****             /* Enable complex sensor */
 937:Generated_Source\PSoC4/CapSense_1.c ****             snsType &= ~CapSense_1_COMPLEX_SS_FLAG;
 938:Generated_Source\PSoC4/CapSense_1.c ****             index = &CapSense_1_indexTable[snsType];
 939:Generated_Source\PSoC4/CapSense_1.c ****             snsNumber = CapSense_1_maskTable[slot];
 940:Generated_Source\PSoC4/CapSense_1.c **** 
 941:Generated_Source\PSoC4/CapSense_1.c ****             for (j = 0u; j < snsNumber; j++)
 942:Generated_Source\PSoC4/CapSense_1.c ****             {
 943:Generated_Source\PSoC4/CapSense_1.c ****                 CapSense_1_EnableSensor(index[j]);
 944:Generated_Source\PSoC4/CapSense_1.c ****             }
 945:Generated_Source\PSoC4/CapSense_1.c ****         }
 946:Generated_Source\PSoC4/CapSense_1.c ****     }
 947:Generated_Source\PSoC4/CapSense_1.c **** 
 948:Generated_Source\PSoC4/CapSense_1.c **** 
 949:Generated_Source\PSoC4/CapSense_1.c ****     /*******************************************************************************
 950:Generated_Source\PSoC4/CapSense_1.c ****     * Function Name: CapSense_1_DisableScanSlot
 951:Generated_Source\PSoC4/CapSense_1.c ****     ********************************************************************************
 952:Generated_Source\PSoC4/CapSense_1.c ****     *
 953:Generated_Source\PSoC4/CapSense_1.c ****     * Summary:
 954:Generated_Source\PSoC4/CapSense_1.c ****     *  Disables the selected slot. The corresponding pin/pins is/are disconnected
 955:Generated_Source\PSoC4/CapSense_1.c ****     *  from the Analog Mux Bus and connected to GND, High_Z or Shield electrode.
 956:Generated_Source\PSoC4/CapSense_1.c ****     *
 957:Generated_Source\PSoC4/CapSense_1.c ****     * Parameters:
 958:Generated_Source\PSoC4/CapSense_1.c ****     *  slot:  Slot number.
 959:Generated_Source\PSoC4/CapSense_1.c ****     *
 960:Generated_Source\PSoC4/CapSense_1.c ****     * Return:
 961:Generated_Source\PSoC4/CapSense_1.c ****     *  None
 962:Generated_Source\PSoC4/CapSense_1.c ****     *
 963:Generated_Source\PSoC4/CapSense_1.c ****     * Global Variables:
 964:Generated_Source\PSoC4/CapSense_1.c ****     *  CapSense_1_portTable[]  - used to store the port number that pin
 965:Generated_Source\PSoC4/CapSense_1.c ****     *  belongs to for each sensor.
 966:Generated_Source\PSoC4/CapSense_1.c ****     *  CapSense_1_maskTable[]  - used to store the pin within the port for
 967:Generated_Source\PSoC4/CapSense_1.c ****     *  each sensor.
 968:Generated_Source\PSoC4/CapSense_1.c ****     *  CapSense_1_indexTable[] - used to store indexes of complex sensors.
 969:Generated_Source\PSoC4/CapSense_1.c ****     *  The offset and position in this array are stored in a port and mask table for
 970:Generated_Source\PSoC4/CapSense_1.c ****     *  complex sensors.
 971:Generated_Source\PSoC4/CapSense_1.c ****     *  7bit(msb) is used to define the sensor type: single or complex.
 972:Generated_Source\PSoC4/CapSense_1.c ****     *
 973:Generated_Source\PSoC4/CapSense_1.c ****     * Side Effects:
 974:Generated_Source\PSoC4/CapSense_1.c ****     *  None
 975:Generated_Source\PSoC4/CapSense_1.c ****     *
 976:Generated_Source\PSoC4/CapSense_1.c ****     *******************************************************************************/
 977:Generated_Source\PSoC4/CapSense_1.c ****     void CapSense_1_DisableScanSlot(uint32 slot)
 978:Generated_Source\PSoC4/CapSense_1.c ****     {
 979:Generated_Source\PSoC4/CapSense_1.c ****         uint8 j;
 980:Generated_Source\PSoC4/CapSense_1.c ****         uint8 snsNumber;
 981:Generated_Source\PSoC4/CapSense_1.c ****         const uint8 *index;
 982:Generated_Source\PSoC4/CapSense_1.c **** 
 983:Generated_Source\PSoC4/CapSense_1.c ****         /* Read sensor type: single or complex */
 984:Generated_Source\PSoC4/CapSense_1.c ****         uint8 snsType = CapSense_1_portTable[slot];
 985:Generated_Source\PSoC4/CapSense_1.c **** 
 986:Generated_Source\PSoC4/CapSense_1.c ****         /* Check if sensor is complex */
 987:Generated_Source\PSoC4/CapSense_1.c ****         if ((snsType & CapSense_1_COMPLEX_SS_FLAG) == 0u)
 988:Generated_Source\PSoC4/CapSense_1.c ****         {
 989:Generated_Source\PSoC4/CapSense_1.c ****             /* Disable sensor (single) */
ARM GAS  C:\Users\d4hhm\AppData\Local\Temp\ccLEMF4D.s 			page 37


 990:Generated_Source\PSoC4/CapSense_1.c ****             CapSense_1_DisableSensor(slot);
 991:Generated_Source\PSoC4/CapSense_1.c ****         }
 992:Generated_Source\PSoC4/CapSense_1.c ****         else
 993:Generated_Source\PSoC4/CapSense_1.c ****         {
 994:Generated_Source\PSoC4/CapSense_1.c ****             /* Disable complex sensor */
 995:Generated_Source\PSoC4/CapSense_1.c ****             snsType &= ~CapSense_1_COMPLEX_SS_FLAG;
 996:Generated_Source\PSoC4/CapSense_1.c ****             index = &CapSense_1_indexTable[snsType];
 997:Generated_Source\PSoC4/CapSense_1.c ****             snsNumber = CapSense_1_maskTable[slot];
 998:Generated_Source\PSoC4/CapSense_1.c **** 
 999:Generated_Source\PSoC4/CapSense_1.c ****             for (j=0; j < snsNumber; j++)
1000:Generated_Source\PSoC4/CapSense_1.c ****             {
1001:Generated_Source\PSoC4/CapSense_1.c ****                 CapSense_1_DisableSensor(index[j]);
1002:Generated_Source\PSoC4/CapSense_1.c ****             }
1003:Generated_Source\PSoC4/CapSense_1.c ****         }
1004:Generated_Source\PSoC4/CapSense_1.c ****     }
1005:Generated_Source\PSoC4/CapSense_1.c **** #endif  /* CapSense_1_IS_COMPLEX_SCANSLOTS */
1006:Generated_Source\PSoC4/CapSense_1.c **** 
1007:Generated_Source\PSoC4/CapSense_1.c **** 
1008:Generated_Source\PSoC4/CapSense_1.c **** /*******************************************************************************
1009:Generated_Source\PSoC4/CapSense_1.c **** * Function Name: CapSense_1_EnableSensor
1010:Generated_Source\PSoC4/CapSense_1.c **** ********************************************************************************
1011:Generated_Source\PSoC4/CapSense_1.c **** *
1012:Generated_Source\PSoC4/CapSense_1.c **** * Summary:
1013:Generated_Source\PSoC4/CapSense_1.c **** *  Configures the selected sensor to measure during the next measurement cycle.
1014:Generated_Source\PSoC4/CapSense_1.c **** *  The corresponding pins are set to Analog High-Z mode and connected to the
1015:Generated_Source\PSoC4/CapSense_1.c **** *  Analog Mux Bus. This also enables the comparator function.
1016:Generated_Source\PSoC4/CapSense_1.c **** *
1017:Generated_Source\PSoC4/CapSense_1.c **** * Parameters:
1018:Generated_Source\PSoC4/CapSense_1.c **** *  sensor:  Sensor number.
1019:Generated_Source\PSoC4/CapSense_1.c **** *
1020:Generated_Source\PSoC4/CapSense_1.c **** * Return:
1021:Generated_Source\PSoC4/CapSense_1.c **** *  None
1022:Generated_Source\PSoC4/CapSense_1.c **** *
1023:Generated_Source\PSoC4/CapSense_1.c **** * Global Variables:
1024:Generated_Source\PSoC4/CapSense_1.c **** *  CapSense_1_portTable[] - used to store the port number that pin
1025:Generated_Source\PSoC4/CapSense_1.c **** *  belongs to for each sensor.
1026:Generated_Source\PSoC4/CapSense_1.c **** *  CapSense_1_pinShiftTbl[] - used to store position of pin that
1027:Generated_Source\PSoC4/CapSense_1.c **** *  configured as sensor in port.
1028:Generated_Source\PSoC4/CapSense_1.c **** *  CapSense_1_prtSelTbl[] - Contains pointers to the HSIOM
1029:Generated_Source\PSoC4/CapSense_1.c **** *  registers for each port.
1030:Generated_Source\PSoC4/CapSense_1.c **** *  CapSense_1_PrtCfgTb[] - Contains pointers to the port config
1031:Generated_Source\PSoC4/CapSense_1.c **** *  registers for each port.
1032:Generated_Source\PSoC4/CapSense_1.c **** *
1033:Generated_Source\PSoC4/CapSense_1.c **** * Side Effects:
1034:Generated_Source\PSoC4/CapSense_1.c **** *  None
1035:Generated_Source\PSoC4/CapSense_1.c **** *
1036:Generated_Source\PSoC4/CapSense_1.c **** *******************************************************************************/
1037:Generated_Source\PSoC4/CapSense_1.c **** void CapSense_1_EnableSensor(uint32 sensor)
1038:Generated_Source\PSoC4/CapSense_1.c **** {
 1055              		.loc 1 1038 0
 1056              		.cfi_startproc
 1057              		@ args = 0, pretend = 0, frame = 24
 1058              		@ frame_needed = 1, uses_anonymous_args = 0
 1059 0000 90B5     		push	{r4, r7, lr}
 1060              		.cfi_def_cfa_offset 12
 1061              		.cfi_offset 4, -12
 1062              		.cfi_offset 7, -8
ARM GAS  C:\Users\d4hhm\AppData\Local\Temp\ccLEMF4D.s 			page 38


 1063              		.cfi_offset 14, -4
 1064 0002 87B0     		sub	sp, sp, #28
 1065              		.cfi_def_cfa_offset 40
 1066 0004 00AF     		add	r7, sp, #0
 1067              		.cfi_def_cfa_register 7
 1068 0006 7860     		str	r0, [r7, #4]
1039:Generated_Source\PSoC4/CapSense_1.c ****     uint8  pinModeShift;
1040:Generated_Source\PSoC4/CapSense_1.c ****     uint8  pinHSIOMShift;
1041:Generated_Source\PSoC4/CapSense_1.c ****     uint8 interruptState;
1042:Generated_Source\PSoC4/CapSense_1.c ****     uint32 newRegisterValue;
1043:Generated_Source\PSoC4/CapSense_1.c ****     uint32 port;
1044:Generated_Source\PSoC4/CapSense_1.c **** 
1045:Generated_Source\PSoC4/CapSense_1.c ****     port = (uint32) CapSense_1_portTable[sensor];
 1069              		.loc 1 1045 0
 1070 0008 0323     		movs	r3, #3
 1071 000a 7B61     		str	r3, [r7, #20]
1046:Generated_Source\PSoC4/CapSense_1.c ****     pinModeShift = CapSense_1_pinShiftTbl[sensor]  * CapSense_1_PC_PIN_CFG_SIZE;
 1072              		.loc 1 1046 0
 1073 000c 0423     		movs	r3, #4
 1074 000e 1322     		movs	r2, #19
 1075 0010 BA18     		adds	r2, r7, r2
 1076 0012 191C     		adds	r1, r3, #0
 1077 0014 0B1C     		adds	r3, r1, #0
 1078 0016 DB18     		adds	r3, r3, r3
 1079 0018 5B18     		adds	r3, r3, r1
 1080 001a 1370     		strb	r3, [r2]
1047:Generated_Source\PSoC4/CapSense_1.c ****     pinHSIOMShift = CapSense_1_pinShiftTbl[sensor] * CapSense_1_HSIOM_PIN_CFG_SIZE;
 1081              		.loc 1 1047 0
 1082 001c 0422     		movs	r2, #4
 1083 001e 1223     		movs	r3, #18
 1084 0020 FB18     		adds	r3, r7, r3
 1085 0022 9200     		lsls	r2, r2, #2
 1086 0024 1A70     		strb	r2, [r3]
1048:Generated_Source\PSoC4/CapSense_1.c **** 
1049:Generated_Source\PSoC4/CapSense_1.c ****     interruptState = CyEnterCriticalSection();
 1087              		.loc 1 1049 0
 1088 0026 1123     		movs	r3, #17
 1089 0028 FC18     		adds	r4, r7, r3
 1090 002a FFF7FEFF 		bl	CyEnterCriticalSection
 1091 002e 0300     		movs	r3, r0
 1092 0030 2370     		strb	r3, [r4]
1050:Generated_Source\PSoC4/CapSense_1.c **** 
1051:Generated_Source\PSoC4/CapSense_1.c ****     newRegisterValue = *CapSense_1_prtSelTbl[port];
 1093              		.loc 1 1051 0
 1094 0032 1D4B     		ldr	r3, .L64
 1095 0034 7A69     		ldr	r2, [r7, #20]
 1096 0036 9200     		lsls	r2, r2, #2
 1097 0038 D358     		ldr	r3, [r2, r3]
 1098 003a 1B68     		ldr	r3, [r3]
 1099 003c FB60     		str	r3, [r7, #12]
1052:Generated_Source\PSoC4/CapSense_1.c ****     newRegisterValue &= ~(CapSense_1_CSD_HSIOM_MASK << pinHSIOMShift);
 1100              		.loc 1 1052 0
 1101 003e 1223     		movs	r3, #18
 1102 0040 FB18     		adds	r3, r7, r3
 1103 0042 1B78     		ldrb	r3, [r3]
 1104 0044 0F22     		movs	r2, #15
 1105 0046 9A40     		lsls	r2, r2, r3
ARM GAS  C:\Users\d4hhm\AppData\Local\Temp\ccLEMF4D.s 			page 39


 1106 0048 1300     		movs	r3, r2
 1107 004a DA43     		mvns	r2, r3
 1108 004c FB68     		ldr	r3, [r7, #12]
 1109 004e 1340     		ands	r3, r2
 1110 0050 FB60     		str	r3, [r7, #12]
1053:Generated_Source\PSoC4/CapSense_1.c ****     newRegisterValue |= (uint32)((uint32)CapSense_1_CSD_SENSE_PORT_MODE << pinHSIOMShift);
 1111              		.loc 1 1053 0
 1112 0052 1223     		movs	r3, #18
 1113 0054 FB18     		adds	r3, r7, r3
 1114 0056 1B78     		ldrb	r3, [r3]
 1115 0058 0422     		movs	r2, #4
 1116 005a 9A40     		lsls	r2, r2, r3
 1117 005c 1300     		movs	r3, r2
 1118 005e FA68     		ldr	r2, [r7, #12]
 1119 0060 1343     		orrs	r3, r2
 1120 0062 FB60     		str	r3, [r7, #12]
1054:Generated_Source\PSoC4/CapSense_1.c **** 
1055:Generated_Source\PSoC4/CapSense_1.c ****     *CapSense_1_prtCfgTbl[port] &= (uint32)~((uint32)CapSense_1_CSD_PIN_MODE_MASK << pinModeShift);
 1121              		.loc 1 1055 0
 1122 0064 114B     		ldr	r3, .L64+4
 1123 0066 7A69     		ldr	r2, [r7, #20]
 1124 0068 9200     		lsls	r2, r2, #2
 1125 006a D358     		ldr	r3, [r2, r3]
 1126 006c 0F4A     		ldr	r2, .L64+4
 1127 006e 7969     		ldr	r1, [r7, #20]
 1128 0070 8900     		lsls	r1, r1, #2
 1129 0072 8A58     		ldr	r2, [r1, r2]
 1130 0074 1268     		ldr	r2, [r2]
 1131 0076 1321     		movs	r1, #19
 1132 0078 7918     		adds	r1, r7, r1
 1133 007a 0978     		ldrb	r1, [r1]
 1134 007c 0720     		movs	r0, #7
 1135 007e 8840     		lsls	r0, r0, r1
 1136 0080 0100     		movs	r1, r0
 1137 0082 C943     		mvns	r1, r1
 1138 0084 0A40     		ands	r2, r1
 1139 0086 1A60     		str	r2, [r3]
1056:Generated_Source\PSoC4/CapSense_1.c ****     *CapSense_1_prtSelTbl[port] = newRegisterValue;
 1140              		.loc 1 1056 0
 1141 0088 074B     		ldr	r3, .L64
 1142 008a 7A69     		ldr	r2, [r7, #20]
 1143 008c 9200     		lsls	r2, r2, #2
 1144 008e D358     		ldr	r3, [r2, r3]
 1145 0090 FA68     		ldr	r2, [r7, #12]
 1146 0092 1A60     		str	r2, [r3]
1057:Generated_Source\PSoC4/CapSense_1.c **** 
1058:Generated_Source\PSoC4/CapSense_1.c ****     CyExitCriticalSection(interruptState);
 1147              		.loc 1 1058 0
 1148 0094 1123     		movs	r3, #17
 1149 0096 FB18     		adds	r3, r7, r3
 1150 0098 1B78     		ldrb	r3, [r3]
 1151 009a 1800     		movs	r0, r3
 1152 009c FFF7FEFF 		bl	CyExitCriticalSection
1059:Generated_Source\PSoC4/CapSense_1.c **** }
 1153              		.loc 1 1059 0
 1154 00a0 C046     		nop
 1155 00a2 BD46     		mov	sp, r7
ARM GAS  C:\Users\d4hhm\AppData\Local\Temp\ccLEMF4D.s 			page 40


 1156 00a4 07B0     		add	sp, sp, #28
 1157              		@ sp needed
 1158 00a6 90BD     		pop	{r4, r7, pc}
 1159              	.L65:
 1160              		.align	2
 1161              	.L64:
 1162 00a8 00000000 		.word	CapSense_1_prtSelTbl
 1163 00ac 00000000 		.word	CapSense_1_prtCfgTbl
 1164              		.cfi_endproc
 1165              	.LFE48:
 1166              		.size	CapSense_1_EnableSensor, .-CapSense_1_EnableSensor
 1167              		.section	.text.CapSense_1_DisableSensor,"ax",%progbits
 1168              		.align	2
 1169              		.global	CapSense_1_DisableSensor
 1170              		.code	16
 1171              		.thumb_func
 1172              		.type	CapSense_1_DisableSensor, %function
 1173              	CapSense_1_DisableSensor:
 1174              	.LFB49:
1060:Generated_Source\PSoC4/CapSense_1.c **** 
1061:Generated_Source\PSoC4/CapSense_1.c **** 
1062:Generated_Source\PSoC4/CapSense_1.c **** /*******************************************************************************
1063:Generated_Source\PSoC4/CapSense_1.c **** * Function Name: CapSense_1_DisableSensor
1064:Generated_Source\PSoC4/CapSense_1.c **** ********************************************************************************
1065:Generated_Source\PSoC4/CapSense_1.c **** *
1066:Generated_Source\PSoC4/CapSense_1.c **** * Summary:
1067:Generated_Source\PSoC4/CapSense_1.c **** *  Disables the selected sensor. The corresponding pin is disconnected from the
1068:Generated_Source\PSoC4/CapSense_1.c **** *  Analog Mux Bus and connected to GND, High_Z or Shield electrode.
1069:Generated_Source\PSoC4/CapSense_1.c **** *
1070:Generated_Source\PSoC4/CapSense_1.c **** * Parameters:
1071:Generated_Source\PSoC4/CapSense_1.c **** *  sensor:  Sensor number
1072:Generated_Source\PSoC4/CapSense_1.c **** *
1073:Generated_Source\PSoC4/CapSense_1.c **** * Return:
1074:Generated_Source\PSoC4/CapSense_1.c **** *  None
1075:Generated_Source\PSoC4/CapSense_1.c **** *
1076:Generated_Source\PSoC4/CapSense_1.c **** * Global Variables:
1077:Generated_Source\PSoC4/CapSense_1.c **** *  CapSense_1_portTable[] - used to store the port number that pin
1078:Generated_Source\PSoC4/CapSense_1.c **** *  belongs to for each sensor.
1079:Generated_Source\PSoC4/CapSense_1.c **** *  CapSense_1_pinShiftTbl[] - used to store position of pin that
1080:Generated_Source\PSoC4/CapSense_1.c **** *  configured as a sensor in the port.
1081:Generated_Source\PSoC4/CapSense_1.c **** *  CapSense_1_prtSelTbl[] - Contains pointers to the HSIOM
1082:Generated_Source\PSoC4/CapSense_1.c **** *  registers for each port.
1083:Generated_Source\PSoC4/CapSense_1.c **** *  CapSense_1_PrtCfgTb[] - Contains pointers to the port config
1084:Generated_Source\PSoC4/CapSense_1.c **** *  registers for each port.
1085:Generated_Source\PSoC4/CapSense_1.c **** *
1086:Generated_Source\PSoC4/CapSense_1.c **** * Side Effects:
1087:Generated_Source\PSoC4/CapSense_1.c **** *  None
1088:Generated_Source\PSoC4/CapSense_1.c **** *
1089:Generated_Source\PSoC4/CapSense_1.c **** *******************************************************************************/
1090:Generated_Source\PSoC4/CapSense_1.c **** void CapSense_1_DisableSensor(uint32 sensor)
1091:Generated_Source\PSoC4/CapSense_1.c **** {
 1175              		.loc 1 1091 0
 1176              		.cfi_startproc
 1177              		@ args = 0, pretend = 0, frame = 32
 1178              		@ frame_needed = 1, uses_anonymous_args = 0
 1179 0000 90B5     		push	{r4, r7, lr}
 1180              		.cfi_def_cfa_offset 12
ARM GAS  C:\Users\d4hhm\AppData\Local\Temp\ccLEMF4D.s 			page 41


 1181              		.cfi_offset 4, -12
 1182              		.cfi_offset 7, -8
 1183              		.cfi_offset 14, -4
 1184 0002 89B0     		sub	sp, sp, #36
 1185              		.cfi_def_cfa_offset 48
 1186 0004 00AF     		add	r7, sp, #0
 1187              		.cfi_def_cfa_register 7
 1188 0006 7860     		str	r0, [r7, #4]
1092:Generated_Source\PSoC4/CapSense_1.c ****     uint8 interruptState;
1093:Generated_Source\PSoC4/CapSense_1.c ****     uint32 newRegisterValue;
1094:Generated_Source\PSoC4/CapSense_1.c **** 
1095:Generated_Source\PSoC4/CapSense_1.c ****     uint32 port = (uint32) CapSense_1_portTable[sensor];
 1189              		.loc 1 1095 0
 1190 0008 0323     		movs	r3, #3
 1191 000a BB61     		str	r3, [r7, #24]
1096:Generated_Source\PSoC4/CapSense_1.c ****     uint8  pinHSIOMShift = CapSense_1_pinShiftTbl[sensor] * CapSense_1_HSIOM_PIN_CFG_SIZE;
 1192              		.loc 1 1096 0
 1193 000c 0422     		movs	r2, #4
 1194 000e 1723     		movs	r3, #23
 1195 0010 FB18     		adds	r3, r7, r3
 1196 0012 9200     		lsls	r2, r2, #2
 1197 0014 1A70     		strb	r2, [r3]
1097:Generated_Source\PSoC4/CapSense_1.c ****     uint8  pinModeShift = CapSense_1_pinShiftTbl[sensor]  * CapSense_1_PC_PIN_CFG_SIZE;
 1198              		.loc 1 1097 0
 1199 0016 0423     		movs	r3, #4
 1200 0018 1622     		movs	r2, #22
 1201 001a BA18     		adds	r2, r7, r2
 1202 001c 191C     		adds	r1, r3, #0
 1203 001e 0B1C     		adds	r3, r1, #0
 1204 0020 DB18     		adds	r3, r3, r3
 1205 0022 5B18     		adds	r3, r3, r1
 1206 0024 1370     		strb	r3, [r2]
1098:Generated_Source\PSoC4/CapSense_1.c **** 
1099:Generated_Source\PSoC4/CapSense_1.c ****     uint32 inactiveConnect = CapSense_1_SNS_HIZANALOG_CONNECT;
 1207              		.loc 1 1099 0
 1208 0026 0023     		movs	r3, #0
 1209 0028 FB61     		str	r3, [r7, #28]
1100:Generated_Source\PSoC4/CapSense_1.c ****     uint32 sensorState = CapSense_1_unscannedSnsDriveMode[sensor];
 1210              		.loc 1 1100 0
 1211 002a 384A     		ldr	r2, .L71
 1212 002c 7B68     		ldr	r3, [r7, #4]
 1213 002e D318     		adds	r3, r2, r3
 1214 0030 1B78     		ldrb	r3, [r3]
 1215 0032 3B61     		str	r3, [r7, #16]
1101:Generated_Source\PSoC4/CapSense_1.c **** 
1102:Generated_Source\PSoC4/CapSense_1.c ****     *CapSense_1_prtSelTbl[port] &= ~(CapSense_1_CSD_HSIOM_MASK << pinHSIOMShift);
 1216              		.loc 1 1102 0
 1217 0034 364B     		ldr	r3, .L71+4
 1218 0036 BA69     		ldr	r2, [r7, #24]
 1219 0038 9200     		lsls	r2, r2, #2
 1220 003a D358     		ldr	r3, [r2, r3]
 1221 003c 344A     		ldr	r2, .L71+4
 1222 003e B969     		ldr	r1, [r7, #24]
 1223 0040 8900     		lsls	r1, r1, #2
 1224 0042 8A58     		ldr	r2, [r1, r2]
 1225 0044 1268     		ldr	r2, [r2]
 1226 0046 1721     		movs	r1, #23
ARM GAS  C:\Users\d4hhm\AppData\Local\Temp\ccLEMF4D.s 			page 42


 1227 0048 7918     		adds	r1, r7, r1
 1228 004a 0978     		ldrb	r1, [r1]
 1229 004c 0F20     		movs	r0, #15
 1230 004e 8840     		lsls	r0, r0, r1
 1231 0050 0100     		movs	r1, r0
 1232 0052 C943     		mvns	r1, r1
 1233 0054 0A40     		ands	r2, r1
 1234 0056 1A60     		str	r2, [r3]
1103:Generated_Source\PSoC4/CapSense_1.c **** 
1104:Generated_Source\PSoC4/CapSense_1.c ****     #if(CapSense_1_IS_SHIELD_ENABLE != 0)
1105:Generated_Source\PSoC4/CapSense_1.c ****     if(sensorState != (uint32)CapSense_1__SHIELD)
 1235              		.loc 1 1105 0
 1236 0058 3B69     		ldr	r3, [r7, #16]
 1237 005a 022B     		cmp	r3, #2
 1238 005c 40D0     		beq	.L67
1106:Generated_Source\PSoC4/CapSense_1.c ****     {
1107:Generated_Source\PSoC4/CapSense_1.c ****     #else
1108:Generated_Source\PSoC4/CapSense_1.c ****         /* Connected to Ground if shield is disabled */
1109:Generated_Source\PSoC4/CapSense_1.c ****         if(sensorState == (uint32)CapSense_1__SHIELD)
1110:Generated_Source\PSoC4/CapSense_1.c ****         {
1111:Generated_Source\PSoC4/CapSense_1.c ****             sensorState = (uint32)CapSense_1__GROUND;
1112:Generated_Source\PSoC4/CapSense_1.c ****         }
1113:Generated_Source\PSoC4/CapSense_1.c ****     #endif /* (CapSense_1_IS_SHIELD_ENABLE) */
1114:Generated_Source\PSoC4/CapSense_1.c ****         if(sensorState != (uint32)CapSense_1__HIZ_ANALOG)
 1239              		.loc 1 1114 0
 1240 005e 3B69     		ldr	r3, [r7, #16]
 1241 0060 012B     		cmp	r3, #1
 1242 0062 01D0     		beq	.L68
1115:Generated_Source\PSoC4/CapSense_1.c ****         {
1116:Generated_Source\PSoC4/CapSense_1.c ****             /* Connected to Ground */
1117:Generated_Source\PSoC4/CapSense_1.c ****             inactiveConnect = (uint32)CapSense_1_SNS_GROUND_CONNECT;
 1243              		.loc 1 1117 0
 1244 0064 0623     		movs	r3, #6
 1245 0066 FB61     		str	r3, [r7, #28]
 1246              	.L68:
1118:Generated_Source\PSoC4/CapSense_1.c ****         }
1119:Generated_Source\PSoC4/CapSense_1.c **** 
1120:Generated_Source\PSoC4/CapSense_1.c ****         interruptState = CyEnterCriticalSection();
 1247              		.loc 1 1120 0
 1248 0068 0F23     		movs	r3, #15
 1249 006a FC18     		adds	r4, r7, r3
 1250 006c FFF7FEFF 		bl	CyEnterCriticalSection
 1251 0070 0300     		movs	r3, r0
 1252 0072 2370     		strb	r3, [r4]
1121:Generated_Source\PSoC4/CapSense_1.c **** 
1122:Generated_Source\PSoC4/CapSense_1.c ****         /* Set drive mode */
1123:Generated_Source\PSoC4/CapSense_1.c ****         newRegisterValue = *CapSense_1_prtCfgTbl[port];
 1253              		.loc 1 1123 0
 1254 0074 274B     		ldr	r3, .L71+8
 1255 0076 BA69     		ldr	r2, [r7, #24]
 1256 0078 9200     		lsls	r2, r2, #2
 1257 007a D358     		ldr	r3, [r2, r3]
 1258 007c 1B68     		ldr	r3, [r3]
 1259 007e BB60     		str	r3, [r7, #8]
1124:Generated_Source\PSoC4/CapSense_1.c ****         newRegisterValue &= ~(CapSense_1_CSD_PIN_MODE_MASK << pinModeShift);
 1260              		.loc 1 1124 0
 1261 0080 1623     		movs	r3, #22
ARM GAS  C:\Users\d4hhm\AppData\Local\Temp\ccLEMF4D.s 			page 43


 1262 0082 FB18     		adds	r3, r7, r3
 1263 0084 1B78     		ldrb	r3, [r3]
 1264 0086 0722     		movs	r2, #7
 1265 0088 9A40     		lsls	r2, r2, r3
 1266 008a 1300     		movs	r3, r2
 1267 008c DA43     		mvns	r2, r3
 1268 008e BB68     		ldr	r3, [r7, #8]
 1269 0090 1340     		ands	r3, r2
 1270 0092 BB60     		str	r3, [r7, #8]
1125:Generated_Source\PSoC4/CapSense_1.c ****         newRegisterValue |=  (uint32)(inactiveConnect << pinModeShift);
 1271              		.loc 1 1125 0
 1272 0094 1623     		movs	r3, #22
 1273 0096 FB18     		adds	r3, r7, r3
 1274 0098 1B78     		ldrb	r3, [r3]
 1275 009a FA69     		ldr	r2, [r7, #28]
 1276 009c 9A40     		lsls	r2, r2, r3
 1277 009e 1300     		movs	r3, r2
 1278 00a0 BA68     		ldr	r2, [r7, #8]
 1279 00a2 1343     		orrs	r3, r2
 1280 00a4 BB60     		str	r3, [r7, #8]
1126:Generated_Source\PSoC4/CapSense_1.c ****         *CapSense_1_prtCfgTbl[port] =  newRegisterValue;
 1281              		.loc 1 1126 0
 1282 00a6 1B4B     		ldr	r3, .L71+8
 1283 00a8 BA69     		ldr	r2, [r7, #24]
 1284 00aa 9200     		lsls	r2, r2, #2
 1285 00ac D358     		ldr	r3, [r2, r3]
 1286 00ae BA68     		ldr	r2, [r7, #8]
 1287 00b0 1A60     		str	r2, [r3]
1127:Generated_Source\PSoC4/CapSense_1.c **** 
1128:Generated_Source\PSoC4/CapSense_1.c ****         CyExitCriticalSection(interruptState);
 1288              		.loc 1 1128 0
 1289 00b2 0F23     		movs	r3, #15
 1290 00b4 FB18     		adds	r3, r7, r3
 1291 00b6 1B78     		ldrb	r3, [r3]
 1292 00b8 1800     		movs	r0, r3
 1293 00ba FFF7FEFF 		bl	CyExitCriticalSection
1129:Generated_Source\PSoC4/CapSense_1.c **** 
1130:Generated_Source\PSoC4/CapSense_1.c ****         *CapSense_1_prtDRTbl[port]  &=  (uint32)~(uint32)((uint32)1u << CapSense_1_pinShiftTbl[sens
 1294              		.loc 1 1130 0
 1295 00be 164B     		ldr	r3, .L71+12
 1296 00c0 BA69     		ldr	r2, [r7, #24]
 1297 00c2 9200     		lsls	r2, r2, #2
 1298 00c4 D358     		ldr	r3, [r2, r3]
 1299 00c6 144A     		ldr	r2, .L71+12
 1300 00c8 B969     		ldr	r1, [r7, #24]
 1301 00ca 8900     		lsls	r1, r1, #2
 1302 00cc 8A58     		ldr	r2, [r1, r2]
 1303 00ce 1268     		ldr	r2, [r2]
 1304 00d0 0421     		movs	r1, #4
 1305 00d2 0800     		movs	r0, r1
 1306 00d4 0121     		movs	r1, #1
 1307 00d6 8140     		lsls	r1, r1, r0
 1308 00d8 C943     		mvns	r1, r1
 1309 00da 0A40     		ands	r2, r1
 1310 00dc 1A60     		str	r2, [r3]
1131:Generated_Source\PSoC4/CapSense_1.c ****     #if(CapSense_1_IS_SHIELD_ENABLE != 0)
1132:Generated_Source\PSoC4/CapSense_1.c ****     }
ARM GAS  C:\Users\d4hhm\AppData\Local\Temp\ccLEMF4D.s 			page 44


1133:Generated_Source\PSoC4/CapSense_1.c ****     else
1134:Generated_Source\PSoC4/CapSense_1.c ****     {
1135:Generated_Source\PSoC4/CapSense_1.c ****         /* Connect to Shield */
1136:Generated_Source\PSoC4/CapSense_1.c ****         *CapSense_1_prtSelTbl[port] |= (CapSense_1_CSD_SHIELD_PORT_MODE << pinHSIOMShift);
1137:Generated_Source\PSoC4/CapSense_1.c ****     }
1138:Generated_Source\PSoC4/CapSense_1.c ****     #endif /* (CapSense_1_IS_SHIELD_ENABLE) */
1139:Generated_Source\PSoC4/CapSense_1.c **** }
 1311              		.loc 1 1139 0
 1312 00de 10E0     		b	.L70
 1313              	.L67:
1136:Generated_Source\PSoC4/CapSense_1.c ****     }
 1314              		.loc 1 1136 0
 1315 00e0 0B4B     		ldr	r3, .L71+4
 1316 00e2 BA69     		ldr	r2, [r7, #24]
 1317 00e4 9200     		lsls	r2, r2, #2
 1318 00e6 D358     		ldr	r3, [r2, r3]
 1319 00e8 094A     		ldr	r2, .L71+4
 1320 00ea B969     		ldr	r1, [r7, #24]
 1321 00ec 8900     		lsls	r1, r1, #2
 1322 00ee 8A58     		ldr	r2, [r1, r2]
 1323 00f0 1168     		ldr	r1, [r2]
 1324 00f2 1722     		movs	r2, #23
 1325 00f4 BA18     		adds	r2, r7, r2
 1326 00f6 1278     		ldrb	r2, [r2]
 1327 00f8 0520     		movs	r0, #5
 1328 00fa 9040     		lsls	r0, r0, r2
 1329 00fc 0200     		movs	r2, r0
 1330 00fe 0A43     		orrs	r2, r1
 1331 0100 1A60     		str	r2, [r3]
 1332              	.L70:
 1333              		.loc 1 1139 0
 1334 0102 C046     		nop
 1335 0104 BD46     		mov	sp, r7
 1336 0106 09B0     		add	sp, sp, #36
 1337              		@ sp needed
 1338 0108 90BD     		pop	{r4, r7, pc}
 1339              	.L72:
 1340 010a C046     		.align	2
 1341              	.L71:
 1342 010c 00000000 		.word	CapSense_1_unscannedSnsDriveMode
 1343 0110 00000000 		.word	CapSense_1_prtSelTbl
 1344 0114 00000000 		.word	CapSense_1_prtCfgTbl
 1345 0118 00000000 		.word	CapSense_1_prtDRTbl
 1346              		.cfi_endproc
 1347              	.LFE49:
 1348              		.size	CapSense_1_DisableSensor, .-CapSense_1_DisableSensor
 1349              		.section	.text.CapSense_1_SetDriveModeAllPins,"ax",%progbits
 1350              		.align	2
 1351              		.global	CapSense_1_SetDriveModeAllPins
 1352              		.code	16
 1353              		.thumb_func
 1354              		.type	CapSense_1_SetDriveModeAllPins, %function
 1355              	CapSense_1_SetDriveModeAllPins:
 1356              	.LFB50:
1140:Generated_Source\PSoC4/CapSense_1.c **** 
1141:Generated_Source\PSoC4/CapSense_1.c **** 
1142:Generated_Source\PSoC4/CapSense_1.c **** /*******************************************************************************
ARM GAS  C:\Users\d4hhm\AppData\Local\Temp\ccLEMF4D.s 			page 45


1143:Generated_Source\PSoC4/CapSense_1.c **** * Function Name: CapSense_1_SetDriveModeAllPins
1144:Generated_Source\PSoC4/CapSense_1.c **** ********************************************************************************
1145:Generated_Source\PSoC4/CapSense_1.c **** *
1146:Generated_Source\PSoC4/CapSense_1.c **** * Summary:
1147:Generated_Source\PSoC4/CapSense_1.c **** * This API sets the drive mode of port pins used by the CapSense
1148:Generated_Source\PSoC4/CapSense_1.c **** * component (sensors, guard, shield, shield tank and Cmod) to drive the
1149:Generated_Source\PSoC4/CapSense_1.c **** * mode specified by the argument.
1150:Generated_Source\PSoC4/CapSense_1.c **** *
1151:Generated_Source\PSoC4/CapSense_1.c **** * Parameters:
1152:Generated_Source\PSoC4/CapSense_1.c **** *  driveMode:  Drive mode definition.
1153:Generated_Source\PSoC4/CapSense_1.c **** *
1154:Generated_Source\PSoC4/CapSense_1.c **** * Return:
1155:Generated_Source\PSoC4/CapSense_1.c **** *  None
1156:Generated_Source\PSoC4/CapSense_1.c **** *
1157:Generated_Source\PSoC4/CapSense_1.c **** * Global Variables:
1158:Generated_Source\PSoC4/CapSense_1.c **** *  CapSense_1_portTable[] - used to store the port number that pin
1159:Generated_Source\PSoC4/CapSense_1.c **** *  belongs to for each sensor.
1160:Generated_Source\PSoC4/CapSense_1.c **** *  CapSense_1_pinShiftTbl[] - used to store position of pin that
1161:Generated_Source\PSoC4/CapSense_1.c **** *  configured as a sensor in the port.
1162:Generated_Source\PSoC4/CapSense_1.c **** *
1163:Generated_Source\PSoC4/CapSense_1.c **** * Side Effects:
1164:Generated_Source\PSoC4/CapSense_1.c **** *  This API shall be called only after CapSense component is stopped.
1165:Generated_Source\PSoC4/CapSense_1.c **** *
1166:Generated_Source\PSoC4/CapSense_1.c **** *******************************************************************************/
1167:Generated_Source\PSoC4/CapSense_1.c **** void CapSense_1_SetDriveModeAllPins(uint32 driveMode)
1168:Generated_Source\PSoC4/CapSense_1.c **** {
 1357              		.loc 1 1168 0
 1358              		.cfi_startproc
 1359              		@ args = 0, pretend = 0, frame = 24
 1360              		@ frame_needed = 1, uses_anonymous_args = 0
 1361 0000 80B5     		push	{r7, lr}
 1362              		.cfi_def_cfa_offset 8
 1363              		.cfi_offset 7, -8
 1364              		.cfi_offset 14, -4
 1365 0002 86B0     		sub	sp, sp, #24
 1366              		.cfi_def_cfa_offset 32
 1367 0004 00AF     		add	r7, sp, #0
 1368              		.cfi_def_cfa_register 7
 1369 0006 7860     		str	r0, [r7, #4]
1169:Generated_Source\PSoC4/CapSense_1.c ****     uint8 curSensor;
1170:Generated_Source\PSoC4/CapSense_1.c ****     #if (CapSense_1_IS_COMPLEX_SCANSLOTS)
1171:Generated_Source\PSoC4/CapSense_1.c ****         uint8 snsNumber;
1172:Generated_Source\PSoC4/CapSense_1.c ****         uint8 snsType;
1173:Generated_Source\PSoC4/CapSense_1.c ****     #endif  /* CapSense_1_IS_COMPLEX_SCANSLOTS */
1174:Generated_Source\PSoC4/CapSense_1.c ****     uint32 prtNumberTmp;
1175:Generated_Source\PSoC4/CapSense_1.c ****     uint32 pinNumberTmp;
1176:Generated_Source\PSoC4/CapSense_1.c **** 
1177:Generated_Source\PSoC4/CapSense_1.c ****     for(curSensor = 0u; curSensor < CapSense_1_TOTAL_SENSOR_COUNT; curSensor++)
 1370              		.loc 1 1177 0
 1371 0008 1723     		movs	r3, #23
 1372 000a FB18     		adds	r3, r7, r3
 1373 000c 0022     		movs	r2, #0
 1374 000e 1A70     		strb	r2, [r3]
 1375 0010 10E0     		b	.L74
 1376              	.L75:
1178:Generated_Source\PSoC4/CapSense_1.c ****     {
1179:Generated_Source\PSoC4/CapSense_1.c ****         #if (CapSense_1_IS_COMPLEX_SCANSLOTS)
ARM GAS  C:\Users\d4hhm\AppData\Local\Temp\ccLEMF4D.s 			page 46


1180:Generated_Source\PSoC4/CapSense_1.c ****             /* Read sensor type: single or complex */
1181:Generated_Source\PSoC4/CapSense_1.c ****             snsType = CapSense_1_portTable[curSensor];
1182:Generated_Source\PSoC4/CapSense_1.c **** 
1183:Generated_Source\PSoC4/CapSense_1.c ****             /* Check if sensor is complex */
1184:Generated_Source\PSoC4/CapSense_1.c ****             if ((snsType & CapSense_1_COMPLEX_SS_FLAG) == 0u)
1185:Generated_Source\PSoC4/CapSense_1.c ****             {
1186:Generated_Source\PSoC4/CapSense_1.c ****                 /* The sensor is not complex */
1187:Generated_Source\PSoC4/CapSense_1.c ****                 snsNumber = curSensor;
1188:Generated_Source\PSoC4/CapSense_1.c ****             }
1189:Generated_Source\PSoC4/CapSense_1.c ****             else
1190:Generated_Source\PSoC4/CapSense_1.c ****             {
1191:Generated_Source\PSoC4/CapSense_1.c ****                 /* Get dedicated sensor ID of the complex sensor */
1192:Generated_Source\PSoC4/CapSense_1.c ****                 snsType &= ~CapSense_1_COMPLEX_SS_FLAG;
1193:Generated_Source\PSoC4/CapSense_1.c ****                 snsNumber = CapSense_1_indexTable[snsType];
1194:Generated_Source\PSoC4/CapSense_1.c ****             }
1195:Generated_Source\PSoC4/CapSense_1.c **** 
1196:Generated_Source\PSoC4/CapSense_1.c ****             prtNumberTmp = CapSense_1_portTable[snsNumber];
1197:Generated_Source\PSoC4/CapSense_1.c ****             pinNumberTmp = CapSense_1_pinShiftTbl[snsNumber];
1198:Generated_Source\PSoC4/CapSense_1.c ****         #else
1199:Generated_Source\PSoC4/CapSense_1.c ****             prtNumberTmp = CapSense_1_portTable[curSensor];
 1377              		.loc 1 1199 0 discriminator 3
 1378 0012 0323     		movs	r3, #3
 1379 0014 3B61     		str	r3, [r7, #16]
1200:Generated_Source\PSoC4/CapSense_1.c ****             pinNumberTmp = CapSense_1_pinShiftTbl[curSensor];
 1380              		.loc 1 1200 0 discriminator 3
 1381 0016 0423     		movs	r3, #4
 1382 0018 FB60     		str	r3, [r7, #12]
1201:Generated_Source\PSoC4/CapSense_1.c ****         #endif  /* CapSense_1_IS_COMPLEX_SCANSLOTS */
1202:Generated_Source\PSoC4/CapSense_1.c **** 
1203:Generated_Source\PSoC4/CapSense_1.c ****         CapSense_1_SetPinDriveMode(driveMode, pinNumberTmp, prtNumberTmp);
 1383              		.loc 1 1203 0 discriminator 3
 1384 001a 3A69     		ldr	r2, [r7, #16]
 1385 001c F968     		ldr	r1, [r7, #12]
 1386 001e 7B68     		ldr	r3, [r7, #4]
 1387 0020 1800     		movs	r0, r3
 1388 0022 FFF7FEFF 		bl	CapSense_1_SetPinDriveMode
1177:Generated_Source\PSoC4/CapSense_1.c ****     {
 1389              		.loc 1 1177 0 discriminator 3
 1390 0026 1723     		movs	r3, #23
 1391 0028 FB18     		adds	r3, r7, r3
 1392 002a 1A78     		ldrb	r2, [r3]
 1393 002c 1723     		movs	r3, #23
 1394 002e FB18     		adds	r3, r7, r3
 1395 0030 0132     		adds	r2, r2, #1
 1396 0032 1A70     		strb	r2, [r3]
 1397              	.L74:
1177:Generated_Source\PSoC4/CapSense_1.c ****     {
 1398              		.loc 1 1177 0 is_stmt 0 discriminator 1
 1399 0034 1723     		movs	r3, #23
 1400 0036 FB18     		adds	r3, r7, r3
 1401 0038 1B78     		ldrb	r3, [r3]
 1402 003a 002B     		cmp	r3, #0
 1403 003c E9D0     		beq	.L75
1204:Generated_Source\PSoC4/CapSense_1.c ****     }
1205:Generated_Source\PSoC4/CapSense_1.c **** 
1206:Generated_Source\PSoC4/CapSense_1.c ****     CapSense_1_SetPinDriveMode(driveMode, (uint32)CapSense_1_CMOD_PIN_NUMBER, (uint32)CapSense_1_CM
 1404              		.loc 1 1206 0 is_stmt 1
ARM GAS  C:\Users\d4hhm\AppData\Local\Temp\ccLEMF4D.s 			page 47


 1405 003e 7B68     		ldr	r3, [r7, #4]
 1406 0040 0422     		movs	r2, #4
 1407 0042 0021     		movs	r1, #0
 1408 0044 1800     		movs	r0, r3
 1409 0046 FFF7FEFF 		bl	CapSense_1_SetPinDriveMode
1207:Generated_Source\PSoC4/CapSense_1.c **** 
1208:Generated_Source\PSoC4/CapSense_1.c ****     #if(0u != CapSense_1_CSH_TANK_ENABLE)
1209:Generated_Source\PSoC4/CapSense_1.c ****         CapSense_1_SetPinDriveMode(driveMode, (uint32)CapSense_1_CTANK_PIN_NUMBER, (uint32)CapSense
1210:Generated_Source\PSoC4/CapSense_1.c ****     #endif /* (0u != CapSense_1_CSH_TANK_ENABLE) */
1211:Generated_Source\PSoC4/CapSense_1.c **** 
1212:Generated_Source\PSoC4/CapSense_1.c ****     #if(0u != CapSense_1_IS_SHIELD_ENABLE)
1213:Generated_Source\PSoC4/CapSense_1.c ****         CapSense_1_SetPinDriveMode(driveMode, (uint32)CapSense_1_SHIELD_PIN_NUMBER, (uint32)CapSens
 1410              		.loc 1 1213 0
 1411 004a 7B68     		ldr	r3, [r7, #4]
 1412 004c 0322     		movs	r2, #3
 1413 004e 0721     		movs	r1, #7
 1414 0050 1800     		movs	r0, r3
 1415 0052 FFF7FEFF 		bl	CapSense_1_SetPinDriveMode
1214:Generated_Source\PSoC4/CapSense_1.c ****     #endif /* (0u != CapSense_1_IS_SHIELD_ENABLE) */
1215:Generated_Source\PSoC4/CapSense_1.c **** }
 1416              		.loc 1 1215 0
 1417 0056 C046     		nop
 1418 0058 BD46     		mov	sp, r7
 1419 005a 06B0     		add	sp, sp, #24
 1420              		@ sp needed
 1421 005c 80BD     		pop	{r7, pc}
 1422              		.cfi_endproc
 1423              	.LFE50:
 1424              		.size	CapSense_1_SetDriveModeAllPins, .-CapSense_1_SetDriveModeAllPins
 1425              		.section	.text.CapSense_1_RestoreDriveModeAllPins,"ax",%progbits
 1426              		.align	2
 1427              		.global	CapSense_1_RestoreDriveModeAllPins
 1428              		.code	16
 1429              		.thumb_func
 1430              		.type	CapSense_1_RestoreDriveModeAllPins, %function
 1431              	CapSense_1_RestoreDriveModeAllPins:
 1432              	.LFB51:
1216:Generated_Source\PSoC4/CapSense_1.c **** 
1217:Generated_Source\PSoC4/CapSense_1.c **** 
1218:Generated_Source\PSoC4/CapSense_1.c **** /*******************************************************************************
1219:Generated_Source\PSoC4/CapSense_1.c **** * Function Name: CapSense_1_RestoreDriveModeAllPins
1220:Generated_Source\PSoC4/CapSense_1.c **** ********************************************************************************
1221:Generated_Source\PSoC4/CapSense_1.c **** *
1222:Generated_Source\PSoC4/CapSense_1.c **** * Summary:
1223:Generated_Source\PSoC4/CapSense_1.c **** *  This API restores the drive for all the CapSense port pins to the original
1224:Generated_Source\PSoC4/CapSense_1.c **** *  state.
1225:Generated_Source\PSoC4/CapSense_1.c **** *
1226:Generated_Source\PSoC4/CapSense_1.c **** * Parameters:
1227:Generated_Source\PSoC4/CapSense_1.c **** *  None
1228:Generated_Source\PSoC4/CapSense_1.c **** *
1229:Generated_Source\PSoC4/CapSense_1.c **** * Return:
1230:Generated_Source\PSoC4/CapSense_1.c **** *  None
1231:Generated_Source\PSoC4/CapSense_1.c **** *
1232:Generated_Source\PSoC4/CapSense_1.c **** * Global Variables:
1233:Generated_Source\PSoC4/CapSense_1.c **** *  CapSense_1_prtSelTbl[] - Contains pointers to the HSIOM
1234:Generated_Source\PSoC4/CapSense_1.c **** *  registers for each port.
1235:Generated_Source\PSoC4/CapSense_1.c **** *
ARM GAS  C:\Users\d4hhm\AppData\Local\Temp\ccLEMF4D.s 			page 48


1236:Generated_Source\PSoC4/CapSense_1.c **** * Side Effects:
1237:Generated_Source\PSoC4/CapSense_1.c **** *  This API is called only after the CapSense component is stopped.
1238:Generated_Source\PSoC4/CapSense_1.c **** *
1239:Generated_Source\PSoC4/CapSense_1.c **** *******************************************************************************/
1240:Generated_Source\PSoC4/CapSense_1.c **** void CapSense_1_RestoreDriveModeAllPins(void)
1241:Generated_Source\PSoC4/CapSense_1.c **** {
 1433              		.loc 1 1241 0
 1434              		.cfi_startproc
 1435              		@ args = 0, pretend = 0, frame = 8
 1436              		@ frame_needed = 1, uses_anonymous_args = 0
 1437 0000 80B5     		push	{r7, lr}
 1438              		.cfi_def_cfa_offset 8
 1439              		.cfi_offset 7, -8
 1440              		.cfi_offset 14, -4
 1441 0002 82B0     		sub	sp, sp, #8
 1442              		.cfi_def_cfa_offset 16
 1443 0004 00AF     		add	r7, sp, #0
 1444              		.cfi_def_cfa_register 7
1242:Generated_Source\PSoC4/CapSense_1.c ****     uint32 newRegisterValue;
1243:Generated_Source\PSoC4/CapSense_1.c **** 
1244:Generated_Source\PSoC4/CapSense_1.c ****     CapSense_1_SetDriveModeAllPins(CY_SYS_PINS_DM_ALG_HIZ);
 1445              		.loc 1 1244 0
 1446 0006 0020     		movs	r0, #0
 1447 0008 FFF7FEFF 		bl	CapSense_1_SetDriveModeAllPins
1245:Generated_Source\PSoC4/CapSense_1.c **** 
1246:Generated_Source\PSoC4/CapSense_1.c ****     newRegisterValue = CapSense_1_CMOD_CONNECTION_REG;
 1448              		.loc 1 1246 0
 1449 000c 104B     		ldr	r3, .L77
 1450 000e 1B68     		ldr	r3, [r3]
 1451 0010 7B60     		str	r3, [r7, #4]
1247:Generated_Source\PSoC4/CapSense_1.c ****     newRegisterValue &= ~(CapSense_1_CSD_CMOD_CONNECTION_MASK);
 1452              		.loc 1 1247 0
 1453 0012 7B68     		ldr	r3, [r7, #4]
 1454 0014 0F22     		movs	r2, #15
 1455 0016 9343     		bics	r3, r2
 1456 0018 7B60     		str	r3, [r7, #4]
1248:Generated_Source\PSoC4/CapSense_1.c ****     newRegisterValue |= CapSense_1_CSD_CMOD_TO_AMUXBUS_A;
 1457              		.loc 1 1248 0
 1458 001a 7B68     		ldr	r3, [r7, #4]
 1459 001c 0622     		movs	r2, #6
 1460 001e 1343     		orrs	r3, r2
 1461 0020 7B60     		str	r3, [r7, #4]
1249:Generated_Source\PSoC4/CapSense_1.c ****     CapSense_1_CMOD_CONNECTION_REG = newRegisterValue;
 1462              		.loc 1 1249 0
 1463 0022 0B4B     		ldr	r3, .L77
 1464 0024 7A68     		ldr	r2, [r7, #4]
 1465 0026 1A60     		str	r2, [r3]
1250:Generated_Source\PSoC4/CapSense_1.c **** 
1251:Generated_Source\PSoC4/CapSense_1.c ****     #if(0u != CapSense_1_CSH_TANK_ENABLE)
1252:Generated_Source\PSoC4/CapSense_1.c ****         newRegisterValue = CapSense_1_CTANK_CONNECTION_REG;
1253:Generated_Source\PSoC4/CapSense_1.c ****         newRegisterValue &= ~(CapSense_1_CSD_CTANK_CONNECTION_MASK);
1254:Generated_Source\PSoC4/CapSense_1.c ****         newRegisterValue |= CapSense_1_CSD_CTANK_TO_AMUXBUS_B;
1255:Generated_Source\PSoC4/CapSense_1.c ****         CapSense_1_CTANK_CONNECTION_REG = newRegisterValue;
1256:Generated_Source\PSoC4/CapSense_1.c ****     #endif/* (0u != CapSense_1_CSH_TANK_ENABLE) */
1257:Generated_Source\PSoC4/CapSense_1.c **** 
1258:Generated_Source\PSoC4/CapSense_1.c ****     #if(0u != CapSense_1_IS_SHIELD_ENABLE)
1259:Generated_Source\PSoC4/CapSense_1.c ****         newRegisterValue = *CapSense_1_prtSelTbl[CapSense_1_SHIELD_PORT_NUMBER];
ARM GAS  C:\Users\d4hhm\AppData\Local\Temp\ccLEMF4D.s 			page 49


 1466              		.loc 1 1259 0
 1467 0028 0A4B     		ldr	r3, .L77+4
 1468 002a 1B68     		ldr	r3, [r3]
 1469 002c 7B60     		str	r3, [r7, #4]
1260:Generated_Source\PSoC4/CapSense_1.c ****         newRegisterValue &= ~(CapSense_1_CSD_HSIOM_MASK << ((uint32)CapSense_1_SHIELD_PIN_NUMBER * 
 1470              		.loc 1 1260 0
 1471 002e 7B68     		ldr	r3, [r7, #4]
 1472 0030 1B01     		lsls	r3, r3, #4
 1473 0032 1B09     		lsrs	r3, r3, #4
 1474 0034 7B60     		str	r3, [r7, #4]
1261:Generated_Source\PSoC4/CapSense_1.c ****         newRegisterValue |= (CapSense_1_CSD_SHIELD_PORT_MODE << ((uint32)CapSense_1_SHIELD_PIN_NUMB
 1475              		.loc 1 1261 0
 1476 0036 7B68     		ldr	r3, [r7, #4]
 1477 0038 A022     		movs	r2, #160
 1478 003a D205     		lsls	r2, r2, #23
 1479 003c 1343     		orrs	r3, r2
 1480 003e 7B60     		str	r3, [r7, #4]
1262:Generated_Source\PSoC4/CapSense_1.c ****         *CapSense_1_prtSelTbl[CapSense_1_SHIELD_PORT_NUMBER] = newRegisterValue;
 1481              		.loc 1 1262 0
 1482 0040 044B     		ldr	r3, .L77+4
 1483 0042 7A68     		ldr	r2, [r7, #4]
 1484 0044 1A60     		str	r2, [r3]
1263:Generated_Source\PSoC4/CapSense_1.c ****     #endif /* (0u != CapSense_1_IS_SHIELD_ENABLE) */
1264:Generated_Source\PSoC4/CapSense_1.c **** }
 1485              		.loc 1 1264 0
 1486 0046 C046     		nop
 1487 0048 BD46     		mov	sp, r7
 1488 004a 02B0     		add	sp, sp, #8
 1489              		@ sp needed
 1490 004c 80BD     		pop	{r7, pc}
 1491              	.L78:
 1492 004e C046     		.align	2
 1493              	.L77:
 1494 0050 00040240 		.word	1073873920
 1495 0054 00030240 		.word	1073873664
 1496              		.cfi_endproc
 1497              	.LFE51:
 1498              		.size	CapSense_1_RestoreDriveModeAllPins, .-CapSense_1_RestoreDriveModeAllPins
 1499              		.section	.text.CapSense_1_SetPinDriveMode,"ax",%progbits
 1500              		.align	2
 1501              		.global	CapSense_1_SetPinDriveMode
 1502              		.code	16
 1503              		.thumb_func
 1504              		.type	CapSense_1_SetPinDriveMode, %function
 1505              	CapSense_1_SetPinDriveMode:
 1506              	.LFB52:
1265:Generated_Source\PSoC4/CapSense_1.c **** 
1266:Generated_Source\PSoC4/CapSense_1.c **** 
1267:Generated_Source\PSoC4/CapSense_1.c **** /*******************************************************************************
1268:Generated_Source\PSoC4/CapSense_1.c **** * Function Name: CapSense_1_SetPinDriveMode
1269:Generated_Source\PSoC4/CapSense_1.c **** ********************************************************************************
1270:Generated_Source\PSoC4/CapSense_1.c **** *
1271:Generated_Source\PSoC4/CapSense_1.c **** * Summary:
1272:Generated_Source\PSoC4/CapSense_1.c **** * This API sets the drive mode for the appropriate port/pin.
1273:Generated_Source\PSoC4/CapSense_1.c **** *
1274:Generated_Source\PSoC4/CapSense_1.c **** * Parameters:
1275:Generated_Source\PSoC4/CapSense_1.c **** *  driveMode:  Drive mode definition.
ARM GAS  C:\Users\d4hhm\AppData\Local\Temp\ccLEMF4D.s 			page 50


1276:Generated_Source\PSoC4/CapSense_1.c **** *  portNumber: contains port number (0, 1, 2).
1277:Generated_Source\PSoC4/CapSense_1.c **** *  pinNumber: contains pin number (0, 1, 2, ... , 7).
1278:Generated_Source\PSoC4/CapSense_1.c **** *
1279:Generated_Source\PSoC4/CapSense_1.c **** * Return:
1280:Generated_Source\PSoC4/CapSense_1.c **** *  None
1281:Generated_Source\PSoC4/CapSense_1.c **** *
1282:Generated_Source\PSoC4/CapSense_1.c **** * Global Variables:
1283:Generated_Source\PSoC4/CapSense_1.c **** *  CapSense_1_prtSelTbl[] - Contains pointers to the HSIOM
1284:Generated_Source\PSoC4/CapSense_1.c **** *  registers for each port.
1285:Generated_Source\PSoC4/CapSense_1.c **** *  CapSense_1_prtCfgTb[] - Contains pointers to the port config
1286:Generated_Source\PSoC4/CapSense_1.c **** *  registers for each port.
1287:Generated_Source\PSoC4/CapSense_1.c **** *
1288:Generated_Source\PSoC4/CapSense_1.c **** * Side Effects:
1289:Generated_Source\PSoC4/CapSense_1.c **** *  This API is called only after CapSense component is stopped.
1290:Generated_Source\PSoC4/CapSense_1.c **** *
1291:Generated_Source\PSoC4/CapSense_1.c **** *******************************************************************************/
1292:Generated_Source\PSoC4/CapSense_1.c **** void CapSense_1_SetPinDriveMode(uint32 driveMode, uint32 pinNumber, uint32 portNumber)
1293:Generated_Source\PSoC4/CapSense_1.c **** {
 1507              		.loc 1 1293 0
 1508              		.cfi_startproc
 1509              		@ args = 0, pretend = 0, frame = 24
 1510              		@ frame_needed = 1, uses_anonymous_args = 0
 1511 0000 80B5     		push	{r7, lr}
 1512              		.cfi_def_cfa_offset 8
 1513              		.cfi_offset 7, -8
 1514              		.cfi_offset 14, -4
 1515 0002 86B0     		sub	sp, sp, #24
 1516              		.cfi_def_cfa_offset 32
 1517 0004 00AF     		add	r7, sp, #0
 1518              		.cfi_def_cfa_register 7
 1519 0006 F860     		str	r0, [r7, #12]
 1520 0008 B960     		str	r1, [r7, #8]
 1521 000a 7A60     		str	r2, [r7, #4]
1294:Generated_Source\PSoC4/CapSense_1.c ****     uint32  pinModeShift;
1295:Generated_Source\PSoC4/CapSense_1.c ****     uint32 newRegisterValue;
1296:Generated_Source\PSoC4/CapSense_1.c **** 
1297:Generated_Source\PSoC4/CapSense_1.c ****     pinModeShift  = pinNumber * CapSense_1_PC_PIN_CFG_SIZE;
 1522              		.loc 1 1297 0
 1523 000c BA68     		ldr	r2, [r7, #8]
 1524 000e 1300     		movs	r3, r2
 1525 0010 5B00     		lsls	r3, r3, #1
 1526 0012 9B18     		adds	r3, r3, r2
 1527 0014 7B61     		str	r3, [r7, #20]
1298:Generated_Source\PSoC4/CapSense_1.c **** 
1299:Generated_Source\PSoC4/CapSense_1.c ****     newRegisterValue = *CapSense_1_prtCfgTbl[portNumber];
 1528              		.loc 1 1299 0
 1529 0016 0F4B     		ldr	r3, .L80
 1530 0018 7A68     		ldr	r2, [r7, #4]
 1531 001a 9200     		lsls	r2, r2, #2
 1532 001c D358     		ldr	r3, [r2, r3]
 1533 001e 1B68     		ldr	r3, [r3]
 1534 0020 3B61     		str	r3, [r7, #16]
1300:Generated_Source\PSoC4/CapSense_1.c ****     newRegisterValue &= ~(CapSense_1_CSD_PIN_MODE_MASK << pinModeShift);
 1535              		.loc 1 1300 0
 1536 0022 0722     		movs	r2, #7
 1537 0024 7B69     		ldr	r3, [r7, #20]
 1538 0026 9A40     		lsls	r2, r2, r3
ARM GAS  C:\Users\d4hhm\AppData\Local\Temp\ccLEMF4D.s 			page 51


 1539 0028 1300     		movs	r3, r2
 1540 002a DA43     		mvns	r2, r3
 1541 002c 3B69     		ldr	r3, [r7, #16]
 1542 002e 1340     		ands	r3, r2
 1543 0030 3B61     		str	r3, [r7, #16]
1301:Generated_Source\PSoC4/CapSense_1.c ****     newRegisterValue |=  (uint32)((uint32)driveMode << pinModeShift);
 1544              		.loc 1 1301 0
 1545 0032 FA68     		ldr	r2, [r7, #12]
 1546 0034 7B69     		ldr	r3, [r7, #20]
 1547 0036 9A40     		lsls	r2, r2, r3
 1548 0038 1300     		movs	r3, r2
 1549 003a 3A69     		ldr	r2, [r7, #16]
 1550 003c 1343     		orrs	r3, r2
 1551 003e 3B61     		str	r3, [r7, #16]
1302:Generated_Source\PSoC4/CapSense_1.c ****     *CapSense_1_prtCfgTbl[portNumber] =  newRegisterValue;
 1552              		.loc 1 1302 0
 1553 0040 044B     		ldr	r3, .L80
 1554 0042 7A68     		ldr	r2, [r7, #4]
 1555 0044 9200     		lsls	r2, r2, #2
 1556 0046 D358     		ldr	r3, [r2, r3]
 1557 0048 3A69     		ldr	r2, [r7, #16]
 1558 004a 1A60     		str	r2, [r3]
1303:Generated_Source\PSoC4/CapSense_1.c **** }
 1559              		.loc 1 1303 0
 1560 004c C046     		nop
 1561 004e BD46     		mov	sp, r7
 1562 0050 06B0     		add	sp, sp, #24
 1563              		@ sp needed
 1564 0052 80BD     		pop	{r7, pc}
 1565              	.L81:
 1566              		.align	2
 1567              	.L80:
 1568 0054 00000000 		.word	CapSense_1_prtCfgTbl
 1569              		.cfi_endproc
 1570              	.LFE52:
 1571              		.size	CapSense_1_SetPinDriveMode, .-CapSense_1_SetPinDriveMode
 1572              		.section	.text.CapSense_1_PreScan,"ax",%progbits
 1573              		.align	2
 1574              		.global	CapSense_1_PreScan
 1575              		.code	16
 1576              		.thumb_func
 1577              		.type	CapSense_1_PreScan, %function
 1578              	CapSense_1_PreScan:
 1579              	.LFB53:
1304:Generated_Source\PSoC4/CapSense_1.c **** 
1305:Generated_Source\PSoC4/CapSense_1.c **** 
1306:Generated_Source\PSoC4/CapSense_1.c **** /*******************************************************************************
1307:Generated_Source\PSoC4/CapSense_1.c **** * Function Name: CapSense_1_PreScan
1308:Generated_Source\PSoC4/CapSense_1.c **** ********************************************************************************
1309:Generated_Source\PSoC4/CapSense_1.c **** *
1310:Generated_Source\PSoC4/CapSense_1.c **** * Summary:
1311:Generated_Source\PSoC4/CapSense_1.c **** *  Sets required settings, enables a sensor, removes Vref from AMUX and starts the
1312:Generated_Source\PSoC4/CapSense_1.c **** *  scanning process of the sensor.
1313:Generated_Source\PSoC4/CapSense_1.c **** *
1314:Generated_Source\PSoC4/CapSense_1.c **** * Parameters:
1315:Generated_Source\PSoC4/CapSense_1.c **** *  sensor:  Sensor number.
1316:Generated_Source\PSoC4/CapSense_1.c **** *
ARM GAS  C:\Users\d4hhm\AppData\Local\Temp\ccLEMF4D.s 			page 52


1317:Generated_Source\PSoC4/CapSense_1.c **** * Return:
1318:Generated_Source\PSoC4/CapSense_1.c **** *  None
1319:Generated_Source\PSoC4/CapSense_1.c **** *
1320:Generated_Source\PSoC4/CapSense_1.c **** * Global Variables:
1321:Generated_Source\PSoC4/CapSense_1.c **** * CapSense_1_widgetNumber[] - This array contains numbers of widgets for each sensor.
1322:Generated_Source\PSoC4/CapSense_1.c **** * CapSense_1_widgetResolution[] - Contains the widget resolution.
1323:Generated_Source\PSoC4/CapSense_1.c **** *
1324:Generated_Source\PSoC4/CapSense_1.c **** * Side Effects:
1325:Generated_Source\PSoC4/CapSense_1.c **** *  None
1326:Generated_Source\PSoC4/CapSense_1.c **** *
1327:Generated_Source\PSoC4/CapSense_1.c **** *******************************************************************************/
1328:Generated_Source\PSoC4/CapSense_1.c **** void CapSense_1_PreScan(uint32 sensor)
1329:Generated_Source\PSoC4/CapSense_1.c **** {
 1580              		.loc 1 1329 0
 1581              		.cfi_startproc
 1582              		@ args = 0, pretend = 0, frame = 24
 1583              		@ frame_needed = 1, uses_anonymous_args = 0
 1584 0000 90B5     		push	{r4, r7, lr}
 1585              		.cfi_def_cfa_offset 12
 1586              		.cfi_offset 4, -12
 1587              		.cfi_offset 7, -8
 1588              		.cfi_offset 14, -4
 1589 0002 87B0     		sub	sp, sp, #28
 1590              		.cfi_def_cfa_offset 40
 1591 0004 00AF     		add	r7, sp, #0
 1592              		.cfi_def_cfa_register 7
 1593 0006 7860     		str	r0, [r7, #4]
1330:Generated_Source\PSoC4/CapSense_1.c ****     uint8 widget;
1331:Generated_Source\PSoC4/CapSense_1.c ****     uint8 interruptState;
1332:Generated_Source\PSoC4/CapSense_1.c ****     uint32 newRegValue;
1333:Generated_Source\PSoC4/CapSense_1.c ****     uint32 counterResolution;
1334:Generated_Source\PSoC4/CapSense_1.c **** 
1335:Generated_Source\PSoC4/CapSense_1.c ****     #if(CapSense_1_PRS_OPTIONS == CapSense_1__PRS_AUTO)
1336:Generated_Source\PSoC4/CapSense_1.c ****         uint8 senseClkDivMath;
1337:Generated_Source\PSoC4/CapSense_1.c ****         uint8 sampleClkDivMath;
1338:Generated_Source\PSoC4/CapSense_1.c ****     #endif /* (CapSense_1_PRS_OPTIONS == CapSense_1__PRS_AUTO) */
1339:Generated_Source\PSoC4/CapSense_1.c **** 
1340:Generated_Source\PSoC4/CapSense_1.c ****     #if ((CapSense_1_TUNING_METHOD == CapSense_1__TUNING_AUTO) &&\
1341:Generated_Source\PSoC4/CapSense_1.c ****          (0 != CapSense_1_IS_OVERSAMPLING_EN))
1342:Generated_Source\PSoC4/CapSense_1.c ****         uint32 oversamplingFactor;
1343:Generated_Source\PSoC4/CapSense_1.c ****     #endif /* ((CapSense_1_TUNING_METHOD == CapSense_1__TUNING_AUTO) &&\
1344:Generated_Source\PSoC4/CapSense_1.c ****                (0 != CapSense_1_IS_OVERSAMPLING_EN)) */
1345:Generated_Source\PSoC4/CapSense_1.c **** 
1346:Generated_Source\PSoC4/CapSense_1.c ****     /* Define widget sensor belongs to */
1347:Generated_Source\PSoC4/CapSense_1.c ****     widget = CapSense_1_widgetNumber[sensor];
 1594              		.loc 1 1347 0
 1595 0008 1723     		movs	r3, #23
 1596 000a FB18     		adds	r3, r7, r3
 1597 000c 0022     		movs	r2, #0
 1598 000e 1A70     		strb	r2, [r3]
1348:Generated_Source\PSoC4/CapSense_1.c **** 
1349:Generated_Source\PSoC4/CapSense_1.c ****     /* Recalculate Counter Resolution to MSB 16 bits */
1350:Generated_Source\PSoC4/CapSense_1.c ****     counterResolution = CapSense_1_widgetResolution[widget];
 1599              		.loc 1 1350 0
 1600 0010 384B     		ldr	r3, .L84
 1601 0012 3B61     		str	r3, [r7, #16]
1351:Generated_Source\PSoC4/CapSense_1.c **** 
ARM GAS  C:\Users\d4hhm\AppData\Local\Temp\ccLEMF4D.s 			page 53


1352:Generated_Source\PSoC4/CapSense_1.c ****     #if ((CapSense_1_TUNING_METHOD == CapSense_1__TUNING_AUTO) &&\
1353:Generated_Source\PSoC4/CapSense_1.c ****          (0 != CapSense_1_IS_OVERSAMPLING_EN))
1354:Generated_Source\PSoC4/CapSense_1.c ****         oversamplingFactor = CapSense_1_GetBitValue(CapSense_1_scanSpeedTbl, sensor);
1355:Generated_Source\PSoC4/CapSense_1.c **** 
1356:Generated_Source\PSoC4/CapSense_1.c ****         if(counterResolution < CapSense_1_RESOLUTION_16_BITS)
1357:Generated_Source\PSoC4/CapSense_1.c ****         {
1358:Generated_Source\PSoC4/CapSense_1.c ****             counterResolution <<= oversamplingFactor;
1359:Generated_Source\PSoC4/CapSense_1.c ****             counterResolution |= (uint32)(CapSense_1_RESOLUTION_8_BITS);
1360:Generated_Source\PSoC4/CapSense_1.c ****         }
1361:Generated_Source\PSoC4/CapSense_1.c ****     #endif /* ((CapSense_1_TUNING_METHOD == CapSense_1__TUNING_AUTO) &&\
1362:Generated_Source\PSoC4/CapSense_1.c ****                (0 != CapSense_1_IS_OVERSAMPLING_EN)) */
1363:Generated_Source\PSoC4/CapSense_1.c **** 
1364:Generated_Source\PSoC4/CapSense_1.c ****     #if (0u != CapSense_1_IS_M0S8PERI_BLOCK)
1365:Generated_Source\PSoC4/CapSense_1.c ****         CapSense_1_SenseClk_Stop();
 1602              		.loc 1 1365 0
 1603 0014 FFF7FEFF 		bl	CapSense_1_SenseClk_Stop
1366:Generated_Source\PSoC4/CapSense_1.c ****         CapSense_1_SampleClk_Stop();
 1604              		.loc 1 1366 0
 1605 0018 FFF7FEFF 		bl	CapSense_1_SampleClk_Stop
1367:Generated_Source\PSoC4/CapSense_1.c ****     #endif /* (0u != CapSense_1_IS_M0S8PERI_BLOCK) */
1368:Generated_Source\PSoC4/CapSense_1.c **** 
1369:Generated_Source\PSoC4/CapSense_1.c ****     #if (0u != CapSense_1_MULTIPLE_FREQUENCY_SET)
1370:Generated_Source\PSoC4/CapSense_1.c ****         CapSense_1_SampleClk_SetDividerValue((uint16)CapSense_1_sampleClkDividerVal[sensor]);
 1606              		.loc 1 1370 0
 1607 001c 0223     		movs	r3, #2
 1608 001e 9BB2     		uxth	r3, r3
 1609 0020 013B     		subs	r3, r3, #1
 1610 0022 9BB2     		uxth	r3, r3
 1611 0024 0021     		movs	r1, #0
 1612 0026 1800     		movs	r0, r3
 1613 0028 FFF7FEFF 		bl	CapSense_1_SampleClk_SetFractionalDividerRegister
1371:Generated_Source\PSoC4/CapSense_1.c ****         CapSense_1_SenseClk_SetDividerValue((uint16)CapSense_1_senseClkDividerVal[sensor]);
 1614              		.loc 1 1371 0
 1615 002c 0223     		movs	r3, #2
 1616 002e 9BB2     		uxth	r3, r3
 1617 0030 013B     		subs	r3, r3, #1
 1618 0032 9BB2     		uxth	r3, r3
 1619 0034 0021     		movs	r1, #0
 1620 0036 1800     		movs	r0, r3
 1621 0038 FFF7FEFF 		bl	CapSense_1_SenseClk_SetFractionalDividerRegister
1372:Generated_Source\PSoC4/CapSense_1.c ****     #else
1373:Generated_Source\PSoC4/CapSense_1.c ****         CapSense_1_SampleClk_SetDividerValue((uint16)CapSense_1_sampleClkDividerVal);
1374:Generated_Source\PSoC4/CapSense_1.c ****         CapSense_1_SenseClk_SetDividerValue((uint16)CapSense_1_senseClkDividerVal);
1375:Generated_Source\PSoC4/CapSense_1.c ****     #endif /* (0u != CapSense_1_MULTIPLE_FREQUENCY_SET) */
1376:Generated_Source\PSoC4/CapSense_1.c **** 
1377:Generated_Source\PSoC4/CapSense_1.c ****     #if (0u != CapSense_1_IS_M0S8PERI_BLOCK)
1378:Generated_Source\PSoC4/CapSense_1.c ****         CapSense_1_SampleClk_Start();
 1622              		.loc 1 1378 0
 1623 003c FF20     		movs	r0, #255
 1624 003e FFF7FEFF 		bl	CapSense_1_SampleClk_StartEx
1379:Generated_Source\PSoC4/CapSense_1.c ****         CapSense_1_SenseClk_StartEx(CapSense_1_SampleClk__DIV_ID);
 1625              		.loc 1 1379 0
 1626 0042 4020     		movs	r0, #64
 1627 0044 FFF7FEFF 		bl	CapSense_1_SenseClk_StartEx
1380:Generated_Source\PSoC4/CapSense_1.c **** 
1381:Generated_Source\PSoC4/CapSense_1.c ****         #if(CapSense_1_PRS_OPTIONS == CapSense_1__PRS_NONE)
1382:Generated_Source\PSoC4/CapSense_1.c ****             CyIntDisable(CapSense_1_ISR_NUMBER);
ARM GAS  C:\Users\d4hhm\AppData\Local\Temp\ccLEMF4D.s 			page 54


 1628              		.loc 1 1382 0
 1629 0048 1020     		movs	r0, #16
 1630 004a FFF7FEFF 		bl	CyIntDisable
1383:Generated_Source\PSoC4/CapSense_1.c ****             CapSense_1_CSD_CNT_REG = CapSense_1_ONE_CYCLE;
 1631              		.loc 1 1383 0
 1632 004e 2A4B     		ldr	r3, .L84+4
 1633 0050 8022     		movs	r2, #128
 1634 0052 5202     		lsls	r2, r2, #9
 1635 0054 1A60     		str	r2, [r3]
1384:Generated_Source\PSoC4/CapSense_1.c ****             while(0u != (CapSense_1_CSD_CNT_REG & CapSense_1_RESOLUTION_16_BITS))
 1636              		.loc 1 1384 0
 1637 0056 C046     		nop
 1638              	.L83:
 1639              		.loc 1 1384 0 is_stmt 0 discriminator 1
 1640 0058 274B     		ldr	r3, .L84+4
 1641 005a 1B68     		ldr	r3, [r3]
 1642 005c 1B0C     		lsrs	r3, r3, #16
 1643 005e 1B04     		lsls	r3, r3, #16
 1644 0060 FAD1     		bne	.L83
1385:Generated_Source\PSoC4/CapSense_1.c ****             {
1386:Generated_Source\PSoC4/CapSense_1.c ****             /* Wait until scanning is complete */
1387:Generated_Source\PSoC4/CapSense_1.c ****             }
1388:Generated_Source\PSoC4/CapSense_1.c ****             CapSense_1_CSD_INTR_REG = 1u;
 1645              		.loc 1 1388 0 is_stmt 1
 1646 0062 264B     		ldr	r3, .L84+8
 1647 0064 0122     		movs	r2, #1
 1648 0066 1A60     		str	r2, [r3]
1389:Generated_Source\PSoC4/CapSense_1.c ****             CyIntClearPending(CapSense_1_ISR_NUMBER);
 1649              		.loc 1 1389 0
 1650 0068 1020     		movs	r0, #16
 1651 006a FFF7FEFF 		bl	CyIntClearPending
1390:Generated_Source\PSoC4/CapSense_1.c ****             CyIntEnable(CapSense_1_ISR_NUMBER);
 1652              		.loc 1 1390 0
 1653 006e 1020     		movs	r0, #16
 1654 0070 FFF7FEFF 		bl	CyIntEnable
1391:Generated_Source\PSoC4/CapSense_1.c ****         #endif /* CapSense_1_PRS_OPTIONS == CapSense_1__PRS_NONE */
1392:Generated_Source\PSoC4/CapSense_1.c ****     #endif /* (0u != CapSense_1_IS_M0S8PERI_BLOCK) */
1393:Generated_Source\PSoC4/CapSense_1.c **** 
1394:Generated_Source\PSoC4/CapSense_1.c **** #if(CapSense_1_PRS_OPTIONS != CapSense_1__PRS_NONE)
1395:Generated_Source\PSoC4/CapSense_1.c **** 
1396:Generated_Source\PSoC4/CapSense_1.c ****     #if(CapSense_1_TUNING_METHOD == CapSense_1__TUNING_AUTO)
1397:Generated_Source\PSoC4/CapSense_1.c ****         if(CapSense_1_prescalersTuningDone != 0u)
1398:Generated_Source\PSoC4/CapSense_1.c ****         {
1399:Generated_Source\PSoC4/CapSense_1.c ****     #endif /* (CapSense_1_TUNING_METHOD == CapSense_1__TUNING_AUTO) */
1400:Generated_Source\PSoC4/CapSense_1.c **** 
1401:Generated_Source\PSoC4/CapSense_1.c ****             CyIntDisable(CapSense_1_ISR_NUMBER);
1402:Generated_Source\PSoC4/CapSense_1.c **** 
1403:Generated_Source\PSoC4/CapSense_1.c ****             newRegValue = CapSense_1_CSD_CFG_REG;
1404:Generated_Source\PSoC4/CapSense_1.c ****             newRegValue |= CapSense_1_CSD_CFG_PRS_SELECT;
1405:Generated_Source\PSoC4/CapSense_1.c **** 
1406:Generated_Source\PSoC4/CapSense_1.c ****             #if(CapSense_1_PRS_OPTIONS == CapSense_1__PRS_AUTO)
1407:Generated_Source\PSoC4/CapSense_1.c **** 
1408:Generated_Source\PSoC4/CapSense_1.c ****                 newRegValue &= ~(CapSense_1_PRS_MODE_MASK);
1409:Generated_Source\PSoC4/CapSense_1.c **** 
1410:Generated_Source\PSoC4/CapSense_1.c ****                 #if (0u != CapSense_1_MULTIPLE_FREQUENCY_SET)
1411:Generated_Source\PSoC4/CapSense_1.c ****                     senseClkDivMath = CapSense_1_senseClkDividerVal[sensor];
1412:Generated_Source\PSoC4/CapSense_1.c ****                     sampleClkDivMath = CapSense_1_sampleClkDividerVal[sensor];
ARM GAS  C:\Users\d4hhm\AppData\Local\Temp\ccLEMF4D.s 			page 55


1413:Generated_Source\PSoC4/CapSense_1.c ****                 #else
1414:Generated_Source\PSoC4/CapSense_1.c ****                     senseClkDivMath = CapSense_1_senseClkDividerVal;
1415:Generated_Source\PSoC4/CapSense_1.c ****                     sampleClkDivMath = CapSense_1_sampleClkDividerVal;
1416:Generated_Source\PSoC4/CapSense_1.c ****                 #endif /* ( CapSense_1_MULTIPLE_FREQUENCY_SET) */
1417:Generated_Source\PSoC4/CapSense_1.c **** 
1418:Generated_Source\PSoC4/CapSense_1.c ****                 #if(0u == CapSense_1_IS_M0S8PERI_BLOCK)
1419:Generated_Source\PSoC4/CapSense_1.c ****                     senseClkDivMath *= sampleClkDivMath;
1420:Generated_Source\PSoC4/CapSense_1.c ****                 #endif /* (0u == CapSense_1_IS_M0S8PERI_BLOCK) */
1421:Generated_Source\PSoC4/CapSense_1.c **** 
1422:Generated_Source\PSoC4/CapSense_1.c ****                 if((senseClkDivMath * CapSense_1_RESOLUTION_12_BITS) <
1423:Generated_Source\PSoC4/CapSense_1.c ****                    (sampleClkDivMath * CapSense_1_widgetResolution[widget]))
1424:Generated_Source\PSoC4/CapSense_1.c ****                 {
1425:Generated_Source\PSoC4/CapSense_1.c ****                     newRegValue |= CapSense_1_CSD_PRS_12_BIT;
1426:Generated_Source\PSoC4/CapSense_1.c ****                 }
1427:Generated_Source\PSoC4/CapSense_1.c ****             #endif /* (CapSense_1_PRS_OPTIONS == CapSense_1__PRS_AUTO) */
1428:Generated_Source\PSoC4/CapSense_1.c **** 
1429:Generated_Source\PSoC4/CapSense_1.c ****             CapSense_1_CSD_CFG_REG = newRegValue;
1430:Generated_Source\PSoC4/CapSense_1.c **** 
1431:Generated_Source\PSoC4/CapSense_1.c ****             CyIntEnable(CapSense_1_ISR_NUMBER);
1432:Generated_Source\PSoC4/CapSense_1.c **** 
1433:Generated_Source\PSoC4/CapSense_1.c ****     #if(CapSense_1_TUNING_METHOD == CapSense_1__TUNING_AUTO)
1434:Generated_Source\PSoC4/CapSense_1.c ****         }
1435:Generated_Source\PSoC4/CapSense_1.c ****     #endif /* (CapSense_1_PRS_OPTIONS != CapSense_1__PRS_NONE) */
1436:Generated_Source\PSoC4/CapSense_1.c **** 
1437:Generated_Source\PSoC4/CapSense_1.c **** #endif /* (CapSense_1_PRS_OPTIONS == CapSense_1__PRS_NONE) */
1438:Generated_Source\PSoC4/CapSense_1.c **** 
1439:Generated_Source\PSoC4/CapSense_1.c ****     /* Set Idac Value */
1440:Generated_Source\PSoC4/CapSense_1.c ****     CyIntDisable(CapSense_1_ISR_NUMBER);
 1655              		.loc 1 1440 0
 1656 0074 1020     		movs	r0, #16
 1657 0076 FFF7FEFF 		bl	CyIntDisable
1441:Generated_Source\PSoC4/CapSense_1.c ****     newRegValue = CapSense_1_CSD_IDAC_REG;
 1658              		.loc 1 1441 0
 1659 007a 214B     		ldr	r3, .L84+12
 1660 007c 1B68     		ldr	r3, [r3]
 1661 007e FB60     		str	r3, [r7, #12]
1442:Generated_Source\PSoC4/CapSense_1.c **** 
1443:Generated_Source\PSoC4/CapSense_1.c **** #if (CapSense_1_IDAC_CNT == 1u)
1444:Generated_Source\PSoC4/CapSense_1.c ****     newRegValue &= ~(CapSense_1_CSD_IDAC1_DATA_MASK);
1445:Generated_Source\PSoC4/CapSense_1.c ****     newRegValue |= CapSense_1_modulationIDAC[sensor];
1446:Generated_Source\PSoC4/CapSense_1.c **** #else
1447:Generated_Source\PSoC4/CapSense_1.c ****     newRegValue &= ~(CapSense_1_CSD_IDAC1_DATA_MASK | CapSense_1_CSD_IDAC2_DATA_MASK);
 1662              		.loc 1 1447 0
 1663 0080 FB68     		ldr	r3, [r7, #12]
 1664 0082 204A     		ldr	r2, .L84+16
 1665 0084 1340     		ands	r3, r2
 1666 0086 FB60     		str	r3, [r7, #12]
1448:Generated_Source\PSoC4/CapSense_1.c ****     newRegValue |= (CapSense_1_modulationIDAC[sensor] |
 1667              		.loc 1 1448 0
 1668 0088 5023     		movs	r3, #80
 1669 008a 1A00     		movs	r2, r3
1449:Generated_Source\PSoC4/CapSense_1.c ****                             (uint32)((uint32)CapSense_1_compensationIDAC[sensor] <<
 1670              		.loc 1 1449 0
 1671 008c 5023     		movs	r3, #80
 1672 008e 1B04     		lsls	r3, r3, #16
1448:Generated_Source\PSoC4/CapSense_1.c ****     newRegValue |= (CapSense_1_modulationIDAC[sensor] |
 1673              		.loc 1 1448 0
ARM GAS  C:\Users\d4hhm\AppData\Local\Temp\ccLEMF4D.s 			page 56


 1674 0090 1343     		orrs	r3, r2
 1675 0092 FA68     		ldr	r2, [r7, #12]
 1676 0094 1343     		orrs	r3, r2
 1677 0096 FB60     		str	r3, [r7, #12]
1450:Generated_Source\PSoC4/CapSense_1.c ****                             CapSense_1_CSD_IDAC2_DATA_OFFSET));
1451:Generated_Source\PSoC4/CapSense_1.c **** #endif /* (CapSense_1_IDAC_CNT == 1u) */
1452:Generated_Source\PSoC4/CapSense_1.c **** 
1453:Generated_Source\PSoC4/CapSense_1.c ****     CapSense_1_CSD_IDAC_REG = newRegValue;
 1678              		.loc 1 1453 0
 1679 0098 194B     		ldr	r3, .L84+12
 1680 009a FA68     		ldr	r2, [r7, #12]
 1681 009c 1A60     		str	r2, [r3]
1454:Generated_Source\PSoC4/CapSense_1.c **** 
1455:Generated_Source\PSoC4/CapSense_1.c **** #if(CapSense_1_CMOD_PREGARGE_OPTION == CapSense_1__CAPPRIOBUF)
1456:Generated_Source\PSoC4/CapSense_1.c ****     newRegValue = CapSense_1_CMOD_CONNECTION_REG;
1457:Generated_Source\PSoC4/CapSense_1.c ****     newRegValue &= ~(CapSense_1_CSD_CMOD_CONNECTION_MASK);
1458:Generated_Source\PSoC4/CapSense_1.c ****     newRegValue |= CapSense_1_CSD_CMOD_TO_AMUXBUS_A;
1459:Generated_Source\PSoC4/CapSense_1.c ****     CapSense_1_CMOD_CONNECTION_REG = newRegValue;
1460:Generated_Source\PSoC4/CapSense_1.c **** 
1461:Generated_Source\PSoC4/CapSense_1.c ****     newRegValue = CapSense_1_CMOD_PORT_PC_REG;
1462:Generated_Source\PSoC4/CapSense_1.c ****     newRegValue &= ~(CapSense_1_CSD_CMOD_PC_MASK);
1463:Generated_Source\PSoC4/CapSense_1.c ****     newRegValue |= CapSense_1_CMOD_PC_HIGH_Z_MODE;
1464:Generated_Source\PSoC4/CapSense_1.c ****     CapSense_1_CMOD_PORT_PC_REG = newRegValue;
1465:Generated_Source\PSoC4/CapSense_1.c **** #endif /* (CapSense_1_CMOD_PREGARGE_OPTION == CapSense_1__CAPPRIOBUF) */
1466:Generated_Source\PSoC4/CapSense_1.c **** 
1467:Generated_Source\PSoC4/CapSense_1.c ****     /* Disconnect Vref Buffer from AMUX */
1468:Generated_Source\PSoC4/CapSense_1.c ****     newRegValue = CapSense_1_CSD_CFG_REG;
 1682              		.loc 1 1468 0
 1683 009e 1A4B     		ldr	r3, .L84+20
 1684 00a0 1B68     		ldr	r3, [r3]
 1685 00a2 FB60     		str	r3, [r7, #12]
1469:Generated_Source\PSoC4/CapSense_1.c ****     newRegValue &= ~(CapSense_1_PRECHARGE_CONFIG_MASK);
 1686              		.loc 1 1469 0
 1687 00a4 FB68     		ldr	r3, [r7, #12]
 1688 00a6 194A     		ldr	r2, .L84+24
 1689 00a8 1340     		ands	r3, r2
 1690 00aa FB60     		str	r3, [r7, #12]
1470:Generated_Source\PSoC4/CapSense_1.c ****     newRegValue |= CapSense_1_CTANK_PRECHARGE_CONFIG;
 1691              		.loc 1 1470 0
 1692 00ac FB68     		ldr	r3, [r7, #12]
 1693 00ae 184A     		ldr	r2, .L84+28
 1694 00b0 1343     		orrs	r3, r2
 1695 00b2 FB60     		str	r3, [r7, #12]
1471:Generated_Source\PSoC4/CapSense_1.c **** 
1472:Generated_Source\PSoC4/CapSense_1.c ****     CyIntEnable(CapSense_1_ISR_NUMBER);
 1696              		.loc 1 1472 0
 1697 00b4 1020     		movs	r0, #16
 1698 00b6 FFF7FEFF 		bl	CyIntEnable
1473:Generated_Source\PSoC4/CapSense_1.c **** 
1474:Generated_Source\PSoC4/CapSense_1.c ****     /* Enable Sensor */
1475:Generated_Source\PSoC4/CapSense_1.c ****     CapSense_1_EnableScanSlot(sensor);
 1699              		.loc 1 1475 0
 1700 00ba 7B68     		ldr	r3, [r7, #4]
 1701 00bc 1800     		movs	r0, r3
 1702 00be FFF7FEFF 		bl	CapSense_1_EnableSensor
1476:Generated_Source\PSoC4/CapSense_1.c **** 
1477:Generated_Source\PSoC4/CapSense_1.c ****     interruptState = CyEnterCriticalSection();
ARM GAS  C:\Users\d4hhm\AppData\Local\Temp\ccLEMF4D.s 			page 57


 1703              		.loc 1 1477 0
 1704 00c2 0B23     		movs	r3, #11
 1705 00c4 FC18     		adds	r4, r7, r3
 1706 00c6 FFF7FEFF 		bl	CyEnterCriticalSection
 1707 00ca 0300     		movs	r3, r0
 1708 00cc 2370     		strb	r3, [r4]
1478:Generated_Source\PSoC4/CapSense_1.c ****     CapSense_1_CSD_CFG_REG = newRegValue;
 1709              		.loc 1 1478 0
 1710 00ce 0E4B     		ldr	r3, .L84+20
 1711 00d0 FA68     		ldr	r2, [r7, #12]
 1712 00d2 1A60     		str	r2, [r3]
1479:Generated_Source\PSoC4/CapSense_1.c **** 
1480:Generated_Source\PSoC4/CapSense_1.c ****     /* `#START CapSense_1_PreSettlingDelay_Debug` */
1481:Generated_Source\PSoC4/CapSense_1.c **** 
1482:Generated_Source\PSoC4/CapSense_1.c ****     /* `#END` */
1483:Generated_Source\PSoC4/CapSense_1.c **** 
1484:Generated_Source\PSoC4/CapSense_1.c **** #ifdef CapSense_1_PRE_SCAN_PRE_SETTLING_DELAY_DEBUG_CALLBACK
1485:Generated_Source\PSoC4/CapSense_1.c ****     CapSense_1_PreScan_Pre_SettlingDelay_Debug_Callback();
1486:Generated_Source\PSoC4/CapSense_1.c **** #endif /* CapSense_1_PRE_SCAN_PRE_SETTLING_DELAY_DEBUG_CALLBACK */
1487:Generated_Source\PSoC4/CapSense_1.c **** 
1488:Generated_Source\PSoC4/CapSense_1.c ****     CyDelayCycles(CapSense_1_GLITCH_ELIMINATION_CYCLES);
 1713              		.loc 1 1488 0
 1714 00d4 0020     		movs	r0, #0
 1715 00d6 FFF7FEFF 		bl	CyDelayCycles
1489:Generated_Source\PSoC4/CapSense_1.c **** 
1490:Generated_Source\PSoC4/CapSense_1.c ****     /* `#START CapSense_1_PreScan_Debug` */
1491:Generated_Source\PSoC4/CapSense_1.c **** 
1492:Generated_Source\PSoC4/CapSense_1.c ****     /* `#END` */
1493:Generated_Source\PSoC4/CapSense_1.c **** 
1494:Generated_Source\PSoC4/CapSense_1.c **** #ifdef CapSense_1_PRE_SCAN_DEBUG_CALLBACK
1495:Generated_Source\PSoC4/CapSense_1.c ****     CapSense_1_PreScan_Debug_Callback();
1496:Generated_Source\PSoC4/CapSense_1.c **** #endif /* CapSense_1_PRE_SCAN_DEBUG_CALLBACK */
1497:Generated_Source\PSoC4/CapSense_1.c **** 
1498:Generated_Source\PSoC4/CapSense_1.c ****     CapSense_1_CSD_CNT_REG = counterResolution;
 1716              		.loc 1 1498 0
 1717 00da 074B     		ldr	r3, .L84+4
 1718 00dc 3A69     		ldr	r2, [r7, #16]
 1719 00de 1A60     		str	r2, [r3]
1499:Generated_Source\PSoC4/CapSense_1.c ****     CyExitCriticalSection(interruptState);
 1720              		.loc 1 1499 0
 1721 00e0 0B23     		movs	r3, #11
 1722 00e2 FB18     		adds	r3, r7, r3
 1723 00e4 1B78     		ldrb	r3, [r3]
 1724 00e6 1800     		movs	r0, r3
 1725 00e8 FFF7FEFF 		bl	CyExitCriticalSection
1500:Generated_Source\PSoC4/CapSense_1.c **** }
 1726              		.loc 1 1500 0
 1727 00ec C046     		nop
 1728 00ee BD46     		mov	sp, r7
 1729 00f0 07B0     		add	sp, sp, #28
 1730              		@ sp needed
 1731 00f2 90BD     		pop	{r4, r7, pc}
 1732              	.L85:
 1733              		.align	2
 1734              	.L84:
 1735 00f4 0000FF03 		.word	67043328
 1736 00f8 0C002840 		.word	1076363276
ARM GAS  C:\Users\d4hhm\AppData\Local\Temp\ccLEMF4D.s 			page 58


 1737 00fc 14002840 		.word	1076363284
 1738 0100 08002840 		.word	1076363272
 1739 0104 00FF80FF 		.word	-8323328
 1740 0108 04002840 		.word	1076363268
 1741 010c FF1FDFFF 		.word	-2154497
 1742 0110 20202000 		.word	2105376
 1743              		.cfi_endproc
 1744              	.LFE53:
 1745              		.size	CapSense_1_PreScan, .-CapSense_1_PreScan
 1746              		.section	.text.CapSense_1_PostScan,"ax",%progbits
 1747              		.align	2
 1748              		.global	CapSense_1_PostScan
 1749              		.code	16
 1750              		.thumb_func
 1751              		.type	CapSense_1_PostScan, %function
 1752              	CapSense_1_PostScan:
 1753              	.LFB54:
1501:Generated_Source\PSoC4/CapSense_1.c **** 
1502:Generated_Source\PSoC4/CapSense_1.c **** 
1503:Generated_Source\PSoC4/CapSense_1.c **** /*******************************************************************************
1504:Generated_Source\PSoC4/CapSense_1.c **** * Function Name: CapSense_1_PostScan
1505:Generated_Source\PSoC4/CapSense_1.c **** ********************************************************************************
1506:Generated_Source\PSoC4/CapSense_1.c **** *
1507:Generated_Source\PSoC4/CapSense_1.c **** * Summary:
1508:Generated_Source\PSoC4/CapSense_1.c **** *  Stores the results of measurement in the CapSense_1_sensorRaw[] array,
1509:Generated_Source\PSoC4/CapSense_1.c **** *  sets the scanning sensor in the non-sampling state, turns off Idac(Current Source IDAC),
1510:Generated_Source\PSoC4/CapSense_1.c **** *  disconnects the IDAC(Sink mode), and applies Vref on AMUX.
1511:Generated_Source\PSoC4/CapSense_1.c **** *
1512:Generated_Source\PSoC4/CapSense_1.c **** * Parameters:
1513:Generated_Source\PSoC4/CapSense_1.c **** *  sensor:  Sensor number.
1514:Generated_Source\PSoC4/CapSense_1.c **** *
1515:Generated_Source\PSoC4/CapSense_1.c **** * Return:
1516:Generated_Source\PSoC4/CapSense_1.c **** *  None
1517:Generated_Source\PSoC4/CapSense_1.c **** *
1518:Generated_Source\PSoC4/CapSense_1.c **** * Global Variables:
1519:Generated_Source\PSoC4/CapSense_1.c **** *  CapSense_1_sensorRaw[] - used to store sensors raw data.
1520:Generated_Source\PSoC4/CapSense_1.c **** *
1521:Generated_Source\PSoC4/CapSense_1.c **** * Side Effects:
1522:Generated_Source\PSoC4/CapSense_1.c **** *  None
1523:Generated_Source\PSoC4/CapSense_1.c **** *
1524:Generated_Source\PSoC4/CapSense_1.c **** *******************************************************************************/
1525:Generated_Source\PSoC4/CapSense_1.c **** void CapSense_1_PostScan(uint32 sensor)
1526:Generated_Source\PSoC4/CapSense_1.c **** {
 1754              		.loc 1 1526 0
 1755              		.cfi_startproc
 1756              		@ args = 0, pretend = 0, frame = 16
 1757              		@ frame_needed = 1, uses_anonymous_args = 0
 1758 0000 80B5     		push	{r7, lr}
 1759              		.cfi_def_cfa_offset 8
 1760              		.cfi_offset 7, -8
 1761              		.cfi_offset 14, -4
 1762 0002 84B0     		sub	sp, sp, #16
 1763              		.cfi_def_cfa_offset 24
 1764 0004 00AF     		add	r7, sp, #0
 1765              		.cfi_def_cfa_register 7
 1766 0006 7860     		str	r0, [r7, #4]
1527:Generated_Source\PSoC4/CapSense_1.c ****     uint32 newRegValue;
ARM GAS  C:\Users\d4hhm\AppData\Local\Temp\ccLEMF4D.s 			page 59


1528:Generated_Source\PSoC4/CapSense_1.c **** #if ((CapSense_1_TUNING_METHOD == CapSense_1__TUNING_AUTO) &&\
1529:Generated_Source\PSoC4/CapSense_1.c ****      (0 != CapSense_1_IS_OVERSAMPLING_EN))
1530:Generated_Source\PSoC4/CapSense_1.c ****     uint32 oversamplingFactor;
1531:Generated_Source\PSoC4/CapSense_1.c ****     uint32 widget;
1532:Generated_Source\PSoC4/CapSense_1.c **** #endif /* ((CapSense_1_TUNING_METHOD == CapSense_1__TUNING_AUTO) &&\
1533:Generated_Source\PSoC4/CapSense_1.c ****            (0 != CapSense_1_IS_OVERSAMPLING_EN)) */
1534:Generated_Source\PSoC4/CapSense_1.c **** 
1535:Generated_Source\PSoC4/CapSense_1.c ****     /* `#START CapSense_1_PostScan_Debug` */
1536:Generated_Source\PSoC4/CapSense_1.c **** 
1537:Generated_Source\PSoC4/CapSense_1.c ****     /* `#END` */
1538:Generated_Source\PSoC4/CapSense_1.c **** 
1539:Generated_Source\PSoC4/CapSense_1.c **** #ifdef CapSense_1_POST_SCAN_DEBUG_CALLBACK
1540:Generated_Source\PSoC4/CapSense_1.c ****     CapSense_1_PostScan_Debug_Callback();
1541:Generated_Source\PSoC4/CapSense_1.c **** #endif /* CapSense_1_POST_SCAN_DEBUG_Callback */
1542:Generated_Source\PSoC4/CapSense_1.c **** 
1543:Generated_Source\PSoC4/CapSense_1.c ****     /* Read SlotResult from Raw Counter */
1544:Generated_Source\PSoC4/CapSense_1.c ****     CapSense_1_sensorRaw[sensor]  = (uint16)CapSense_1_CSD_CNT_REG;
 1767              		.loc 1 1544 0
 1768 0008 144B     		ldr	r3, .L87
 1769 000a 1B68     		ldr	r3, [r3]
 1770 000c 99B2     		uxth	r1, r3
 1771 000e 144B     		ldr	r3, .L87+4
 1772 0010 7A68     		ldr	r2, [r7, #4]
 1773 0012 5200     		lsls	r2, r2, #1
 1774 0014 D152     		strh	r1, [r2, r3]
1545:Generated_Source\PSoC4/CapSense_1.c **** 
1546:Generated_Source\PSoC4/CapSense_1.c **** #if ((CapSense_1_TUNING_METHOD == CapSense_1__TUNING_AUTO) &&\
1547:Generated_Source\PSoC4/CapSense_1.c ****      (0 != CapSense_1_IS_OVERSAMPLING_EN))
1548:Generated_Source\PSoC4/CapSense_1.c ****     widget = CapSense_1_widgetNumber[sensor];
1549:Generated_Source\PSoC4/CapSense_1.c ****     if(CapSense_1_widgetResolution[widget] < CapSense_1_RESOLUTION_16_BITS)
1550:Generated_Source\PSoC4/CapSense_1.c ****     {
1551:Generated_Source\PSoC4/CapSense_1.c ****         oversamplingFactor = CapSense_1_GetBitValue(CapSense_1_scanSpeedTbl, sensor);
1552:Generated_Source\PSoC4/CapSense_1.c ****         CapSense_1_sensorRaw[sensor] >>= oversamplingFactor;
1553:Generated_Source\PSoC4/CapSense_1.c ****     }
1554:Generated_Source\PSoC4/CapSense_1.c **** #endif /* ((CapSense_1_TUNING_METHOD == CapSense_1__TUNING_AUTO) &&\
1555:Generated_Source\PSoC4/CapSense_1.c ****            (0 != CapSense_1_IS_OVERSAMPLING_EN)) */
1556:Generated_Source\PSoC4/CapSense_1.c **** 
1557:Generated_Source\PSoC4/CapSense_1.c ****     /* Disable Sensor */
1558:Generated_Source\PSoC4/CapSense_1.c ****     CapSense_1_DisableScanSlot(sensor);
 1775              		.loc 1 1558 0
 1776 0016 7B68     		ldr	r3, [r7, #4]
 1777 0018 1800     		movs	r0, r3
 1778 001a FFF7FEFF 		bl	CapSense_1_DisableSensor
1559:Generated_Source\PSoC4/CapSense_1.c **** 
1560:Generated_Source\PSoC4/CapSense_1.c ****     CyIntDisable(CapSense_1_ISR_NUMBER);
 1779              		.loc 1 1560 0
 1780 001e 1020     		movs	r0, #16
 1781 0020 FFF7FEFF 		bl	CyIntDisable
1561:Generated_Source\PSoC4/CapSense_1.c **** 
1562:Generated_Source\PSoC4/CapSense_1.c **** #if(CapSense_1_CMOD_PREGARGE_OPTION == CapSense_1__CAPPRIOBUF)
1563:Generated_Source\PSoC4/CapSense_1.c ****     newRegValue = CapSense_1_CMOD_CONNECTION_REG;
1564:Generated_Source\PSoC4/CapSense_1.c ****     newRegValue &= ~(CapSense_1_CSD_CMOD_CONNECTION_MASK);
1565:Generated_Source\PSoC4/CapSense_1.c ****     newRegValue |= CapSense_1_CSD_CMOD_TO_AMUXBUS_B;
1566:Generated_Source\PSoC4/CapSense_1.c ****     CapSense_1_CMOD_CONNECTION_REG = newRegValue;
1567:Generated_Source\PSoC4/CapSense_1.c **** 
1568:Generated_Source\PSoC4/CapSense_1.c ****     newRegValue = CapSense_1_CMOD_PORT_PC_REG;
1569:Generated_Source\PSoC4/CapSense_1.c ****     newRegValue &= ~(CapSense_1_CSD_CMOD_PC_MASK);
ARM GAS  C:\Users\d4hhm\AppData\Local\Temp\ccLEMF4D.s 			page 60


1570:Generated_Source\PSoC4/CapSense_1.c ****     newRegValue |= CapSense_1_CMOD_PC_STRONG_MODE;
1571:Generated_Source\PSoC4/CapSense_1.c ****     CapSense_1_CMOD_PORT_PC_REG = newRegValue;
1572:Generated_Source\PSoC4/CapSense_1.c **** 
1573:Generated_Source\PSoC4/CapSense_1.c ****     newRegValue = CapSense_1_CMOD_PORT_DR_REG;
1574:Generated_Source\PSoC4/CapSense_1.c ****     newRegValue &= ~(CapSense_1_CMOD_DR_MASK);
1575:Generated_Source\PSoC4/CapSense_1.c ****     newRegValue |= CapSense_1_CMOD_DR_CONFIG;
1576:Generated_Source\PSoC4/CapSense_1.c ****     CapSense_1_CMOD_PORT_DR_REG = newRegValue;
1577:Generated_Source\PSoC4/CapSense_1.c **** #endif /* (CapSense_1_CMOD_PREGARGE_OPTION == CapSense_1__CAPPRIOBUF) */
1578:Generated_Source\PSoC4/CapSense_1.c **** 
1579:Generated_Source\PSoC4/CapSense_1.c ****     /* Connect Vref Buffer to AMUX bus  */
1580:Generated_Source\PSoC4/CapSense_1.c ****     newRegValue = CapSense_1_CSD_CFG_REG;
 1782              		.loc 1 1580 0
 1783 0024 0F4B     		ldr	r3, .L87+8
 1784 0026 1B68     		ldr	r3, [r3]
 1785 0028 FB60     		str	r3, [r7, #12]
1581:Generated_Source\PSoC4/CapSense_1.c ****     newRegValue &= ~(CapSense_1_PRECHARGE_CONFIG_MASK);
 1786              		.loc 1 1581 0
 1787 002a FB68     		ldr	r3, [r7, #12]
 1788 002c 0E4A     		ldr	r2, .L87+12
 1789 002e 1340     		ands	r3, r2
 1790 0030 FB60     		str	r3, [r7, #12]
1582:Generated_Source\PSoC4/CapSense_1.c ****     newRegValue |= CapSense_1_CMOD_PRECHARGE_CONFIG;
 1791              		.loc 1 1582 0
 1792 0032 FB68     		ldr	r3, [r7, #12]
 1793 0034 A022     		movs	r2, #160
 1794 0036 1202     		lsls	r2, r2, #8
 1795 0038 1343     		orrs	r3, r2
 1796 003a FB60     		str	r3, [r7, #12]
1583:Generated_Source\PSoC4/CapSense_1.c ****     CapSense_1_CSD_CFG_REG = newRegValue;
 1797              		.loc 1 1583 0
 1798 003c 094B     		ldr	r3, .L87+8
 1799 003e FA68     		ldr	r2, [r7, #12]
 1800 0040 1A60     		str	r2, [r3]
1584:Generated_Source\PSoC4/CapSense_1.c **** 
1585:Generated_Source\PSoC4/CapSense_1.c ****     /* Set Idac Value = 0 */
1586:Generated_Source\PSoC4/CapSense_1.c **** #if (CapSense_1_IDAC_CNT == 1u)
1587:Generated_Source\PSoC4/CapSense_1.c ****     CapSense_1_CSD_IDAC_REG &= ~(CapSense_1_CSD_IDAC1_DATA_MASK);
1588:Generated_Source\PSoC4/CapSense_1.c **** #else
1589:Generated_Source\PSoC4/CapSense_1.c ****     CapSense_1_CSD_IDAC_REG &= ~(CapSense_1_CSD_IDAC1_DATA_MASK | CapSense_1_CSD_IDAC2_DATA_MASK);
 1801              		.loc 1 1589 0
 1802 0042 0A4B     		ldr	r3, .L87+16
 1803 0044 094A     		ldr	r2, .L87+16
 1804 0046 1268     		ldr	r2, [r2]
 1805 0048 0949     		ldr	r1, .L87+20
 1806 004a 0A40     		ands	r2, r1
 1807 004c 1A60     		str	r2, [r3]
1590:Generated_Source\PSoC4/CapSense_1.c **** #endif /* (CapSense_1_IDAC_CNT == 1u) */
1591:Generated_Source\PSoC4/CapSense_1.c **** 
1592:Generated_Source\PSoC4/CapSense_1.c ****     CyIntEnable(CapSense_1_ISR_NUMBER);
 1808              		.loc 1 1592 0
 1809 004e 1020     		movs	r0, #16
 1810 0050 FFF7FEFF 		bl	CyIntEnable
1593:Generated_Source\PSoC4/CapSense_1.c **** }
 1811              		.loc 1 1593 0
 1812 0054 C046     		nop
 1813 0056 BD46     		mov	sp, r7
 1814 0058 04B0     		add	sp, sp, #16
ARM GAS  C:\Users\d4hhm\AppData\Local\Temp\ccLEMF4D.s 			page 61


 1815              		@ sp needed
 1816 005a 80BD     		pop	{r7, pc}
 1817              	.L88:
 1818              		.align	2
 1819              	.L87:
 1820 005c 0C002840 		.word	1076363276
 1821 0060 00000000 		.word	CapSense_1_sensorRaw
 1822 0064 04002840 		.word	1076363268
 1823 0068 FF1FDFFF 		.word	-2154497
 1824 006c 08002840 		.word	1076363272
 1825 0070 00FF80FF 		.word	-8323328
 1826              		.cfi_endproc
 1827              	.LFE54:
 1828              		.size	CapSense_1_PostScan, .-CapSense_1_PostScan
 1829              		.section	.text.CapSense_1_EnableShieldElectrode,"ax",%progbits
 1830              		.align	2
 1831              		.global	CapSense_1_EnableShieldElectrode
 1832              		.code	16
 1833              		.thumb_func
 1834              		.type	CapSense_1_EnableShieldElectrode, %function
 1835              	CapSense_1_EnableShieldElectrode:
 1836              	.LFB55:
1594:Generated_Source\PSoC4/CapSense_1.c **** 
1595:Generated_Source\PSoC4/CapSense_1.c **** 
1596:Generated_Source\PSoC4/CapSense_1.c **** /*******************************************************************************
1597:Generated_Source\PSoC4/CapSense_1.c **** * Function Name: CapSense_1_EnableShieldElectrode
1598:Generated_Source\PSoC4/CapSense_1.c **** ********************************************************************************
1599:Generated_Source\PSoC4/CapSense_1.c **** *
1600:Generated_Source\PSoC4/CapSense_1.c **** * Summary:
1601:Generated_Source\PSoC4/CapSense_1.c **** *  This API enables or disables the shield electrode on a specified port pin.
1602:Generated_Source\PSoC4/CapSense_1.c **** *
1603:Generated_Source\PSoC4/CapSense_1.c **** * Parameters:
1604:Generated_Source\PSoC4/CapSense_1.c **** *  portNumber: contains the shield electrode port number (0, 1, 2).
1605:Generated_Source\PSoC4/CapSense_1.c **** *  pinNumber: contains the shield electrode pin number (0, 1, 2, ... , 7).
1606:Generated_Source\PSoC4/CapSense_1.c **** *
1607:Generated_Source\PSoC4/CapSense_1.c **** * Return:
1608:Generated_Source\PSoC4/CapSense_1.c **** *  None
1609:Generated_Source\PSoC4/CapSense_1.c **** *
1610:Generated_Source\PSoC4/CapSense_1.c **** * Global Variables:
1611:Generated_Source\PSoC4/CapSense_1.c **** *  CapSense_1_prtCfgTbl[] - Contains pointers to the port config registers for each port.
1612:Generated_Source\PSoC4/CapSense_1.c **** *  CapSense_1_prtSelTbl[] - Contains pointers to the HSIOM registers for each port.
1613:Generated_Source\PSoC4/CapSense_1.c **** *
1614:Generated_Source\PSoC4/CapSense_1.c **** * Side Effects:
1615:Generated_Source\PSoC4/CapSense_1.c **** *  None
1616:Generated_Source\PSoC4/CapSense_1.c **** *
1617:Generated_Source\PSoC4/CapSense_1.c **** *******************************************************************************/
1618:Generated_Source\PSoC4/CapSense_1.c **** void CapSense_1_EnableShieldElectrode(uint32 pinNumber, uint32 portNumber)
1619:Generated_Source\PSoC4/CapSense_1.c **** {
 1837              		.loc 1 1619 0
 1838              		.cfi_startproc
 1839              		@ args = 0, pretend = 0, frame = 16
 1840              		@ frame_needed = 1, uses_anonymous_args = 0
 1841 0000 80B5     		push	{r7, lr}
 1842              		.cfi_def_cfa_offset 8
 1843              		.cfi_offset 7, -8
 1844              		.cfi_offset 14, -4
 1845 0002 84B0     		sub	sp, sp, #16
ARM GAS  C:\Users\d4hhm\AppData\Local\Temp\ccLEMF4D.s 			page 62


 1846              		.cfi_def_cfa_offset 24
 1847 0004 00AF     		add	r7, sp, #0
 1848              		.cfi_def_cfa_register 7
 1849 0006 7860     		str	r0, [r7, #4]
 1850 0008 3960     		str	r1, [r7]
1620:Generated_Source\PSoC4/CapSense_1.c ****     uint32 newRegValue;
1621:Generated_Source\PSoC4/CapSense_1.c **** 
1622:Generated_Source\PSoC4/CapSense_1.c ****     *CapSense_1_prtCfgTbl[portNumber] &= ~(CapSense_1_CSD_PIN_MODE_MASK << (pinNumber * CapSense_1_
 1851              		.loc 1 1622 0
 1852 000a 1A4B     		ldr	r3, .L90
 1853 000c 3A68     		ldr	r2, [r7]
 1854 000e 9200     		lsls	r2, r2, #2
 1855 0010 D258     		ldr	r2, [r2, r3]
 1856 0012 184B     		ldr	r3, .L90
 1857 0014 3968     		ldr	r1, [r7]
 1858 0016 8900     		lsls	r1, r1, #2
 1859 0018 CB58     		ldr	r3, [r1, r3]
 1860 001a 1868     		ldr	r0, [r3]
 1861 001c 7968     		ldr	r1, [r7, #4]
 1862 001e 0B00     		movs	r3, r1
 1863 0020 5B00     		lsls	r3, r3, #1
 1864 0022 5B18     		adds	r3, r3, r1
 1865 0024 0721     		movs	r1, #7
 1866 0026 9940     		lsls	r1, r1, r3
 1867 0028 0B00     		movs	r3, r1
 1868 002a DB43     		mvns	r3, r3
 1869 002c 0340     		ands	r3, r0
 1870 002e 1360     		str	r3, [r2]
1623:Generated_Source\PSoC4/CapSense_1.c ****     newRegValue = *CapSense_1_prtSelTbl[portNumber];
 1871              		.loc 1 1623 0
 1872 0030 114B     		ldr	r3, .L90+4
 1873 0032 3A68     		ldr	r2, [r7]
 1874 0034 9200     		lsls	r2, r2, #2
 1875 0036 D358     		ldr	r3, [r2, r3]
 1876 0038 1B68     		ldr	r3, [r3]
 1877 003a FB60     		str	r3, [r7, #12]
1624:Generated_Source\PSoC4/CapSense_1.c ****     newRegValue &= ~(CapSense_1_CSD_HSIOM_MASK << (pinNumber * CapSense_1_HSIOM_PIN_CFG_SIZE));
 1878              		.loc 1 1624 0
 1879 003c 7B68     		ldr	r3, [r7, #4]
 1880 003e 9B00     		lsls	r3, r3, #2
 1881 0040 0F22     		movs	r2, #15
 1882 0042 9A40     		lsls	r2, r2, r3
 1883 0044 1300     		movs	r3, r2
 1884 0046 DA43     		mvns	r2, r3
 1885 0048 FB68     		ldr	r3, [r7, #12]
 1886 004a 1340     		ands	r3, r2
 1887 004c FB60     		str	r3, [r7, #12]
1625:Generated_Source\PSoC4/CapSense_1.c ****     newRegValue |= (CapSense_1_CSD_SHIELD_PORT_MODE << (pinNumber * CapSense_1_HSIOM_PIN_CFG_SIZE))
 1888              		.loc 1 1625 0
 1889 004e 7B68     		ldr	r3, [r7, #4]
 1890 0050 9B00     		lsls	r3, r3, #2
 1891 0052 0522     		movs	r2, #5
 1892 0054 9A40     		lsls	r2, r2, r3
 1893 0056 1300     		movs	r3, r2
 1894 0058 FA68     		ldr	r2, [r7, #12]
 1895 005a 1343     		orrs	r3, r2
 1896 005c FB60     		str	r3, [r7, #12]
ARM GAS  C:\Users\d4hhm\AppData\Local\Temp\ccLEMF4D.s 			page 63


1626:Generated_Source\PSoC4/CapSense_1.c ****     *CapSense_1_prtSelTbl[portNumber] = newRegValue;
 1897              		.loc 1 1626 0
 1898 005e 064B     		ldr	r3, .L90+4
 1899 0060 3A68     		ldr	r2, [r7]
 1900 0062 9200     		lsls	r2, r2, #2
 1901 0064 D358     		ldr	r3, [r2, r3]
 1902 0066 FA68     		ldr	r2, [r7, #12]
 1903 0068 1A60     		str	r2, [r3]
1627:Generated_Source\PSoC4/CapSense_1.c **** }
 1904              		.loc 1 1627 0
 1905 006a C046     		nop
 1906 006c BD46     		mov	sp, r7
 1907 006e 04B0     		add	sp, sp, #16
 1908              		@ sp needed
 1909 0070 80BD     		pop	{r7, pc}
 1910              	.L91:
 1911 0072 C046     		.align	2
 1912              	.L90:
 1913 0074 00000000 		.word	CapSense_1_prtCfgTbl
 1914 0078 00000000 		.word	CapSense_1_prtSelTbl
 1915              		.cfi_endproc
 1916              	.LFE55:
 1917              		.size	CapSense_1_EnableShieldElectrode, .-CapSense_1_EnableShieldElectrode
 1918              		.section	.text.CapSense_1_SetShieldDelay,"ax",%progbits
 1919              		.align	2
 1920              		.global	CapSense_1_SetShieldDelay
 1921              		.code	16
 1922              		.thumb_func
 1923              		.type	CapSense_1_SetShieldDelay, %function
 1924              	CapSense_1_SetShieldDelay:
 1925              	.LFB56:
1628:Generated_Source\PSoC4/CapSense_1.c **** 
1629:Generated_Source\PSoC4/CapSense_1.c **** 
1630:Generated_Source\PSoC4/CapSense_1.c **** /*******************************************************************************
1631:Generated_Source\PSoC4/CapSense_1.c **** * Function Name: CapSense_1_SetShieldDelay
1632:Generated_Source\PSoC4/CapSense_1.c **** ********************************************************************************
1633:Generated_Source\PSoC4/CapSense_1.c **** *
1634:Generated_Source\PSoC4/CapSense_1.c **** * Summary:
1635:Generated_Source\PSoC4/CapSense_1.c **** *  This API sets a shield delay.
1636:Generated_Source\PSoC4/CapSense_1.c **** *
1637:Generated_Source\PSoC4/CapSense_1.c **** * Parameters:
1638:Generated_Source\PSoC4/CapSense_1.c **** *  delay:  shield delay value:
1639:Generated_Source\PSoC4/CapSense_1.c **** *                               0 - no delay
1640:Generated_Source\PSoC4/CapSense_1.c **** *                               1 - 1 cycle delay
1641:Generated_Source\PSoC4/CapSense_1.c **** *                               2 - 2 cycles delay
1642:Generated_Source\PSoC4/CapSense_1.c **** *
1643:Generated_Source\PSoC4/CapSense_1.c **** * Return:
1644:Generated_Source\PSoC4/CapSense_1.c **** *  None
1645:Generated_Source\PSoC4/CapSense_1.c **** *
1646:Generated_Source\PSoC4/CapSense_1.c **** * Global Variables:
1647:Generated_Source\PSoC4/CapSense_1.c **** *  None
1648:Generated_Source\PSoC4/CapSense_1.c **** *
1649:Generated_Source\PSoC4/CapSense_1.c **** * Side Effects:
1650:Generated_Source\PSoC4/CapSense_1.c **** *  None
1651:Generated_Source\PSoC4/CapSense_1.c **** *
1652:Generated_Source\PSoC4/CapSense_1.c **** *******************************************************************************/
1653:Generated_Source\PSoC4/CapSense_1.c **** void CapSense_1_SetShieldDelay(uint32 delay)
ARM GAS  C:\Users\d4hhm\AppData\Local\Temp\ccLEMF4D.s 			page 64


1654:Generated_Source\PSoC4/CapSense_1.c **** {
 1926              		.loc 1 1654 0
 1927              		.cfi_startproc
 1928              		@ args = 0, pretend = 0, frame = 16
 1929              		@ frame_needed = 1, uses_anonymous_args = 0
 1930 0000 80B5     		push	{r7, lr}
 1931              		.cfi_def_cfa_offset 8
 1932              		.cfi_offset 7, -8
 1933              		.cfi_offset 14, -4
 1934 0002 84B0     		sub	sp, sp, #16
 1935              		.cfi_def_cfa_offset 24
 1936 0004 00AF     		add	r7, sp, #0
 1937              		.cfi_def_cfa_register 7
 1938 0006 7860     		str	r0, [r7, #4]
1655:Generated_Source\PSoC4/CapSense_1.c ****     uint32 newRegValue;
1656:Generated_Source\PSoC4/CapSense_1.c **** 
1657:Generated_Source\PSoC4/CapSense_1.c ****     delay &= 0x03u;
 1939              		.loc 1 1657 0
 1940 0008 7B68     		ldr	r3, [r7, #4]
 1941 000a 0322     		movs	r2, #3
 1942 000c 1340     		ands	r3, r2
 1943 000e 7B60     		str	r3, [r7, #4]
1658:Generated_Source\PSoC4/CapSense_1.c **** 
1659:Generated_Source\PSoC4/CapSense_1.c ****     newRegValue = CapSense_1_CSD_CFG_REG;
 1944              		.loc 1 1659 0
 1945 0010 074B     		ldr	r3, .L93
 1946 0012 1B68     		ldr	r3, [r3]
 1947 0014 FB60     		str	r3, [r7, #12]
1660:Generated_Source\PSoC4/CapSense_1.c ****     newRegValue &= (uint32)(~(uint32)CapSense_1_SHIELD_DELAY);
1661:Generated_Source\PSoC4/CapSense_1.c ****     newRegValue |= (delay << CapSense_1_CSD_CFG_SHIELD_DELAY_POS);
 1948              		.loc 1 1661 0
 1949 0016 7B68     		ldr	r3, [r7, #4]
 1950 0018 5B02     		lsls	r3, r3, #9
 1951 001a FA68     		ldr	r2, [r7, #12]
 1952 001c 1343     		orrs	r3, r2
 1953 001e FB60     		str	r3, [r7, #12]
1662:Generated_Source\PSoC4/CapSense_1.c ****     CapSense_1_CSD_CFG_REG = newRegValue;
 1954              		.loc 1 1662 0
 1955 0020 034B     		ldr	r3, .L93
 1956 0022 FA68     		ldr	r2, [r7, #12]
 1957 0024 1A60     		str	r2, [r3]
1663:Generated_Source\PSoC4/CapSense_1.c **** }
 1958              		.loc 1 1663 0
 1959 0026 C046     		nop
 1960 0028 BD46     		mov	sp, r7
 1961 002a 04B0     		add	sp, sp, #16
 1962              		@ sp needed
 1963 002c 80BD     		pop	{r7, pc}
 1964              	.L94:
 1965 002e C046     		.align	2
 1966              	.L93:
 1967 0030 04002840 		.word	1076363268
 1968              		.cfi_endproc
 1969              	.LFE56:
 1970              		.size	CapSense_1_SetShieldDelay, .-CapSense_1_SetShieldDelay
 1971              		.section	.text.CapSense_1_ReadCurrentScanningSensor,"ax",%progbits
 1972              		.align	2
ARM GAS  C:\Users\d4hhm\AppData\Local\Temp\ccLEMF4D.s 			page 65


 1973              		.global	CapSense_1_ReadCurrentScanningSensor
 1974              		.code	16
 1975              		.thumb_func
 1976              		.type	CapSense_1_ReadCurrentScanningSensor, %function
 1977              	CapSense_1_ReadCurrentScanningSensor:
 1978              	.LFB57:
1664:Generated_Source\PSoC4/CapSense_1.c **** 
1665:Generated_Source\PSoC4/CapSense_1.c **** 
1666:Generated_Source\PSoC4/CapSense_1.c **** /*******************************************************************************
1667:Generated_Source\PSoC4/CapSense_1.c **** * Function Name: CapSense_1_ReadCurrentScanningSensor
1668:Generated_Source\PSoC4/CapSense_1.c **** ********************************************************************************
1669:Generated_Source\PSoC4/CapSense_1.c **** *
1670:Generated_Source\PSoC4/CapSense_1.c **** * Summary:
1671:Generated_Source\PSoC4/CapSense_1.c **** *  This API returns scanning sensor number when sensor scan is in progress.
1672:Generated_Source\PSoC4/CapSense_1.c **** *  When sensor scan is completed the API returns
1673:Generated_Source\PSoC4/CapSense_1.c **** *  $INSTANCE_NAME`_NOT_SENSOR (0xFFFFFFFF) (when no sensor is scanned).
1674:Generated_Source\PSoC4/CapSense_1.c **** *
1675:Generated_Source\PSoC4/CapSense_1.c **** * Parameters:
1676:Generated_Source\PSoC4/CapSense_1.c **** *   None.
1677:Generated_Source\PSoC4/CapSense_1.c **** *
1678:Generated_Source\PSoC4/CapSense_1.c **** * Return:
1679:Generated_Source\PSoC4/CapSense_1.c **** *  Returns Sensor number if sensor is being scanned and
1680:Generated_Source\PSoC4/CapSense_1.c **** *  $INSTANCE_NAME`_NOT_SENSOR (0xFFFFFFFF) if scanning is complete.
1681:Generated_Source\PSoC4/CapSense_1.c **** *
1682:Generated_Source\PSoC4/CapSense_1.c **** * Global Variables:
1683:Generated_Source\PSoC4/CapSense_1.c **** *  CapSense_1_sensorIndex - the sensor number is being scanned.
1684:Generated_Source\PSoC4/CapSense_1.c **** *
1685:Generated_Source\PSoC4/CapSense_1.c **** * Side Effects:
1686:Generated_Source\PSoC4/CapSense_1.c **** *  None
1687:Generated_Source\PSoC4/CapSense_1.c **** *
1688:Generated_Source\PSoC4/CapSense_1.c **** *******************************************************************************/
1689:Generated_Source\PSoC4/CapSense_1.c **** uint32 CapSense_1_ReadCurrentScanningSensor(void)
1690:Generated_Source\PSoC4/CapSense_1.c **** {
 1979              		.loc 1 1690 0
 1980              		.cfi_startproc
 1981              		@ args = 0, pretend = 0, frame = 0
 1982              		@ frame_needed = 1, uses_anonymous_args = 0
 1983 0000 80B5     		push	{r7, lr}
 1984              		.cfi_def_cfa_offset 8
 1985              		.cfi_offset 7, -8
 1986              		.cfi_offset 14, -4
 1987 0002 00AF     		add	r7, sp, #0
 1988              		.cfi_def_cfa_register 7
1691:Generated_Source\PSoC4/CapSense_1.c ****     return ((uint32)(( 0u != (CapSense_1_csdStatusVar & CapSense_1_SW_STS_BUSY)) ?
 1989              		.loc 1 1691 0
 1990 0004 074B     		ldr	r3, .L99
 1991 0006 1B78     		ldrb	r3, [r3]
 1992 0008 DBB2     		uxtb	r3, r3
 1993 000a 1A00     		movs	r2, r3
 1994 000c 0123     		movs	r3, #1
 1995 000e 1340     		ands	r3, r2
 1996 0010 03D0     		beq	.L96
 1997              		.loc 1 1691 0 is_stmt 0 discriminator 1
 1998 0012 054B     		ldr	r3, .L99+4
 1999 0014 1B78     		ldrb	r3, [r3]
 2000 0016 DBB2     		uxtb	r3, r3
 2001 0018 01E0     		b	.L98
ARM GAS  C:\Users\d4hhm\AppData\Local\Temp\ccLEMF4D.s 			page 66


 2002              	.L96:
 2003              		.loc 1 1691 0 discriminator 2
 2004 001a 0123     		movs	r3, #1
 2005 001c 5B42     		rsbs	r3, r3, #0
 2006              	.L98:
1692:Generated_Source\PSoC4/CapSense_1.c ****                      CapSense_1_sensorIndex : CapSense_1_NOT_SENSOR));
1693:Generated_Source\PSoC4/CapSense_1.c **** }
 2007              		.loc 1 1693 0 is_stmt 1 discriminator 5
 2008 001e 1800     		movs	r0, r3
 2009 0020 BD46     		mov	sp, r7
 2010              		@ sp needed
 2011 0022 80BD     		pop	{r7, pc}
 2012              	.L100:
 2013              		.align	2
 2014              	.L99:
 2015 0024 00000000 		.word	CapSense_1_csdStatusVar
 2016 0028 00000000 		.word	CapSense_1_sensorIndex
 2017              		.cfi_endproc
 2018              	.LFE57:
 2019              		.size	CapSense_1_ReadCurrentScanningSensor, .-CapSense_1_ReadCurrentScanningSensor
 2020              		.section	.text.CapSense_1_GetBitValue,"ax",%progbits
 2021              		.align	2
 2022              		.global	CapSense_1_GetBitValue
 2023              		.code	16
 2024              		.thumb_func
 2025              		.type	CapSense_1_GetBitValue, %function
 2026              	CapSense_1_GetBitValue:
 2027              	.LFB58:
1694:Generated_Source\PSoC4/CapSense_1.c **** 
1695:Generated_Source\PSoC4/CapSense_1.c **** 
1696:Generated_Source\PSoC4/CapSense_1.c **** /*******************************************************************************
1697:Generated_Source\PSoC4/CapSense_1.c **** * Function Name: CapSense_1_GetBitValue
1698:Generated_Source\PSoC4/CapSense_1.c **** ********************************************************************************
1699:Generated_Source\PSoC4/CapSense_1.c **** *
1700:Generated_Source\PSoC4/CapSense_1.c **** * Summary:
1701:Generated_Source\PSoC4/CapSense_1.c **** *  The API returns a bit status of the bit in the table array which contains the masks.
1702:Generated_Source\PSoC4/CapSense_1.c **** *
1703:Generated_Source\PSoC4/CapSense_1.c **** * Parameters:
1704:Generated_Source\PSoC4/CapSense_1.c **** *  table[] - array with bit masks.
1705:Generated_Source\PSoC4/CapSense_1.c **** *  position - position of bit in the table[] array.
1706:Generated_Source\PSoC4/CapSense_1.c **** *
1707:Generated_Source\PSoC4/CapSense_1.c **** * Return:
1708:Generated_Source\PSoC4/CapSense_1.c **** *  0 - bit is not set; 1 - bit is set.
1709:Generated_Source\PSoC4/CapSense_1.c **** *
1710:Generated_Source\PSoC4/CapSense_1.c **** * Global Variables:
1711:Generated_Source\PSoC4/CapSense_1.c **** *  None
1712:Generated_Source\PSoC4/CapSense_1.c **** *
1713:Generated_Source\PSoC4/CapSense_1.c **** * Side Effects:
1714:Generated_Source\PSoC4/CapSense_1.c **** *  None
1715:Generated_Source\PSoC4/CapSense_1.c **** *
1716:Generated_Source\PSoC4/CapSense_1.c **** *******************************************************************************/
1717:Generated_Source\PSoC4/CapSense_1.c **** uint32 CapSense_1_GetBitValue(const uint8 table[], uint32 position)
1718:Generated_Source\PSoC4/CapSense_1.c **** {
 2028              		.loc 1 1718 0
 2029              		.cfi_startproc
 2030              		@ args = 0, pretend = 0, frame = 16
 2031              		@ frame_needed = 1, uses_anonymous_args = 0
ARM GAS  C:\Users\d4hhm\AppData\Local\Temp\ccLEMF4D.s 			page 67


 2032 0000 80B5     		push	{r7, lr}
 2033              		.cfi_def_cfa_offset 8
 2034              		.cfi_offset 7, -8
 2035              		.cfi_offset 14, -4
 2036 0002 84B0     		sub	sp, sp, #16
 2037              		.cfi_def_cfa_offset 24
 2038 0004 00AF     		add	r7, sp, #0
 2039              		.cfi_def_cfa_register 7
 2040 0006 7860     		str	r0, [r7, #4]
 2041 0008 3960     		str	r1, [r7]
1719:Generated_Source\PSoC4/CapSense_1.c ****     uint32 offset;
1720:Generated_Source\PSoC4/CapSense_1.c ****     uint8 enMask;
1721:Generated_Source\PSoC4/CapSense_1.c **** 
1722:Generated_Source\PSoC4/CapSense_1.c ****     /* position is divided by 8 to calculate the element of the
1723:Generated_Source\PSoC4/CapSense_1.c ****        table[] array that contains the enable bit
1724:Generated_Source\PSoC4/CapSense_1.c ****        for an appropriate sensor.
1725:Generated_Source\PSoC4/CapSense_1.c ****     */
1726:Generated_Source\PSoC4/CapSense_1.c ****     offset = (position >> 3u);
 2042              		.loc 1 1726 0
 2043 000a 3B68     		ldr	r3, [r7]
 2044 000c DB08     		lsrs	r3, r3, #3
 2045 000e FB60     		str	r3, [r7, #12]
1727:Generated_Source\PSoC4/CapSense_1.c **** 
1728:Generated_Source\PSoC4/CapSense_1.c ****     /* The enMask calculation for the appropriate sensor. Operation (position & 0x07u)
1729:Generated_Source\PSoC4/CapSense_1.c ****        intends to calculate the enable bit offset for the 8-bit element of the
1730:Generated_Source\PSoC4/CapSense_1.c ****        table[] array.
1731:Generated_Source\PSoC4/CapSense_1.c ****     */
1732:Generated_Source\PSoC4/CapSense_1.c ****     enMask = 0x01u << (position & 0x07u);
 2046              		.loc 1 1732 0
 2047 0010 3B68     		ldr	r3, [r7]
 2048 0012 0722     		movs	r2, #7
 2049 0014 1340     		ands	r3, r2
 2050 0016 0122     		movs	r2, #1
 2051 0018 9A40     		lsls	r2, r2, r3
 2052 001a 0B23     		movs	r3, #11
 2053 001c FB18     		adds	r3, r7, r3
 2054 001e 1A70     		strb	r2, [r3]
1733:Generated_Source\PSoC4/CapSense_1.c **** 
1734:Generated_Source\PSoC4/CapSense_1.c ****     return ((0u !=(table[offset] & enMask)) ? 1Lu : 0Lu);
 2055              		.loc 1 1734 0
 2056 0020 7A68     		ldr	r2, [r7, #4]
 2057 0022 FB68     		ldr	r3, [r7, #12]
 2058 0024 D318     		adds	r3, r2, r3
 2059 0026 1B78     		ldrb	r3, [r3]
 2060 0028 0B22     		movs	r2, #11
 2061 002a BA18     		adds	r2, r7, r2
 2062 002c 1278     		ldrb	r2, [r2]
 2063 002e 1340     		ands	r3, r2
 2064 0030 DBB2     		uxtb	r3, r3
 2065 0032 002B     		cmp	r3, #0
 2066 0034 01D0     		beq	.L102
 2067              		.loc 1 1734 0 is_stmt 0 discriminator 1
 2068 0036 0123     		movs	r3, #1
 2069 0038 00E0     		b	.L104
 2070              	.L102:
 2071              		.loc 1 1734 0 discriminator 2
 2072 003a 0023     		movs	r3, #0
ARM GAS  C:\Users\d4hhm\AppData\Local\Temp\ccLEMF4D.s 			page 68


 2073              	.L104:
1735:Generated_Source\PSoC4/CapSense_1.c **** }
 2074              		.loc 1 1735 0 is_stmt 1 discriminator 5
 2075 003c 1800     		movs	r0, r3
 2076 003e BD46     		mov	sp, r7
 2077 0040 04B0     		add	sp, sp, #16
 2078              		@ sp needed
 2079 0042 80BD     		pop	{r7, pc}
 2080              		.cfi_endproc
 2081              	.LFE58:
 2082              		.size	CapSense_1_GetBitValue, .-CapSense_1_GetBitValue
 2083              		.section	.text.CapSense_1_SetBitValue,"ax",%progbits
 2084              		.align	2
 2085              		.global	CapSense_1_SetBitValue
 2086              		.code	16
 2087              		.thumb_func
 2088              		.type	CapSense_1_SetBitValue, %function
 2089              	CapSense_1_SetBitValue:
 2090              	.LFB59:
1736:Generated_Source\PSoC4/CapSense_1.c **** 
1737:Generated_Source\PSoC4/CapSense_1.c **** 
1738:Generated_Source\PSoC4/CapSense_1.c **** /*******************************************************************************
1739:Generated_Source\PSoC4/CapSense_1.c **** * Function Name: CapSense_1_SetBitValue
1740:Generated_Source\PSoC4/CapSense_1.c **** ********************************************************************************
1741:Generated_Source\PSoC4/CapSense_1.c **** *
1742:Generated_Source\PSoC4/CapSense_1.c **** * Summary:
1743:Generated_Source\PSoC4/CapSense_1.c **** *  The API sets a bit status of the bit in the table array which contains masks.
1744:Generated_Source\PSoC4/CapSense_1.c **** *
1745:Generated_Source\PSoC4/CapSense_1.c **** * Parameters:
1746:Generated_Source\PSoC4/CapSense_1.c **** *  table[] - array with bit masks.
1747:Generated_Source\PSoC4/CapSense_1.c **** *  position - position of bit in the table[] array.
1748:Generated_Source\PSoC4/CapSense_1.c **** *  value: 0 - bit is not set; 1 - bit is set.
1749:Generated_Source\PSoC4/CapSense_1.c **** *
1750:Generated_Source\PSoC4/CapSense_1.c **** * Return:
1751:Generated_Source\PSoC4/CapSense_1.c **** *  None
1752:Generated_Source\PSoC4/CapSense_1.c **** *
1753:Generated_Source\PSoC4/CapSense_1.c **** * Global Variables:
1754:Generated_Source\PSoC4/CapSense_1.c **** *  None
1755:Generated_Source\PSoC4/CapSense_1.c **** *
1756:Generated_Source\PSoC4/CapSense_1.c **** * Side Effects:
1757:Generated_Source\PSoC4/CapSense_1.c **** *  None
1758:Generated_Source\PSoC4/CapSense_1.c **** *
1759:Generated_Source\PSoC4/CapSense_1.c **** *******************************************************************************/
1760:Generated_Source\PSoC4/CapSense_1.c **** void CapSense_1_SetBitValue(uint8 table[], uint32 position, uint32 value)
1761:Generated_Source\PSoC4/CapSense_1.c **** {
 2091              		.loc 1 1761 0
 2092              		.cfi_startproc
 2093              		@ args = 0, pretend = 0, frame = 24
 2094              		@ frame_needed = 1, uses_anonymous_args = 0
 2095 0000 80B5     		push	{r7, lr}
 2096              		.cfi_def_cfa_offset 8
 2097              		.cfi_offset 7, -8
 2098              		.cfi_offset 14, -4
 2099 0002 86B0     		sub	sp, sp, #24
 2100              		.cfi_def_cfa_offset 32
 2101 0004 00AF     		add	r7, sp, #0
 2102              		.cfi_def_cfa_register 7
ARM GAS  C:\Users\d4hhm\AppData\Local\Temp\ccLEMF4D.s 			page 69


 2103 0006 F860     		str	r0, [r7, #12]
 2104 0008 B960     		str	r1, [r7, #8]
 2105 000a 7A60     		str	r2, [r7, #4]
1762:Generated_Source\PSoC4/CapSense_1.c ****     uint32 offset;
1763:Generated_Source\PSoC4/CapSense_1.c ****     uint8 enMask;
1764:Generated_Source\PSoC4/CapSense_1.c **** 
1765:Generated_Source\PSoC4/CapSense_1.c ****     /* position is divided by 8 to calculate the element of the
1766:Generated_Source\PSoC4/CapSense_1.c ****        table[] array that contains the enable bit
1767:Generated_Source\PSoC4/CapSense_1.c ****        for an appropriate sensor.
1768:Generated_Source\PSoC4/CapSense_1.c ****     */
1769:Generated_Source\PSoC4/CapSense_1.c ****     offset = (position >> 3u);
 2106              		.loc 1 1769 0
 2107 000c BB68     		ldr	r3, [r7, #8]
 2108 000e DB08     		lsrs	r3, r3, #3
 2109 0010 7B61     		str	r3, [r7, #20]
1770:Generated_Source\PSoC4/CapSense_1.c **** 
1771:Generated_Source\PSoC4/CapSense_1.c ****     /* The enMask calculation for the appropriate sensor. Operation (position & 0x07u)
1772:Generated_Source\PSoC4/CapSense_1.c ****        intends to calculate the enable bit offset for the 8-bit element of the
1773:Generated_Source\PSoC4/CapSense_1.c ****        table[] array.
1774:Generated_Source\PSoC4/CapSense_1.c ****     */
1775:Generated_Source\PSoC4/CapSense_1.c ****     enMask = 0x01u << (position & 0x07u);
 2110              		.loc 1 1775 0
 2111 0012 BB68     		ldr	r3, [r7, #8]
 2112 0014 0722     		movs	r2, #7
 2113 0016 1340     		ands	r3, r2
 2114 0018 0122     		movs	r2, #1
 2115 001a 9A40     		lsls	r2, r2, r3
 2116 001c 1323     		movs	r3, #19
 2117 001e FB18     		adds	r3, r7, r3
 2118 0020 1A70     		strb	r2, [r3]
1776:Generated_Source\PSoC4/CapSense_1.c **** 
1777:Generated_Source\PSoC4/CapSense_1.c ****     if(0u != value)
 2119              		.loc 1 1777 0
 2120 0022 7B68     		ldr	r3, [r7, #4]
 2121 0024 002B     		cmp	r3, #0
 2122 0026 0DD0     		beq	.L106
1778:Generated_Source\PSoC4/CapSense_1.c ****     {
1779:Generated_Source\PSoC4/CapSense_1.c ****         table[offset] |= enMask;
 2123              		.loc 1 1779 0
 2124 0028 FA68     		ldr	r2, [r7, #12]
 2125 002a 7B69     		ldr	r3, [r7, #20]
 2126 002c D318     		adds	r3, r2, r3
 2127 002e F968     		ldr	r1, [r7, #12]
 2128 0030 7A69     		ldr	r2, [r7, #20]
 2129 0032 8A18     		adds	r2, r1, r2
 2130 0034 1178     		ldrb	r1, [r2]
 2131 0036 1322     		movs	r2, #19
 2132 0038 BA18     		adds	r2, r7, r2
 2133 003a 1278     		ldrb	r2, [r2]
 2134 003c 0A43     		orrs	r2, r1
 2135 003e D2B2     		uxtb	r2, r2
 2136 0040 1A70     		strb	r2, [r3]
1780:Generated_Source\PSoC4/CapSense_1.c ****     }
1781:Generated_Source\PSoC4/CapSense_1.c ****     else
1782:Generated_Source\PSoC4/CapSense_1.c ****     {
1783:Generated_Source\PSoC4/CapSense_1.c ****         table[offset] &= (uint8)~(enMask);
1784:Generated_Source\PSoC4/CapSense_1.c ****     }
ARM GAS  C:\Users\d4hhm\AppData\Local\Temp\ccLEMF4D.s 			page 70


1785:Generated_Source\PSoC4/CapSense_1.c **** }
 2137              		.loc 1 1785 0
 2138 0042 0EE0     		b	.L108
 2139              	.L106:
1783:Generated_Source\PSoC4/CapSense_1.c ****     }
 2140              		.loc 1 1783 0
 2141 0044 FA68     		ldr	r2, [r7, #12]
 2142 0046 7B69     		ldr	r3, [r7, #20]
 2143 0048 D318     		adds	r3, r2, r3
 2144 004a F968     		ldr	r1, [r7, #12]
 2145 004c 7A69     		ldr	r2, [r7, #20]
 2146 004e 8A18     		adds	r2, r1, r2
 2147 0050 1278     		ldrb	r2, [r2]
 2148 0052 1321     		movs	r1, #19
 2149 0054 7918     		adds	r1, r7, r1
 2150 0056 0978     		ldrb	r1, [r1]
 2151 0058 C943     		mvns	r1, r1
 2152 005a C9B2     		uxtb	r1, r1
 2153 005c 0A40     		ands	r2, r1
 2154 005e D2B2     		uxtb	r2, r2
 2155 0060 1A70     		strb	r2, [r3]
 2156              	.L108:
 2157              		.loc 1 1785 0
 2158 0062 C046     		nop
 2159 0064 BD46     		mov	sp, r7
 2160 0066 06B0     		add	sp, sp, #24
 2161              		@ sp needed
 2162 0068 80BD     		pop	{r7, pc}
 2163              		.cfi_endproc
 2164              	.LFE59:
 2165              		.size	CapSense_1_SetBitValue, .-CapSense_1_SetBitValue
 2166 006a C046     		.section	.text.CapSense_1_GetSenseClkDivider,"ax",%progbits
 2167              		.align	2
 2168              		.global	CapSense_1_GetSenseClkDivider
 2169              		.code	16
 2170              		.thumb_func
 2171              		.type	CapSense_1_GetSenseClkDivider, %function
 2172              	CapSense_1_GetSenseClkDivider:
 2173              	.LFB60:
1786:Generated_Source\PSoC4/CapSense_1.c **** 
1787:Generated_Source\PSoC4/CapSense_1.c **** 
1788:Generated_Source\PSoC4/CapSense_1.c **** 
1789:Generated_Source\PSoC4/CapSense_1.c **** /*******************************************************************************
1790:Generated_Source\PSoC4/CapSense_1.c **** * Function Name: CapSense_1_GetSenseClkDivider
1791:Generated_Source\PSoC4/CapSense_1.c **** ********************************************************************************
1792:Generated_Source\PSoC4/CapSense_1.c **** *
1793:Generated_Source\PSoC4/CapSense_1.c **** * Summary:
1794:Generated_Source\PSoC4/CapSense_1.c **** *  This API returns a value of the sense clock divider for the  sensor.
1795:Generated_Source\PSoC4/CapSense_1.c **** *
1796:Generated_Source\PSoC4/CapSense_1.c **** * Parameters:
1797:Generated_Source\PSoC4/CapSense_1.c **** *  sensor: sensor index. The index value can be
1798:Generated_Source\PSoC4/CapSense_1.c **** *  from 0 to (CapSense_1_TOTAL_SENSOR_COUNT-1).
1799:Generated_Source\PSoC4/CapSense_1.c **** *
1800:Generated_Source\PSoC4/CapSense_1.c **** * Return:
1801:Generated_Source\PSoC4/CapSense_1.c **** *  This API returns the sense clock divider of the sensor.
1802:Generated_Source\PSoC4/CapSense_1.c **** *
1803:Generated_Source\PSoC4/CapSense_1.c **** * Global Variables:
ARM GAS  C:\Users\d4hhm\AppData\Local\Temp\ccLEMF4D.s 			page 71


1804:Generated_Source\PSoC4/CapSense_1.c **** *  CapSense_1_senseClkDividerVal[] - stores the sense clock divider values.
1805:Generated_Source\PSoC4/CapSense_1.c **** *
1806:Generated_Source\PSoC4/CapSense_1.c **** * Side Effects:
1807:Generated_Source\PSoC4/CapSense_1.c **** *  None
1808:Generated_Source\PSoC4/CapSense_1.c **** *
1809:Generated_Source\PSoC4/CapSense_1.c **** *******************************************************************************/
1810:Generated_Source\PSoC4/CapSense_1.c **** uint32 CapSense_1_GetSenseClkDivider(uint32 sensor)
1811:Generated_Source\PSoC4/CapSense_1.c **** {
 2174              		.loc 1 1811 0
 2175              		.cfi_startproc
 2176              		@ args = 0, pretend = 0, frame = 8
 2177              		@ frame_needed = 1, uses_anonymous_args = 0
 2178 0000 80B5     		push	{r7, lr}
 2179              		.cfi_def_cfa_offset 8
 2180              		.cfi_offset 7, -8
 2181              		.cfi_offset 14, -4
 2182 0002 82B0     		sub	sp, sp, #8
 2183              		.cfi_def_cfa_offset 16
 2184 0004 00AF     		add	r7, sp, #0
 2185              		.cfi_def_cfa_register 7
 2186 0006 7860     		str	r0, [r7, #4]
1812:Generated_Source\PSoC4/CapSense_1.c ****     #if(0u != CapSense_1_MULTIPLE_FREQUENCY_SET)
1813:Generated_Source\PSoC4/CapSense_1.c ****         return((uint32)CapSense_1_senseClkDividerVal[sensor]);
 2187              		.loc 1 1813 0
 2188 0008 0223     		movs	r3, #2
1814:Generated_Source\PSoC4/CapSense_1.c ****     #else
1815:Generated_Source\PSoC4/CapSense_1.c ****         return((uint32)CapSense_1_senseClkDividerVal);
1816:Generated_Source\PSoC4/CapSense_1.c ****     #endif /* (0u != CapSense_1_MULTIPLE_FREQUENCY_SET) */
1817:Generated_Source\PSoC4/CapSense_1.c **** }
 2189              		.loc 1 1817 0
 2190 000a 1800     		movs	r0, r3
 2191 000c BD46     		mov	sp, r7
 2192 000e 02B0     		add	sp, sp, #8
 2193              		@ sp needed
 2194 0010 80BD     		pop	{r7, pc}
 2195              		.cfi_endproc
 2196              	.LFE60:
 2197              		.size	CapSense_1_GetSenseClkDivider, .-CapSense_1_GetSenseClkDivider
 2198 0012 C046     		.section	.text.CapSense_1_GetModulatorClkDivider,"ax",%progbits
 2199              		.align	2
 2200              		.global	CapSense_1_GetModulatorClkDivider
 2201              		.code	16
 2202              		.thumb_func
 2203              		.type	CapSense_1_GetModulatorClkDivider, %function
 2204              	CapSense_1_GetModulatorClkDivider:
 2205              	.LFB61:
1818:Generated_Source\PSoC4/CapSense_1.c **** 
1819:Generated_Source\PSoC4/CapSense_1.c **** #if (CapSense_1_TUNING_METHOD != CapSense_1__TUNING_NONE)
1820:Generated_Source\PSoC4/CapSense_1.c ****     /*******************************************************************************
1821:Generated_Source\PSoC4/CapSense_1.c ****     * Function Name: CapSense_1_SetSenseClkDivider
1822:Generated_Source\PSoC4/CapSense_1.c ****     ********************************************************************************
1823:Generated_Source\PSoC4/CapSense_1.c ****     *
1824:Generated_Source\PSoC4/CapSense_1.c ****     * Summary:
1825:Generated_Source\PSoC4/CapSense_1.c ****     *  This API sets a value of the sense clock divider for the  sensor.
1826:Generated_Source\PSoC4/CapSense_1.c ****     *
1827:Generated_Source\PSoC4/CapSense_1.c ****     * Parameters:
1828:Generated_Source\PSoC4/CapSense_1.c ****     *  sensor:  Sensor index.
ARM GAS  C:\Users\d4hhm\AppData\Local\Temp\ccLEMF4D.s 			page 72


1829:Generated_Source\PSoC4/CapSense_1.c ****     *  senseClk: represents the sense clock value.
1830:Generated_Source\PSoC4/CapSense_1.c ****     *
1831:Generated_Source\PSoC4/CapSense_1.c ****     * Return:
1832:Generated_Source\PSoC4/CapSense_1.c ****     *  None.
1833:Generated_Source\PSoC4/CapSense_1.c ****     *
1834:Generated_Source\PSoC4/CapSense_1.c ****     * Global Variables:
1835:Generated_Source\PSoC4/CapSense_1.c ****     *  CapSense_1_senseClkDividerVal[] - stores the sense clock divider values.
1836:Generated_Source\PSoC4/CapSense_1.c ****     *
1837:Generated_Source\PSoC4/CapSense_1.c ****     * Side Effects:
1838:Generated_Source\PSoC4/CapSense_1.c ****     *  None
1839:Generated_Source\PSoC4/CapSense_1.c ****     *
1840:Generated_Source\PSoC4/CapSense_1.c ****     *******************************************************************************/
1841:Generated_Source\PSoC4/CapSense_1.c ****     void CapSense_1_SetSenseClkDivider(uint32 sensor, uint32 senseClk)
1842:Generated_Source\PSoC4/CapSense_1.c ****     {
1843:Generated_Source\PSoC4/CapSense_1.c ****         #if(0u != CapSense_1_MULTIPLE_FREQUENCY_SET)
1844:Generated_Source\PSoC4/CapSense_1.c ****             CapSense_1_senseClkDividerVal[sensor] = (uint8)senseClk;
1845:Generated_Source\PSoC4/CapSense_1.c ****         #else
1846:Generated_Source\PSoC4/CapSense_1.c ****             CapSense_1_senseClkDividerVal = (uint8)senseClk;
1847:Generated_Source\PSoC4/CapSense_1.c ****         #endif /* (0u != CapSense_1_MULTIPLE_FREQUENCY_SET) */
1848:Generated_Source\PSoC4/CapSense_1.c ****     }
1849:Generated_Source\PSoC4/CapSense_1.c **** #endif /* (CapSense_1_TUNING_METHOD != CapSense_1__TUNING_NONE) */
1850:Generated_Source\PSoC4/CapSense_1.c **** 
1851:Generated_Source\PSoC4/CapSense_1.c **** 
1852:Generated_Source\PSoC4/CapSense_1.c **** /*******************************************************************************
1853:Generated_Source\PSoC4/CapSense_1.c **** * Function Name: CapSense_1_GetModulatorClkDivider
1854:Generated_Source\PSoC4/CapSense_1.c **** ********************************************************************************
1855:Generated_Source\PSoC4/CapSense_1.c **** *
1856:Generated_Source\PSoC4/CapSense_1.c **** * Summary:
1857:Generated_Source\PSoC4/CapSense_1.c **** *  This API returns a value of the modulator sample clock divider for the  sensor.
1858:Generated_Source\PSoC4/CapSense_1.c **** *
1859:Generated_Source\PSoC4/CapSense_1.c **** * Parameters:
1860:Generated_Source\PSoC4/CapSense_1.c **** *  sensor: sensor index. The value of index can be
1861:Generated_Source\PSoC4/CapSense_1.c **** *  from 0 to (CapSense_1_TOTAL_SENSOR_COUNT-1).
1862:Generated_Source\PSoC4/CapSense_1.c **** *
1863:Generated_Source\PSoC4/CapSense_1.c **** * Return:
1864:Generated_Source\PSoC4/CapSense_1.c **** *  This API returns the modulator sample clock divider for the  sensor.
1865:Generated_Source\PSoC4/CapSense_1.c **** *
1866:Generated_Source\PSoC4/CapSense_1.c **** * Global Variables:
1867:Generated_Source\PSoC4/CapSense_1.c **** *  CapSense_1_sampleClkDividerVal[] - stores the modulator sample divider values.
1868:Generated_Source\PSoC4/CapSense_1.c **** *
1869:Generated_Source\PSoC4/CapSense_1.c **** * Side Effects:
1870:Generated_Source\PSoC4/CapSense_1.c **** *  None
1871:Generated_Source\PSoC4/CapSense_1.c **** *
1872:Generated_Source\PSoC4/CapSense_1.c **** *******************************************************************************/
1873:Generated_Source\PSoC4/CapSense_1.c **** uint32 CapSense_1_GetModulatorClkDivider(uint32 sensor)
1874:Generated_Source\PSoC4/CapSense_1.c **** {
 2206              		.loc 1 1874 0
 2207              		.cfi_startproc
 2208              		@ args = 0, pretend = 0, frame = 8
 2209              		@ frame_needed = 1, uses_anonymous_args = 0
 2210 0000 80B5     		push	{r7, lr}
 2211              		.cfi_def_cfa_offset 8
 2212              		.cfi_offset 7, -8
 2213              		.cfi_offset 14, -4
 2214 0002 82B0     		sub	sp, sp, #8
 2215              		.cfi_def_cfa_offset 16
 2216 0004 00AF     		add	r7, sp, #0
ARM GAS  C:\Users\d4hhm\AppData\Local\Temp\ccLEMF4D.s 			page 73


 2217              		.cfi_def_cfa_register 7
 2218 0006 7860     		str	r0, [r7, #4]
1875:Generated_Source\PSoC4/CapSense_1.c ****     #if(0u != CapSense_1_MULTIPLE_FREQUENCY_SET)
1876:Generated_Source\PSoC4/CapSense_1.c ****         return((uint32)CapSense_1_sampleClkDividerVal[sensor]);
 2219              		.loc 1 1876 0
 2220 0008 0223     		movs	r3, #2
1877:Generated_Source\PSoC4/CapSense_1.c ****     #else
1878:Generated_Source\PSoC4/CapSense_1.c ****         return((uint32)CapSense_1_sampleClkDividerVal);
1879:Generated_Source\PSoC4/CapSense_1.c ****     #endif /* (0u != CapSense_1_MULTIPLE_FREQUENCY_SET) */
1880:Generated_Source\PSoC4/CapSense_1.c **** }
 2221              		.loc 1 1880 0
 2222 000a 1800     		movs	r0, r3
 2223 000c BD46     		mov	sp, r7
 2224 000e 02B0     		add	sp, sp, #8
 2225              		@ sp needed
 2226 0010 80BD     		pop	{r7, pc}
 2227              		.cfi_endproc
 2228              	.LFE61:
 2229              		.size	CapSense_1_GetModulatorClkDivider, .-CapSense_1_GetModulatorClkDivider
 2230 0012 C046     		.section	.text.CapSense_1_GetModulationIDAC,"ax",%progbits
 2231              		.align	2
 2232              		.global	CapSense_1_GetModulationIDAC
 2233              		.code	16
 2234              		.thumb_func
 2235              		.type	CapSense_1_GetModulationIDAC, %function
 2236              	CapSense_1_GetModulationIDAC:
 2237              	.LFB62:
1881:Generated_Source\PSoC4/CapSense_1.c **** 
1882:Generated_Source\PSoC4/CapSense_1.c **** #if (CapSense_1_TUNING_METHOD != CapSense_1__TUNING_NONE)
1883:Generated_Source\PSoC4/CapSense_1.c ****     /*******************************************************************************
1884:Generated_Source\PSoC4/CapSense_1.c ****     * Function Name: CapSense_1_SetModulatorClkDivider
1885:Generated_Source\PSoC4/CapSense_1.c ****     ********************************************************************************
1886:Generated_Source\PSoC4/CapSense_1.c ****     *
1887:Generated_Source\PSoC4/CapSense_1.c ****     * Summary:
1888:Generated_Source\PSoC4/CapSense_1.c ****     *  This API sets a value of the modulator sample clock divider for the  sensor.
1889:Generated_Source\PSoC4/CapSense_1.c ****     *
1890:Generated_Source\PSoC4/CapSense_1.c ****     * Parameters:
1891:Generated_Source\PSoC4/CapSense_1.c ****     *  sensor:  Sensor index.
1892:Generated_Source\PSoC4/CapSense_1.c ****     *  modulatorClk: represents the modulator sample clock value.
1893:Generated_Source\PSoC4/CapSense_1.c ****     *
1894:Generated_Source\PSoC4/CapSense_1.c ****     * Return:
1895:Generated_Source\PSoC4/CapSense_1.c ****     *  None.
1896:Generated_Source\PSoC4/CapSense_1.c ****     *
1897:Generated_Source\PSoC4/CapSense_1.c ****     * Global Variables:
1898:Generated_Source\PSoC4/CapSense_1.c ****     *  CapSense_1_sampleClkDividerVal[] - stores the modulator sample divider values.
1899:Generated_Source\PSoC4/CapSense_1.c ****     *
1900:Generated_Source\PSoC4/CapSense_1.c ****     * Side Effects:
1901:Generated_Source\PSoC4/CapSense_1.c ****     *  None
1902:Generated_Source\PSoC4/CapSense_1.c ****     *
1903:Generated_Source\PSoC4/CapSense_1.c ****     *******************************************************************************/
1904:Generated_Source\PSoC4/CapSense_1.c ****     void CapSense_1_SetModulatorClkDivider(uint32 sensor, uint32 modulatorClk)
1905:Generated_Source\PSoC4/CapSense_1.c ****     {
1906:Generated_Source\PSoC4/CapSense_1.c ****         #if(0u != CapSense_1_MULTIPLE_FREQUENCY_SET)
1907:Generated_Source\PSoC4/CapSense_1.c ****             CapSense_1_sampleClkDividerVal[sensor] = (uint8)modulatorClk;
1908:Generated_Source\PSoC4/CapSense_1.c ****         #else
1909:Generated_Source\PSoC4/CapSense_1.c ****             CapSense_1_sampleClkDividerVal = (uint8)modulatorClk;
1910:Generated_Source\PSoC4/CapSense_1.c ****         #endif /* (0u != CapSense_1_MULTIPLE_FREQUENCY_SET) */
ARM GAS  C:\Users\d4hhm\AppData\Local\Temp\ccLEMF4D.s 			page 74


1911:Generated_Source\PSoC4/CapSense_1.c ****     }
1912:Generated_Source\PSoC4/CapSense_1.c **** #endif /* (CapSense_1_TUNING_METHOD != CapSense_1__TUNING_NONE) */
1913:Generated_Source\PSoC4/CapSense_1.c **** 
1914:Generated_Source\PSoC4/CapSense_1.c **** /*******************************************************************************
1915:Generated_Source\PSoC4/CapSense_1.c **** * Function Name: CapSense_1_GetModulationIDAC
1916:Generated_Source\PSoC4/CapSense_1.c **** ********************************************************************************
1917:Generated_Source\PSoC4/CapSense_1.c **** *
1918:Generated_Source\PSoC4/CapSense_1.c **** * Summary:
1919:Generated_Source\PSoC4/CapSense_1.c **** *  This API returns a value of the modulation IDAC for the  sensor.
1920:Generated_Source\PSoC4/CapSense_1.c **** *
1921:Generated_Source\PSoC4/CapSense_1.c **** * Parameters:
1922:Generated_Source\PSoC4/CapSense_1.c **** *  sensor: sensor index. The index value can be
1923:Generated_Source\PSoC4/CapSense_1.c **** *  from 0 to (CapSense_1_TOTAL_SENSOR_COUNT-1).
1924:Generated_Source\PSoC4/CapSense_1.c **** *
1925:Generated_Source\PSoC4/CapSense_1.c **** * Return:
1926:Generated_Source\PSoC4/CapSense_1.c **** *  This API returns the modulation IDAC of the sensor.
1927:Generated_Source\PSoC4/CapSense_1.c **** *
1928:Generated_Source\PSoC4/CapSense_1.c **** * Global Variables:
1929:Generated_Source\PSoC4/CapSense_1.c **** *  CapSense_1_modulationIDAC[] - stores modulation IDAC values.
1930:Generated_Source\PSoC4/CapSense_1.c **** *
1931:Generated_Source\PSoC4/CapSense_1.c **** * Side Effects:
1932:Generated_Source\PSoC4/CapSense_1.c **** *  None
1933:Generated_Source\PSoC4/CapSense_1.c **** *
1934:Generated_Source\PSoC4/CapSense_1.c **** *******************************************************************************/
1935:Generated_Source\PSoC4/CapSense_1.c **** uint32 CapSense_1_GetModulationIDAC(uint32 sensor)
1936:Generated_Source\PSoC4/CapSense_1.c **** {
 2238              		.loc 1 1936 0
 2239              		.cfi_startproc
 2240              		@ args = 0, pretend = 0, frame = 8
 2241              		@ frame_needed = 1, uses_anonymous_args = 0
 2242 0000 80B5     		push	{r7, lr}
 2243              		.cfi_def_cfa_offset 8
 2244              		.cfi_offset 7, -8
 2245              		.cfi_offset 14, -4
 2246 0002 82B0     		sub	sp, sp, #8
 2247              		.cfi_def_cfa_offset 16
 2248 0004 00AF     		add	r7, sp, #0
 2249              		.cfi_def_cfa_register 7
 2250 0006 7860     		str	r0, [r7, #4]
1937:Generated_Source\PSoC4/CapSense_1.c ****         return((uint32)CapSense_1_modulationIDAC[sensor]);
 2251              		.loc 1 1937 0
 2252 0008 5023     		movs	r3, #80
1938:Generated_Source\PSoC4/CapSense_1.c **** }
 2253              		.loc 1 1938 0
 2254 000a 1800     		movs	r0, r3
 2255 000c BD46     		mov	sp, r7
 2256 000e 02B0     		add	sp, sp, #8
 2257              		@ sp needed
 2258 0010 80BD     		pop	{r7, pc}
 2259              		.cfi_endproc
 2260              	.LFE62:
 2261              		.size	CapSense_1_GetModulationIDAC, .-CapSense_1_GetModulationIDAC
 2262 0012 C046     		.section	.text.CapSense_1_GetCompensationIDAC,"ax",%progbits
 2263              		.align	2
 2264              		.global	CapSense_1_GetCompensationIDAC
 2265              		.code	16
 2266              		.thumb_func
ARM GAS  C:\Users\d4hhm\AppData\Local\Temp\ccLEMF4D.s 			page 75


 2267              		.type	CapSense_1_GetCompensationIDAC, %function
 2268              	CapSense_1_GetCompensationIDAC:
 2269              	.LFB63:
1939:Generated_Source\PSoC4/CapSense_1.c **** 
1940:Generated_Source\PSoC4/CapSense_1.c **** #if (CapSense_1_TUNING_METHOD != CapSense_1__TUNING_NONE)
1941:Generated_Source\PSoC4/CapSense_1.c ****     /*******************************************************************************
1942:Generated_Source\PSoC4/CapSense_1.c ****     * Function Name: CapSense_1_SetModulationIDAC
1943:Generated_Source\PSoC4/CapSense_1.c ****     ********************************************************************************
1944:Generated_Source\PSoC4/CapSense_1.c ****     *
1945:Generated_Source\PSoC4/CapSense_1.c ****     * Summary:
1946:Generated_Source\PSoC4/CapSense_1.c ****     *  This API sets a value of the modulation IDAC for the  sensor.
1947:Generated_Source\PSoC4/CapSense_1.c ****     *
1948:Generated_Source\PSoC4/CapSense_1.c ****     * Parameters:
1949:Generated_Source\PSoC4/CapSense_1.c ****     *  sensor:  Sensor index.
1950:Generated_Source\PSoC4/CapSense_1.c ****     *  compIdacValue: represents the modulation IDAC data register value.
1951:Generated_Source\PSoC4/CapSense_1.c ****     *
1952:Generated_Source\PSoC4/CapSense_1.c ****     * Return:
1953:Generated_Source\PSoC4/CapSense_1.c ****     *  None.
1954:Generated_Source\PSoC4/CapSense_1.c ****     *
1955:Generated_Source\PSoC4/CapSense_1.c ****     * Global Variables:
1956:Generated_Source\PSoC4/CapSense_1.c ****     *  CapSense_1_modulationIDAC[] - array with modulation IDAC values
1957:Generated_Source\PSoC4/CapSense_1.c ****     *
1958:Generated_Source\PSoC4/CapSense_1.c ****     * Side Effects:
1959:Generated_Source\PSoC4/CapSense_1.c ****     *  None
1960:Generated_Source\PSoC4/CapSense_1.c ****     *
1961:Generated_Source\PSoC4/CapSense_1.c ****     *******************************************************************************/
1962:Generated_Source\PSoC4/CapSense_1.c ****     void CapSense_1_SetModulationIDAC(uint32 sensor, uint32 modIdacValue)
1963:Generated_Source\PSoC4/CapSense_1.c ****     {
1964:Generated_Source\PSoC4/CapSense_1.c ****         CapSense_1_modulationIDAC[sensor] = (uint8)modIdacValue;
1965:Generated_Source\PSoC4/CapSense_1.c ****     }
1966:Generated_Source\PSoC4/CapSense_1.c **** #endif /* (CapSense_1_TUNING_METHOD != CapSense_1__TUNING_NONE) */
1967:Generated_Source\PSoC4/CapSense_1.c **** 
1968:Generated_Source\PSoC4/CapSense_1.c **** 
1969:Generated_Source\PSoC4/CapSense_1.c **** #if(CapSense_1_IDAC_CNT > 1u)
1970:Generated_Source\PSoC4/CapSense_1.c ****     /*******************************************************************************
1971:Generated_Source\PSoC4/CapSense_1.c ****     * Function Name: CapSense_1_GetCompensationIDAC
1972:Generated_Source\PSoC4/CapSense_1.c ****     ********************************************************************************
1973:Generated_Source\PSoC4/CapSense_1.c ****     *
1974:Generated_Source\PSoC4/CapSense_1.c ****     * Summary:
1975:Generated_Source\PSoC4/CapSense_1.c ****     *  This API returns a value of the compensation IDAC for the  sensor.
1976:Generated_Source\PSoC4/CapSense_1.c ****     *
1977:Generated_Source\PSoC4/CapSense_1.c ****     * Parameters:
1978:Generated_Source\PSoC4/CapSense_1.c ****     *  sensor: sensor index. The index value can be
1979:Generated_Source\PSoC4/CapSense_1.c ****     *  from 0 to (CapSense_1_TOTAL_SENSOR_COUNT-1).
1980:Generated_Source\PSoC4/CapSense_1.c ****     *
1981:Generated_Source\PSoC4/CapSense_1.c ****     * Return:
1982:Generated_Source\PSoC4/CapSense_1.c ****     *  This API returns the compensation IDAC of the sensor.
1983:Generated_Source\PSoC4/CapSense_1.c ****     *
1984:Generated_Source\PSoC4/CapSense_1.c ****     * Global Variables:
1985:Generated_Source\PSoC4/CapSense_1.c ****     *  CapSense_1_compensationIDAC[] - stores the compensation IDAC values.
1986:Generated_Source\PSoC4/CapSense_1.c ****     *
1987:Generated_Source\PSoC4/CapSense_1.c ****     * Side Effects:
1988:Generated_Source\PSoC4/CapSense_1.c ****     *  None
1989:Generated_Source\PSoC4/CapSense_1.c ****     *
1990:Generated_Source\PSoC4/CapSense_1.c ****     *******************************************************************************/
1991:Generated_Source\PSoC4/CapSense_1.c ****     uint32 CapSense_1_GetCompensationIDAC(uint32 sensor)
1992:Generated_Source\PSoC4/CapSense_1.c ****     {
ARM GAS  C:\Users\d4hhm\AppData\Local\Temp\ccLEMF4D.s 			page 76


 2270              		.loc 1 1992 0
 2271              		.cfi_startproc
 2272              		@ args = 0, pretend = 0, frame = 8
 2273              		@ frame_needed = 1, uses_anonymous_args = 0
 2274 0000 80B5     		push	{r7, lr}
 2275              		.cfi_def_cfa_offset 8
 2276              		.cfi_offset 7, -8
 2277              		.cfi_offset 14, -4
 2278 0002 82B0     		sub	sp, sp, #8
 2279              		.cfi_def_cfa_offset 16
 2280 0004 00AF     		add	r7, sp, #0
 2281              		.cfi_def_cfa_register 7
 2282 0006 7860     		str	r0, [r7, #4]
1993:Generated_Source\PSoC4/CapSense_1.c ****         return((uint32)CapSense_1_compensationIDAC[sensor]);
 2283              		.loc 1 1993 0
 2284 0008 5023     		movs	r3, #80
1994:Generated_Source\PSoC4/CapSense_1.c ****     }
 2285              		.loc 1 1994 0
 2286 000a 1800     		movs	r0, r3
 2287 000c BD46     		mov	sp, r7
 2288 000e 02B0     		add	sp, sp, #8
 2289              		@ sp needed
 2290 0010 80BD     		pop	{r7, pc}
 2291              		.cfi_endproc
 2292              	.LFE63:
 2293              		.size	CapSense_1_GetCompensationIDAC, .-CapSense_1_GetCompensationIDAC
 2294 0012 C046     		.section	.text.CapSense_1_GetIDACRange,"ax",%progbits
 2295              		.align	2
 2296              		.global	CapSense_1_GetIDACRange
 2297              		.code	16
 2298              		.thumb_func
 2299              		.type	CapSense_1_GetIDACRange, %function
 2300              	CapSense_1_GetIDACRange:
 2301              	.LFB64:
1995:Generated_Source\PSoC4/CapSense_1.c **** #endif /* (CapSense_1_IDAC_CNT > 1u) */
1996:Generated_Source\PSoC4/CapSense_1.c **** 
1997:Generated_Source\PSoC4/CapSense_1.c **** 
1998:Generated_Source\PSoC4/CapSense_1.c **** #if((CapSense_1_TUNING_METHOD != CapSense_1__TUNING_NONE) && (CapSense_1_IDAC_CNT > 1u))
1999:Generated_Source\PSoC4/CapSense_1.c ****     /*******************************************************************************
2000:Generated_Source\PSoC4/CapSense_1.c ****     * Function Name: CapSense_1_SetCompensationIDAC
2001:Generated_Source\PSoC4/CapSense_1.c ****     ********************************************************************************
2002:Generated_Source\PSoC4/CapSense_1.c ****     *
2003:Generated_Source\PSoC4/CapSense_1.c ****     * Summary:
2004:Generated_Source\PSoC4/CapSense_1.c ****     *  This API sets a value of compensation IDAC for the  sensor.
2005:Generated_Source\PSoC4/CapSense_1.c ****     *
2006:Generated_Source\PSoC4/CapSense_1.c ****     * Parameters:
2007:Generated_Source\PSoC4/CapSense_1.c ****     *  sensor:  Sensor index.
2008:Generated_Source\PSoC4/CapSense_1.c ****     *  compIdacValue: represents the compensation IDAC data register value.
2009:Generated_Source\PSoC4/CapSense_1.c ****     *
2010:Generated_Source\PSoC4/CapSense_1.c ****     * Return:
2011:Generated_Source\PSoC4/CapSense_1.c ****     *  None.
2012:Generated_Source\PSoC4/CapSense_1.c ****     *
2013:Generated_Source\PSoC4/CapSense_1.c ****     * Global Variables:
2014:Generated_Source\PSoC4/CapSense_1.c ****     *  CapSense_1_compensationIDAC[] - an array with compensation IDAC values
2015:Generated_Source\PSoC4/CapSense_1.c ****     *
2016:Generated_Source\PSoC4/CapSense_1.c ****     * Side Effects:
2017:Generated_Source\PSoC4/CapSense_1.c ****     *  None
ARM GAS  C:\Users\d4hhm\AppData\Local\Temp\ccLEMF4D.s 			page 77


2018:Generated_Source\PSoC4/CapSense_1.c ****     *
2019:Generated_Source\PSoC4/CapSense_1.c ****     *******************************************************************************/
2020:Generated_Source\PSoC4/CapSense_1.c ****     void CapSense_1_SetCompensationIDAC(uint32 sensor, uint32 compIdacValue)
2021:Generated_Source\PSoC4/CapSense_1.c ****     {
2022:Generated_Source\PSoC4/CapSense_1.c ****         CapSense_1_compensationIDAC[sensor] = (uint8)compIdacValue;
2023:Generated_Source\PSoC4/CapSense_1.c ****     }
2024:Generated_Source\PSoC4/CapSense_1.c **** #endif /* ((CapSense_1_TUNING_METHOD != CapSense_1__TUNING_NONE) && (CapSense_1_IDAC_CNT > 1u)) */
2025:Generated_Source\PSoC4/CapSense_1.c **** 
2026:Generated_Source\PSoC4/CapSense_1.c **** /*******************************************************************************
2027:Generated_Source\PSoC4/CapSense_1.c **** * Function Name: CapSense_1_GetIDACRange
2028:Generated_Source\PSoC4/CapSense_1.c **** ********************************************************************************
2029:Generated_Source\PSoC4/CapSense_1.c **** *
2030:Generated_Source\PSoC4/CapSense_1.c **** * Summary:
2031:Generated_Source\PSoC4/CapSense_1.c **** *  This API returns a value that indicates the IDAC range used by the
2032:Generated_Source\PSoC4/CapSense_1.c **** *  component to scan sensors. The IDAC range is common for all the sensors.
2033:Generated_Source\PSoC4/CapSense_1.c **** *
2034:Generated_Source\PSoC4/CapSense_1.c **** * Parameters:
2035:Generated_Source\PSoC4/CapSense_1.c **** *  None
2036:Generated_Source\PSoC4/CapSense_1.c **** *
2037:Generated_Source\PSoC4/CapSense_1.c **** * Return:
2038:Generated_Source\PSoC4/CapSense_1.c **** *  This API Returns a value that indicates the IDAC range:
2039:Generated_Source\PSoC4/CapSense_1.c **** *      0 - IDAC range set to 4x
2040:Generated_Source\PSoC4/CapSense_1.c **** *      1 - IDAC range set to 8x
2041:Generated_Source\PSoC4/CapSense_1.c **** *
2042:Generated_Source\PSoC4/CapSense_1.c **** * Global Variables:
2043:Generated_Source\PSoC4/CapSense_1.c **** *  None
2044:Generated_Source\PSoC4/CapSense_1.c **** *
2045:Generated_Source\PSoC4/CapSense_1.c **** * Side Effects:
2046:Generated_Source\PSoC4/CapSense_1.c **** *  None
2047:Generated_Source\PSoC4/CapSense_1.c **** *
2048:Generated_Source\PSoC4/CapSense_1.c **** *******************************************************************************/
2049:Generated_Source\PSoC4/CapSense_1.c **** uint32 CapSense_1_GetIDACRange(void)
2050:Generated_Source\PSoC4/CapSense_1.c **** {
 2302              		.loc 1 2050 0
 2303              		.cfi_startproc
 2304              		@ args = 0, pretend = 0, frame = 0
 2305              		@ frame_needed = 1, uses_anonymous_args = 0
 2306 0000 80B5     		push	{r7, lr}
 2307              		.cfi_def_cfa_offset 8
 2308              		.cfi_offset 7, -8
 2309              		.cfi_offset 14, -4
 2310 0002 00AF     		add	r7, sp, #0
 2311              		.cfi_def_cfa_register 7
2051:Generated_Source\PSoC4/CapSense_1.c ****     return((0u != (CapSense_1_CSD_IDAC_REG & CapSense_1_CSD_IDAC1_RANGE_8X)) ? 1uL : 0uL);
 2312              		.loc 1 2051 0
 2313 0004 054B     		ldr	r3, .L121
 2314 0006 1A68     		ldr	r2, [r3]
 2315 0008 8023     		movs	r3, #128
 2316 000a DB00     		lsls	r3, r3, #3
 2317 000c 1340     		ands	r3, r2
 2318 000e 01D0     		beq	.L118
 2319              		.loc 1 2051 0 is_stmt 0 discriminator 1
 2320 0010 0123     		movs	r3, #1
 2321 0012 00E0     		b	.L120
 2322              	.L118:
 2323              		.loc 1 2051 0 discriminator 2
 2324 0014 0023     		movs	r3, #0
ARM GAS  C:\Users\d4hhm\AppData\Local\Temp\ccLEMF4D.s 			page 78


 2325              	.L120:
2052:Generated_Source\PSoC4/CapSense_1.c **** }
 2326              		.loc 1 2052 0 is_stmt 1 discriminator 5
 2327 0016 1800     		movs	r0, r3
 2328 0018 BD46     		mov	sp, r7
 2329              		@ sp needed
 2330 001a 80BD     		pop	{r7, pc}
 2331              	.L122:
 2332              		.align	2
 2333              	.L121:
 2334 001c 08002840 		.word	1076363272
 2335              		.cfi_endproc
 2336              	.LFE64:
 2337              		.size	CapSense_1_GetIDACRange, .-CapSense_1_GetIDACRange
 2338              		.section	.text.CapSense_1_SetUnscannedSensorState,"ax",%progbits
 2339              		.align	2
 2340              		.global	CapSense_1_SetUnscannedSensorState
 2341              		.code	16
 2342              		.thumb_func
 2343              		.type	CapSense_1_SetUnscannedSensorState, %function
 2344              	CapSense_1_SetUnscannedSensorState:
 2345              	.LFB65:
2053:Generated_Source\PSoC4/CapSense_1.c **** 
2054:Generated_Source\PSoC4/CapSense_1.c **** #if (CapSense_1_TUNING_METHOD != CapSense_1__TUNING_NONE)
2055:Generated_Source\PSoC4/CapSense_1.c ****     /*******************************************************************************
2056:Generated_Source\PSoC4/CapSense_1.c ****     * Function Name: CapSense_1_SetIDACRange
2057:Generated_Source\PSoC4/CapSense_1.c ****     ********************************************************************************
2058:Generated_Source\PSoC4/CapSense_1.c ****     *
2059:Generated_Source\PSoC4/CapSense_1.c ****     * Summary:
2060:Generated_Source\PSoC4/CapSense_1.c ****     *  This API sets the IDAC range to the 4x (1.2uA/bit) or 8x (2.4uA/bit) mode.
2061:Generated_Source\PSoC4/CapSense_1.c ****     *  The IDAC range is common for all the sensors and common for the modulation and
2062:Generated_Source\PSoC4/CapSense_1.c ****     *  compensation IDACs.
2063:Generated_Source\PSoC4/CapSense_1.c ****     *
2064:Generated_Source\PSoC4/CapSense_1.c ****     * Parameters:
2065:Generated_Source\PSoC4/CapSense_1.c ****     *  iDacRange:  represents value for IDAC range
2066:Generated_Source\PSoC4/CapSense_1.c ****     *  0 -  IDAC range set to 4x (1.2uA/bit)
2067:Generated_Source\PSoC4/CapSense_1.c ****     *  1 or >1 - IDAC range set to 8x (2.4uA/bit)
2068:Generated_Source\PSoC4/CapSense_1.c ****     *
2069:Generated_Source\PSoC4/CapSense_1.c ****     * Return:
2070:Generated_Source\PSoC4/CapSense_1.c ****     *  None.
2071:Generated_Source\PSoC4/CapSense_1.c ****     *
2072:Generated_Source\PSoC4/CapSense_1.c ****     * Global Variables:
2073:Generated_Source\PSoC4/CapSense_1.c ****     *  None
2074:Generated_Source\PSoC4/CapSense_1.c ****     *
2075:Generated_Source\PSoC4/CapSense_1.c ****     * Side Effects:
2076:Generated_Source\PSoC4/CapSense_1.c ****     *  None
2077:Generated_Source\PSoC4/CapSense_1.c ****     *
2078:Generated_Source\PSoC4/CapSense_1.c ****     *******************************************************************************/
2079:Generated_Source\PSoC4/CapSense_1.c ****     void CapSense_1_SetIDACRange(uint32 iDacRange)
2080:Generated_Source\PSoC4/CapSense_1.c ****     {
2081:Generated_Source\PSoC4/CapSense_1.c ****         if(iDacRange != 0u)
2082:Generated_Source\PSoC4/CapSense_1.c ****         {
2083:Generated_Source\PSoC4/CapSense_1.c ****             /*  IDAC range = 8x (2.4uA/bit) */
2084:Generated_Source\PSoC4/CapSense_1.c ****             CapSense_1_CSD_IDAC_REG |= (CapSense_1_CSD_IDAC1_RANGE_8X |\
2085:Generated_Source\PSoC4/CapSense_1.c ****                                               CapSense_1_CSD_IDAC2_RANGE_8X);
2086:Generated_Source\PSoC4/CapSense_1.c ****         }
2087:Generated_Source\PSoC4/CapSense_1.c ****         else
ARM GAS  C:\Users\d4hhm\AppData\Local\Temp\ccLEMF4D.s 			page 79


2088:Generated_Source\PSoC4/CapSense_1.c ****         {
2089:Generated_Source\PSoC4/CapSense_1.c ****             /*  IDAC range = 4x (1.2uA/bit) */
2090:Generated_Source\PSoC4/CapSense_1.c ****             /*  IDAC range = 8x (2.4uA/bit) */
2091:Generated_Source\PSoC4/CapSense_1.c ****             CapSense_1_CSD_IDAC_REG &= ~(CapSense_1_CSD_IDAC1_RANGE_8X |\
2092:Generated_Source\PSoC4/CapSense_1.c ****                                                CapSense_1_CSD_IDAC2_RANGE_8X);
2093:Generated_Source\PSoC4/CapSense_1.c ****         }
2094:Generated_Source\PSoC4/CapSense_1.c ****     }
2095:Generated_Source\PSoC4/CapSense_1.c **** #endif /* (CapSense_1_TUNING_METHOD != CapSense_1__TUNING_NONE) */
2096:Generated_Source\PSoC4/CapSense_1.c **** 
2097:Generated_Source\PSoC4/CapSense_1.c **** 
2098:Generated_Source\PSoC4/CapSense_1.c **** #if((0u != CapSense_1_AUTOCALIBRATION_ENABLE) || (CapSense_1_TUNING_METHOD == CapSense_1__TUNING_AU
2099:Generated_Source\PSoC4/CapSense_1.c ****     /*******************************************************************************
2100:Generated_Source\PSoC4/CapSense_1.c ****     * Function Name: CapSense_1_GetSensorRaw
2101:Generated_Source\PSoC4/CapSense_1.c ****     ********************************************************************************
2102:Generated_Source\PSoC4/CapSense_1.c ****     *
2103:Generated_Source\PSoC4/CapSense_1.c ****     * Summary:
2104:Generated_Source\PSoC4/CapSense_1.c ****     *  The API updates and gets uprated raw data from the sensor.
2105:Generated_Source\PSoC4/CapSense_1.c ****     *
2106:Generated_Source\PSoC4/CapSense_1.c ****     * Parameters:
2107:Generated_Source\PSoC4/CapSense_1.c ****     *  sensor - Sensor number.
2108:Generated_Source\PSoC4/CapSense_1.c ****     *
2109:Generated_Source\PSoC4/CapSense_1.c ****     * Return:
2110:Generated_Source\PSoC4/CapSense_1.c ****     *  Returns the current raw data value for a defined sensor number.
2111:Generated_Source\PSoC4/CapSense_1.c ****     *
2112:Generated_Source\PSoC4/CapSense_1.c ****     * Global Variables:
2113:Generated_Source\PSoC4/CapSense_1.c ****     *  None
2114:Generated_Source\PSoC4/CapSense_1.c ****     *
2115:Generated_Source\PSoC4/CapSense_1.c ****     * Side Effects:
2116:Generated_Source\PSoC4/CapSense_1.c ****     *  None
2117:Generated_Source\PSoC4/CapSense_1.c ****     *
2118:Generated_Source\PSoC4/CapSense_1.c ****     *******************************************************************************/
2119:Generated_Source\PSoC4/CapSense_1.c ****     uint16  CapSense_1_GetSensorRaw(uint32 sensor)
2120:Generated_Source\PSoC4/CapSense_1.c ****     {
2121:Generated_Source\PSoC4/CapSense_1.c ****         uint32 curSample;
2122:Generated_Source\PSoC4/CapSense_1.c ****         uint32 avgVal = 0u;
2123:Generated_Source\PSoC4/CapSense_1.c **** 
2124:Generated_Source\PSoC4/CapSense_1.c ****         for(curSample = 0u; curSample < CapSense_1_AVG_SAMPLES_NUM; curSample++)
2125:Generated_Source\PSoC4/CapSense_1.c ****         {
2126:Generated_Source\PSoC4/CapSense_1.c **** 
2127:Generated_Source\PSoC4/CapSense_1.c ****             CapSense_1_ScanSensor((uint32)sensor);
2128:Generated_Source\PSoC4/CapSense_1.c ****             while(CapSense_1_IsBusy() == 1u)
2129:Generated_Source\PSoC4/CapSense_1.c ****             {
2130:Generated_Source\PSoC4/CapSense_1.c ****                 /* Wait while sensor is busy */
2131:Generated_Source\PSoC4/CapSense_1.c ****             }
2132:Generated_Source\PSoC4/CapSense_1.c ****             avgVal += CapSense_1_ReadSensorRaw((uint32)sensor);
2133:Generated_Source\PSoC4/CapSense_1.c ****         }
2134:Generated_Source\PSoC4/CapSense_1.c **** 
2135:Generated_Source\PSoC4/CapSense_1.c ****         return((uint16)(avgVal / CapSense_1_AVG_SAMPLES_NUM));
2136:Generated_Source\PSoC4/CapSense_1.c ****     }
2137:Generated_Source\PSoC4/CapSense_1.c **** #endif /* ((0u != CapSense_1_AUTOCALIBRATION_ENABLE) && (CapSense_1_TUNING_METHOD == CapSense_1__TU
2138:Generated_Source\PSoC4/CapSense_1.c **** 
2139:Generated_Source\PSoC4/CapSense_1.c **** 
2140:Generated_Source\PSoC4/CapSense_1.c **** #if((0u != CapSense_1_AUTOCALIBRATION_ENABLE) && (CapSense_1_TUNING_METHOD != CapSense_1__TUNING_AU
2141:Generated_Source\PSoC4/CapSense_1.c ****     /*******************************************************************************
2142:Generated_Source\PSoC4/CapSense_1.c ****     * Function Name: CapSense_1_CalibrateSensor
2143:Generated_Source\PSoC4/CapSense_1.c ****     ********************************************************************************
2144:Generated_Source\PSoC4/CapSense_1.c ****     *
ARM GAS  C:\Users\d4hhm\AppData\Local\Temp\ccLEMF4D.s 			page 80


2145:Generated_Source\PSoC4/CapSense_1.c ****     * Summary:
2146:Generated_Source\PSoC4/CapSense_1.c ****     *  Computes the one sensor IDAC value, which provides the raw signal on
2147:Generated_Source\PSoC4/CapSense_1.c ****     *  a specified level, with a specified prescaler, speed, and resolution.
2148:Generated_Source\PSoC4/CapSense_1.c ****     *
2149:Generated_Source\PSoC4/CapSense_1.c ****     * Parameters:
2150:Generated_Source\PSoC4/CapSense_1.c ****     *  sensor - Sensor Number.
2151:Generated_Source\PSoC4/CapSense_1.c ****     *
2152:Generated_Source\PSoC4/CapSense_1.c ****     *  rawLevel -  Raw data level which should be reached during the calibration
2153:Generated_Source\PSoC4/CapSense_1.c ****     *              procedure.
2154:Generated_Source\PSoC4/CapSense_1.c ****     *
2155:Generated_Source\PSoC4/CapSense_1.c ****     *  idacLevelsTbl - Pointer to the modulatorIdac data register configuration table.
2156:Generated_Source\PSoC4/CapSense_1.c ****     *
2157:Generated_Source\PSoC4/CapSense_1.c ****     * Return:
2158:Generated_Source\PSoC4/CapSense_1.c ****     *  None
2159:Generated_Source\PSoC4/CapSense_1.c ****     *
2160:Generated_Source\PSoC4/CapSense_1.c ****     *******************************************************************************/
2161:Generated_Source\PSoC4/CapSense_1.c ****     void CapSense_1_CalibrateSensor(uint32 sensor, uint32 rawLevel, uint8 idacLevelsTbl[])
2162:Generated_Source\PSoC4/CapSense_1.c ****     {
2163:Generated_Source\PSoC4/CapSense_1.c ****         uint8 mask;
2164:Generated_Source\PSoC4/CapSense_1.c ****         uint16 rawData;
2165:Generated_Source\PSoC4/CapSense_1.c **** 
2166:Generated_Source\PSoC4/CapSense_1.c ****         rawData = 0u;
2167:Generated_Source\PSoC4/CapSense_1.c **** 
2168:Generated_Source\PSoC4/CapSense_1.c ****         mask = 0x80u;
2169:Generated_Source\PSoC4/CapSense_1.c ****         /* Init IDAC for null Channel */
2170:Generated_Source\PSoC4/CapSense_1.c ****         idacLevelsTbl[sensor] = 0x00u;
2171:Generated_Source\PSoC4/CapSense_1.c **** 
2172:Generated_Source\PSoC4/CapSense_1.c ****         do
2173:Generated_Source\PSoC4/CapSense_1.c ****         {
2174:Generated_Source\PSoC4/CapSense_1.c ****             /* Set bit for null Channel */
2175:Generated_Source\PSoC4/CapSense_1.c ****             idacLevelsTbl[sensor] |= mask;
2176:Generated_Source\PSoC4/CapSense_1.c **** 
2177:Generated_Source\PSoC4/CapSense_1.c ****             /* Scan null Channel and get Rawdata */
2178:Generated_Source\PSoC4/CapSense_1.c ****             rawData = CapSense_1_GetSensorRaw(sensor);
2179:Generated_Source\PSoC4/CapSense_1.c **** 
2180:Generated_Source\PSoC4/CapSense_1.c ****             /* Decrease IDAC until Rawdata reaches rawLevel */
2181:Generated_Source\PSoC4/CapSense_1.c ****             if(rawData < rawLevel)
2182:Generated_Source\PSoC4/CapSense_1.c ****             {
2183:Generated_Source\PSoC4/CapSense_1.c ****                 /* Reset bit for null Channel  */
2184:Generated_Source\PSoC4/CapSense_1.c ****                 idacLevelsTbl[sensor] &= (uint8)~mask;
2185:Generated_Source\PSoC4/CapSense_1.c ****             }
2186:Generated_Source\PSoC4/CapSense_1.c **** 
2187:Generated_Source\PSoC4/CapSense_1.c ****             mask >>= 1u;
2188:Generated_Source\PSoC4/CapSense_1.c ****         }
2189:Generated_Source\PSoC4/CapSense_1.c ****         while(mask > 0u);
2190:Generated_Source\PSoC4/CapSense_1.c **** 
2191:Generated_Source\PSoC4/CapSense_1.c ****     }
2192:Generated_Source\PSoC4/CapSense_1.c **** #endif /* ((0u != CapSense_1_AUTOCALIBRATION_ENABLE) && (CapSense_1_TUNING_METHOD != CapSense_1__TU
2193:Generated_Source\PSoC4/CapSense_1.c **** 
2194:Generated_Source\PSoC4/CapSense_1.c **** 
2195:Generated_Source\PSoC4/CapSense_1.c **** /*******************************************************************************
2196:Generated_Source\PSoC4/CapSense_1.c **** * Function Name: CapSense_1_SetUnscannedSensorState
2197:Generated_Source\PSoC4/CapSense_1.c **** ********************************************************************************
2198:Generated_Source\PSoC4/CapSense_1.c **** *
2199:Generated_Source\PSoC4/CapSense_1.c **** * Summary:
2200:Generated_Source\PSoC4/CapSense_1.c **** *  This API sets a state for un-scanned sensors.
2201:Generated_Source\PSoC4/CapSense_1.c **** *  It is possible to set the state to Ground, High-Z, or the shield electrode.
ARM GAS  C:\Users\d4hhm\AppData\Local\Temp\ccLEMF4D.s 			page 81


2202:Generated_Source\PSoC4/CapSense_1.c **** *  The un-scanned sensor can be connected to a shield electrode only if the shield is
2203:Generated_Source\PSoC4/CapSense_1.c **** *  enabled. If the shield is disabled and this API is called with the parameter which
2204:Generated_Source\PSoC4/CapSense_1.c **** *  indicates the shield state, the un-scanned sensor will be connected to Ground.
2205:Generated_Source\PSoC4/CapSense_1.c **** *
2206:Generated_Source\PSoC4/CapSense_1.c **** * Parameters:
2207:Generated_Source\PSoC4/CapSense_1.c **** *  sensor - Sensor Number.
2208:Generated_Source\PSoC4/CapSense_1.c **** *  sensorState: This parameter indicates un-scanned sensor state:
2209:Generated_Source\PSoC4/CapSense_1.c **** *
2210:Generated_Source\PSoC4/CapSense_1.c **** *     CapSense_1__GROUND 0
2211:Generated_Source\PSoC4/CapSense_1.c **** *     CapSense_1__HIZ_ANALOG 1
2212:Generated_Source\PSoC4/CapSense_1.c **** *     CapSense_1__SHIELD 2
2213:Generated_Source\PSoC4/CapSense_1.c **** *
2214:Generated_Source\PSoC4/CapSense_1.c **** * Return:
2215:Generated_Source\PSoC4/CapSense_1.c **** *  None.
2216:Generated_Source\PSoC4/CapSense_1.c **** *
2217:Generated_Source\PSoC4/CapSense_1.c **** * Global Variables:
2218:Generated_Source\PSoC4/CapSense_1.c **** *  CapSense_1_unscannedSnsDriveMode[] - used to store the state for
2219:Generated_Source\PSoC4/CapSense_1.c **** *  un-scanned sensors.
2220:Generated_Source\PSoC4/CapSense_1.c **** *
2221:Generated_Source\PSoC4/CapSense_1.c **** * Side Effects:
2222:Generated_Source\PSoC4/CapSense_1.c **** *  None
2223:Generated_Source\PSoC4/CapSense_1.c **** *
2224:Generated_Source\PSoC4/CapSense_1.c **** *******************************************************************************/
2225:Generated_Source\PSoC4/CapSense_1.c **** void CapSense_1_SetUnscannedSensorState(uint32 sensor, uint32 sensorState)
2226:Generated_Source\PSoC4/CapSense_1.c **** {
 2346              		.loc 1 2226 0
 2347              		.cfi_startproc
 2348              		@ args = 0, pretend = 0, frame = 8
 2349              		@ frame_needed = 1, uses_anonymous_args = 0
 2350 0000 80B5     		push	{r7, lr}
 2351              		.cfi_def_cfa_offset 8
 2352              		.cfi_offset 7, -8
 2353              		.cfi_offset 14, -4
 2354 0002 82B0     		sub	sp, sp, #8
 2355              		.cfi_def_cfa_offset 16
 2356 0004 00AF     		add	r7, sp, #0
 2357              		.cfi_def_cfa_register 7
 2358 0006 7860     		str	r0, [r7, #4]
 2359 0008 3960     		str	r1, [r7]
2227:Generated_Source\PSoC4/CapSense_1.c ****     #if(CapSense_1_IS_COMPLEX_SCANSLOTS)
2228:Generated_Source\PSoC4/CapSense_1.c ****         uint8 snsType;
2229:Generated_Source\PSoC4/CapSense_1.c ****         uint8 curSensor;
2230:Generated_Source\PSoC4/CapSense_1.c ****         uint16 snsNumber;
2231:Generated_Source\PSoC4/CapSense_1.c **** 
2232:Generated_Source\PSoC4/CapSense_1.c ****         /* Read sensor type: single or complex */
2233:Generated_Source\PSoC4/CapSense_1.c ****         snsType = CapSense_1_portTable[sensor];
2234:Generated_Source\PSoC4/CapSense_1.c **** 
2235:Generated_Source\PSoC4/CapSense_1.c ****         /* Check if sensor is complex */
2236:Generated_Source\PSoC4/CapSense_1.c ****         if(0u != (snsType & CapSense_1_COMPLEX_SS_FLAG))
2237:Generated_Source\PSoC4/CapSense_1.c ****         {
2238:Generated_Source\PSoC4/CapSense_1.c ****             snsType &= (uint8)~CapSense_1_COMPLEX_SS_FLAG;
2239:Generated_Source\PSoC4/CapSense_1.c ****             snsNumber = (uint16)CapSense_1_maskTable[sensor];
2240:Generated_Source\PSoC4/CapSense_1.c **** 
2241:Generated_Source\PSoC4/CapSense_1.c ****             for (curSensor=0u; curSensor < snsNumber; curSensor++)
2242:Generated_Source\PSoC4/CapSense_1.c ****             {
2243:Generated_Source\PSoC4/CapSense_1.c ****                 sensor = CapSense_1_indexTable[snsType + curSensor];
2244:Generated_Source\PSoC4/CapSense_1.c ****                 CapSense_1_unscannedSnsDriveMode[sensor] = (uint8)sensorState;
ARM GAS  C:\Users\d4hhm\AppData\Local\Temp\ccLEMF4D.s 			page 82


2245:Generated_Source\PSoC4/CapSense_1.c ****             }
2246:Generated_Source\PSoC4/CapSense_1.c ****         }
2247:Generated_Source\PSoC4/CapSense_1.c ****         else
2248:Generated_Source\PSoC4/CapSense_1.c ****         {
2249:Generated_Source\PSoC4/CapSense_1.c ****             CapSense_1_unscannedSnsDriveMode[sensor] = (uint8)sensorState;
2250:Generated_Source\PSoC4/CapSense_1.c ****         }
2251:Generated_Source\PSoC4/CapSense_1.c ****     #else
2252:Generated_Source\PSoC4/CapSense_1.c ****         CapSense_1_unscannedSnsDriveMode[sensor] = (uint8)sensorState;
 2360              		.loc 1 2252 0
 2361 000a 3B68     		ldr	r3, [r7]
 2362 000c D9B2     		uxtb	r1, r3
 2363 000e 044A     		ldr	r2, .L124
 2364 0010 7B68     		ldr	r3, [r7, #4]
 2365 0012 D318     		adds	r3, r2, r3
 2366 0014 0A1C     		adds	r2, r1, #0
 2367 0016 1A70     		strb	r2, [r3]
2253:Generated_Source\PSoC4/CapSense_1.c ****     #endif /* (CapSense_1_IS_COMPLEX_SCANSLOTS) */
2254:Generated_Source\PSoC4/CapSense_1.c **** }
 2368              		.loc 1 2254 0
 2369 0018 C046     		nop
 2370 001a BD46     		mov	sp, r7
 2371 001c 02B0     		add	sp, sp, #8
 2372              		@ sp needed
 2373 001e 80BD     		pop	{r7, pc}
 2374              	.L125:
 2375              		.align	2
 2376              	.L124:
 2377 0020 00000000 		.word	CapSense_1_unscannedSnsDriveMode
 2378              		.cfi_endproc
 2379              	.LFE65:
 2380              		.size	CapSense_1_SetUnscannedSensorState, .-CapSense_1_SetUnscannedSensorState
 2381              		.bss
 2382              	CapSense_1_initVar.5375:
 2383 0006 00       		.space	1
 2384              		.text
 2385              	.Letext0:
 2386              		.file 2 "Generated_Source\\PSoC4\\cytypes.h"
 2387              		.file 3 "Generated_Source\\PSoC4\\CapSense_1_CSHL.h"
 2388              		.section	.debug_info,"",%progbits
 2389              	.Ldebug_info0:
 2390 0000 E3090000 		.4byte	0x9e3
 2391 0004 0400     		.2byte	0x4
 2392 0006 00000000 		.4byte	.Ldebug_abbrev0
 2393 000a 04       		.byte	0x4
 2394 000b 01       		.uleb128 0x1
 2395 000c C1030000 		.4byte	.LASF101
 2396 0010 0C       		.byte	0xc
 2397 0011 20050000 		.4byte	.LASF102
 2398 0015 15000000 		.4byte	.LASF103
 2399 0019 00000000 		.4byte	.Ldebug_ranges0+0
 2400 001d 00000000 		.4byte	0
 2401 0021 00000000 		.4byte	.Ldebug_line0
 2402 0025 02       		.uleb128 0x2
 2403 0026 01       		.byte	0x1
 2404 0027 06       		.byte	0x6
 2405 0028 8E040000 		.4byte	.LASF0
 2406 002c 02       		.uleb128 0x2
ARM GAS  C:\Users\d4hhm\AppData\Local\Temp\ccLEMF4D.s 			page 83


 2407 002d 01       		.byte	0x1
 2408 002e 08       		.byte	0x8
 2409 002f 80040000 		.4byte	.LASF1
 2410 0033 02       		.uleb128 0x2
 2411 0034 02       		.byte	0x2
 2412 0035 05       		.byte	0x5
 2413 0036 13010000 		.4byte	.LASF2
 2414 003a 02       		.uleb128 0x2
 2415 003b 02       		.byte	0x2
 2416 003c 07       		.byte	0x7
 2417 003d C3050000 		.4byte	.LASF3
 2418 0041 02       		.uleb128 0x2
 2419 0042 04       		.byte	0x4
 2420 0043 05       		.byte	0x5
 2421 0044 2F030000 		.4byte	.LASF4
 2422 0048 02       		.uleb128 0x2
 2423 0049 04       		.byte	0x4
 2424 004a 07       		.byte	0x7
 2425 004b 98060000 		.4byte	.LASF5
 2426 004f 02       		.uleb128 0x2
 2427 0050 08       		.byte	0x8
 2428 0051 05       		.byte	0x5
 2429 0052 CD020000 		.4byte	.LASF6
 2430 0056 02       		.uleb128 0x2
 2431 0057 08       		.byte	0x8
 2432 0058 07       		.byte	0x7
 2433 0059 9A040000 		.4byte	.LASF7
 2434 005d 03       		.uleb128 0x3
 2435 005e 04       		.byte	0x4
 2436 005f 05       		.byte	0x5
 2437 0060 696E7400 		.ascii	"int\000"
 2438 0064 02       		.uleb128 0x2
 2439 0065 04       		.byte	0x4
 2440 0066 07       		.byte	0x7
 2441 0067 B1040000 		.4byte	.LASF8
 2442 006b 04       		.uleb128 0x4
 2443 006c 37020000 		.4byte	.LASF9
 2444 0070 02       		.byte	0x2
 2445 0071 E601     		.2byte	0x1e6
 2446 0073 2C000000 		.4byte	0x2c
 2447 0077 04       		.uleb128 0x4
 2448 0078 1C020000 		.4byte	.LASF10
 2449 007c 02       		.byte	0x2
 2450 007d E701     		.2byte	0x1e7
 2451 007f 3A000000 		.4byte	0x3a
 2452 0083 04       		.uleb128 0x4
 2453 0084 8C060000 		.4byte	.LASF11
 2454 0088 02       		.byte	0x2
 2455 0089 E801     		.2byte	0x1e8
 2456 008b 48000000 		.4byte	0x48
 2457 008f 02       		.uleb128 0x2
 2458 0090 04       		.byte	0x4
 2459 0091 04       		.byte	0x4
 2460 0092 BB020000 		.4byte	.LASF12
 2461 0096 02       		.uleb128 0x2
 2462 0097 08       		.byte	0x8
 2463 0098 04       		.byte	0x4
ARM GAS  C:\Users\d4hhm\AppData\Local\Temp\ccLEMF4D.s 			page 84


 2464 0099 A5070000 		.4byte	.LASF13
 2465 009d 02       		.uleb128 0x2
 2466 009e 01       		.byte	0x1
 2467 009f 08       		.byte	0x8
 2468 00a0 BE050000 		.4byte	.LASF14
 2469 00a4 04       		.uleb128 0x4
 2470 00a5 93060000 		.4byte	.LASF15
 2471 00a9 02       		.byte	0x2
 2472 00aa 9002     		.2byte	0x290
 2473 00ac B0000000 		.4byte	0xb0
 2474 00b0 05       		.uleb128 0x5
 2475 00b1 6B000000 		.4byte	0x6b
 2476 00b5 04       		.uleb128 0x4
 2477 00b6 44050000 		.4byte	.LASF16
 2478 00ba 02       		.byte	0x2
 2479 00bb 9202     		.2byte	0x292
 2480 00bd C1000000 		.4byte	0xc1
 2481 00c1 05       		.uleb128 0x5
 2482 00c2 83000000 		.4byte	0x83
 2483 00c6 02       		.uleb128 0x2
 2484 00c7 04       		.byte	0x4
 2485 00c8 07       		.byte	0x7
 2486 00c9 84010000 		.4byte	.LASF17
 2487 00cd 02       		.uleb128 0x2
 2488 00ce 08       		.byte	0x8
 2489 00cf 04       		.byte	0x4
 2490 00d0 5C040000 		.4byte	.LASF18
 2491 00d4 06       		.uleb128 0x6
 2492 00d5 04       		.byte	0x4
 2493 00d6 6B000000 		.4byte	0x6b
 2494 00da 06       		.uleb128 0x6
 2495 00db 04       		.byte	0x4
 2496 00dc E0000000 		.4byte	0xe0
 2497 00e0 07       		.uleb128 0x7
 2498 00e1 6B000000 		.4byte	0x6b
 2499 00e5 08       		.uleb128 0x8
 2500 00e6 DE070000 		.4byte	.LASF19
 2501 00ea 01       		.byte	0x1
 2502 00eb A0       		.byte	0xa0
 2503 00ec 00000000 		.4byte	.LFB34
 2504 00f0 40000000 		.4byte	.LFE34-.LFB34
 2505 00f4 01       		.uleb128 0x1
 2506 00f5 9C       		.byte	0x9c
 2507 00f6 09010000 		.4byte	0x109
 2508 00fa 09       		.uleb128 0x9
 2509 00fb 56030000 		.4byte	.LASF21
 2510 00ff 01       		.byte	0x1
 2511 0100 A2       		.byte	0xa2
 2512 0101 83000000 		.4byte	0x83
 2513 0105 02       		.uleb128 0x2
 2514 0106 91       		.byte	0x91
 2515 0107 74       		.sleb128 -12
 2516 0108 00       		.byte	0
 2517 0109 08       		.uleb128 0x8
 2518 010a C1060000 		.4byte	.LASF20
 2519 010e 01       		.byte	0x1
 2520 010f E1       		.byte	0xe1
ARM GAS  C:\Users\d4hhm\AppData\Local\Temp\ccLEMF4D.s 			page 85


 2521 0110 00000000 		.4byte	.LFB35
 2522 0114 BC000000 		.4byte	.LFE35-.LFB35
 2523 0118 01       		.uleb128 0x1
 2524 0119 9C       		.byte	0x9c
 2525 011a 2D010000 		.4byte	0x12d
 2526 011e 09       		.uleb128 0x9
 2527 011f FC040000 		.4byte	.LASF22
 2528 0123 01       		.byte	0x1
 2529 0124 E3       		.byte	0xe3
 2530 0125 83000000 		.4byte	0x83
 2531 0129 02       		.uleb128 0x2
 2532 012a 91       		.byte	0x91
 2533 012b 74       		.sleb128 -12
 2534 012c 00       		.byte	0
 2535 012d 0A       		.uleb128 0xa
 2536 012e 88070000 		.4byte	.LASF23
 2537 0132 01       		.byte	0x1
 2538 0133 3601     		.2byte	0x136
 2539 0135 00000000 		.4byte	.LFB36
 2540 0139 54000000 		.4byte	.LFE36-.LFB36
 2541 013d 01       		.uleb128 0x1
 2542 013e 9C       		.byte	0x9c
 2543 013f 53010000 		.4byte	0x153
 2544 0143 0B       		.uleb128 0xb
 2545 0144 FC040000 		.4byte	.LASF22
 2546 0148 01       		.byte	0x1
 2547 0149 3801     		.2byte	0x138
 2548 014b 83000000 		.4byte	0x83
 2549 014f 02       		.uleb128 0x2
 2550 0150 91       		.byte	0x91
 2551 0151 74       		.sleb128 -12
 2552 0152 00       		.byte	0
 2553 0153 0A       		.uleb128 0xa
 2554 0154 71020000 		.4byte	.LASF24
 2555 0158 01       		.byte	0x1
 2556 0159 7101     		.2byte	0x171
 2557 015b 00000000 		.4byte	.LFB37
 2558 015f 38000000 		.4byte	.LFE37-.LFB37
 2559 0163 01       		.uleb128 0x1
 2560 0164 9C       		.byte	0x9c
 2561 0165 7C010000 		.4byte	0x17c
 2562 0169 0B       		.uleb128 0xb
 2563 016a 34070000 		.4byte	.LASF25
 2564 016e 01       		.byte	0x1
 2565 016f 7401     		.2byte	0x174
 2566 0171 6B000000 		.4byte	0x6b
 2567 0175 05       		.uleb128 0x5
 2568 0176 03       		.byte	0x3
 2569 0177 06000000 		.4byte	CapSense_1_initVar.5375
 2570 017b 00       		.byte	0
 2571 017c 0C       		.uleb128 0xc
 2572 017d 90030000 		.4byte	.LASF34
 2573 0181 01       		.byte	0x1
 2574 0182 CD01     		.2byte	0x1cd
 2575 0184 00000000 		.4byte	.LFB38
 2576 0188 38000000 		.4byte	.LFE38-.LFB38
 2577 018c 01       		.uleb128 0x1
ARM GAS  C:\Users\d4hhm\AppData\Local\Temp\ccLEMF4D.s 			page 86


 2578 018d 9C       		.byte	0x9c
 2579 018e 0D       		.uleb128 0xd
 2580 018f 1A070000 		.4byte	.LASF36
 2581 0193 01       		.byte	0x1
 2582 0194 F301     		.2byte	0x1f3
 2583 0196 6B000000 		.4byte	0x6b
 2584 019a 00000000 		.4byte	.LFB39
 2585 019e 4C000000 		.4byte	.LFE39-.LFB39
 2586 01a2 01       		.uleb128 0x1
 2587 01a3 9C       		.byte	0x9c
 2588 01a4 C7010000 		.4byte	0x1c7
 2589 01a8 0E       		.uleb128 0xe
 2590 01a9 F3040000 		.4byte	.LASF28
 2591 01ad 01       		.byte	0x1
 2592 01ae F301     		.2byte	0x1f3
 2593 01b0 6B000000 		.4byte	0x6b
 2594 01b4 02       		.uleb128 0x2
 2595 01b5 91       		.byte	0x91
 2596 01b6 6F       		.sleb128 -17
 2597 01b7 0B       		.uleb128 0xb
 2598 01b8 9A070000 		.4byte	.LASF26
 2599 01bc 01       		.byte	0x1
 2600 01bd F501     		.2byte	0x1f5
 2601 01bf 83000000 		.4byte	0x83
 2602 01c3 02       		.uleb128 0x2
 2603 01c4 91       		.byte	0x91
 2604 01c5 74       		.sleb128 -12
 2605 01c6 00       		.byte	0
 2606 01c7 0A       		.uleb128 0xa
 2607 01c8 3C010000 		.4byte	.LASF27
 2608 01cc 01       		.byte	0x1
 2609 01cd 2302     		.2byte	0x223
 2610 01cf 00000000 		.4byte	.LFB40
 2611 01d3 34000000 		.4byte	.LFE40-.LFB40
 2612 01d7 01       		.uleb128 0x1
 2613 01d8 9C       		.byte	0x9c
 2614 01d9 ED010000 		.4byte	0x1ed
 2615 01dd 0E       		.uleb128 0xe
 2616 01de 52010000 		.4byte	.LASF29
 2617 01e2 01       		.byte	0x1
 2618 01e3 2302     		.2byte	0x223
 2619 01e5 83000000 		.4byte	0x83
 2620 01e9 02       		.uleb128 0x2
 2621 01ea 91       		.byte	0x91
 2622 01eb 74       		.sleb128 -12
 2623 01ec 00       		.byte	0
 2624 01ed 0A       		.uleb128 0xa
 2625 01ee 59010000 		.4byte	.LASF30
 2626 01f2 01       		.byte	0x1
 2627 01f3 4A02     		.2byte	0x24a
 2628 01f5 00000000 		.4byte	.LFB41
 2629 01f9 DC000000 		.4byte	.LFE41-.LFB41
 2630 01fd 01       		.uleb128 0x1
 2631 01fe 9C       		.byte	0x9c
 2632 01ff 40020000 		.4byte	0x240
 2633 0203 0E       		.uleb128 0xe
 2634 0204 30020000 		.4byte	.LASF31
ARM GAS  C:\Users\d4hhm\AppData\Local\Temp\ccLEMF4D.s 			page 87


 2635 0208 01       		.byte	0x1
 2636 0209 4A02     		.2byte	0x24a
 2637 020b 83000000 		.4byte	0x83
 2638 020f 02       		.uleb128 0x2
 2639 0210 91       		.byte	0x91
 2640 0211 64       		.sleb128 -28
 2641 0212 0B       		.uleb128 0xb
 2642 0213 1E030000 		.4byte	.LASF32
 2643 0217 01       		.byte	0x1
 2644 0218 4C02     		.2byte	0x24c
 2645 021a 83000000 		.4byte	0x83
 2646 021e 02       		.uleb128 0x2
 2647 021f 91       		.byte	0x91
 2648 0220 74       		.sleb128 -12
 2649 0221 0B       		.uleb128 0xb
 2650 0222 F4050000 		.4byte	.LASF33
 2651 0226 01       		.byte	0x1
 2652 0227 4D02     		.2byte	0x24d
 2653 0229 83000000 		.4byte	0x83
 2654 022d 02       		.uleb128 0x2
 2655 022e 91       		.byte	0x91
 2656 022f 6C       		.sleb128 -20
 2657 0230 0B       		.uleb128 0xb
 2658 0231 F3040000 		.4byte	.LASF28
 2659 0235 01       		.byte	0x1
 2660 0236 4E02     		.2byte	0x24e
 2661 0238 83000000 		.4byte	0x83
 2662 023c 02       		.uleb128 0x2
 2663 023d 91       		.byte	0x91
 2664 023e 70       		.sleb128 -16
 2665 023f 00       		.byte	0
 2666 0240 0C       		.uleb128 0xc
 2667 0241 00030000 		.4byte	.LASF35
 2668 0245 01       		.byte	0x1
 2669 0246 9F02     		.2byte	0x29f
 2670 0248 00000000 		.4byte	.LFB42
 2671 024c 58000000 		.4byte	.LFE42-.LFB42
 2672 0250 01       		.uleb128 0x1
 2673 0251 9C       		.byte	0x9c
 2674 0252 0F       		.uleb128 0xf
 2675 0253 08070000 		.4byte	.LASF65
 2676 0257 01       		.byte	0x1
 2677 0258 C802     		.2byte	0x2c8
 2678 025a 83000000 		.4byte	0x83
 2679 025e 00000000 		.4byte	.LFB43
 2680 0262 1C000000 		.4byte	.LFE43-.LFB43
 2681 0266 01       		.uleb128 0x1
 2682 0267 9C       		.byte	0x9c
 2683 0268 10       		.uleb128 0x10
 2684 0269 FA000000 		.4byte	.LASF37
 2685 026d 01       		.byte	0x1
 2686 026e E602     		.2byte	0x2e6
 2687 0270 77000000 		.4byte	0x77
 2688 0274 00000000 		.4byte	.LFB44
 2689 0278 1C000000 		.4byte	.LFE44-.LFB44
 2690 027c 01       		.uleb128 0x1
 2691 027d 9C       		.byte	0x9c
ARM GAS  C:\Users\d4hhm\AppData\Local\Temp\ccLEMF4D.s 			page 88


 2692 027e 92020000 		.4byte	0x292
 2693 0282 0E       		.uleb128 0xe
 2694 0283 52010000 		.4byte	.LASF29
 2695 0287 01       		.byte	0x1
 2696 0288 E602     		.2byte	0x2e6
 2697 028a 83000000 		.4byte	0x83
 2698 028e 02       		.uleb128 0x2
 2699 028f 91       		.byte	0x91
 2700 0290 74       		.sleb128 -12
 2701 0291 00       		.byte	0
 2702 0292 11       		.uleb128 0x11
 2703 0293 DB060000 		.4byte	.LASF38
 2704 0297 01       		.byte	0x1
 2705 0298 0103     		.2byte	0x301
 2706 029a 00000000 		.4byte	.LFB45
 2707 029e 28000000 		.4byte	.LFE45-.LFB45
 2708 02a2 01       		.uleb128 0x1
 2709 02a3 9C       		.byte	0x9c
 2710 02a4 C7020000 		.4byte	0x2c7
 2711 02a8 0E       		.uleb128 0xe
 2712 02a9 52010000 		.4byte	.LASF29
 2713 02ad 01       		.byte	0x1
 2714 02ae 0103     		.2byte	0x301
 2715 02b0 83000000 		.4byte	0x83
 2716 02b4 02       		.uleb128 0x2
 2717 02b5 91       		.byte	0x91
 2718 02b6 74       		.sleb128 -12
 2719 02b7 0E       		.uleb128 0xe
 2720 02b8 F3010000 		.4byte	.LASF39
 2721 02bc 01       		.byte	0x1
 2722 02bd 0103     		.2byte	0x301
 2723 02bf 77000000 		.4byte	0x77
 2724 02c3 02       		.uleb128 0x2
 2725 02c4 91       		.byte	0x91
 2726 02c5 72       		.sleb128 -14
 2727 02c6 00       		.byte	0
 2728 02c7 10       		.uleb128 0x10
 2729 02c8 1D060000 		.4byte	.LASF40
 2730 02cc 01       		.byte	0x1
 2731 02cd 5403     		.2byte	0x354
 2732 02cf 83000000 		.4byte	0x83
 2733 02d3 00000000 		.4byte	.LFB46
 2734 02d7 18000000 		.4byte	.LFE46-.LFB46
 2735 02db 01       		.uleb128 0x1
 2736 02dc 9C       		.byte	0x9c
 2737 02dd F1020000 		.4byte	0x2f1
 2738 02e1 0E       		.uleb128 0xe
 2739 02e2 30020000 		.4byte	.LASF31
 2740 02e6 01       		.byte	0x1
 2741 02e7 5403     		.2byte	0x354
 2742 02e9 83000000 		.4byte	0x83
 2743 02ed 02       		.uleb128 0x2
 2744 02ee 91       		.byte	0x91
 2745 02ef 74       		.sleb128 -12
 2746 02f0 00       		.byte	0
 2747 02f1 0A       		.uleb128 0xa
 2748 02f2 08050000 		.4byte	.LASF41
ARM GAS  C:\Users\d4hhm\AppData\Local\Temp\ccLEMF4D.s 			page 89


 2749 02f6 01       		.byte	0x1
 2750 02f7 6F03     		.2byte	0x36f
 2751 02f9 00000000 		.4byte	.LFB47
 2752 02fd 28000000 		.4byte	.LFE47-.LFB47
 2753 0301 01       		.uleb128 0x1
 2754 0302 9C       		.byte	0x9c
 2755 0303 17030000 		.4byte	0x317
 2756 0307 0B       		.uleb128 0xb
 2757 0308 F3040000 		.4byte	.LASF28
 2758 030c 01       		.byte	0x1
 2759 030d 7103     		.2byte	0x371
 2760 030f 83000000 		.4byte	0x83
 2761 0313 02       		.uleb128 0x2
 2762 0314 91       		.byte	0x91
 2763 0315 74       		.sleb128 -12
 2764 0316 00       		.byte	0
 2765 0317 0A       		.uleb128 0xa
 2766 0318 68040000 		.4byte	.LASF42
 2767 031c 01       		.byte	0x1
 2768 031d 0D04     		.2byte	0x40d
 2769 031f 00000000 		.4byte	.LFB48
 2770 0323 B0000000 		.4byte	.LFE48-.LFB48
 2771 0327 01       		.uleb128 0x1
 2772 0328 9C       		.byte	0x9c
 2773 0329 88030000 		.4byte	0x388
 2774 032d 0E       		.uleb128 0xe
 2775 032e 52010000 		.4byte	.LASF29
 2776 0332 01       		.byte	0x1
 2777 0333 0D04     		.2byte	0x40d
 2778 0335 83000000 		.4byte	0x83
 2779 0339 02       		.uleb128 0x2
 2780 033a 91       		.byte	0x91
 2781 033b 5C       		.sleb128 -36
 2782 033c 0B       		.uleb128 0xb
 2783 033d 23020000 		.4byte	.LASF43
 2784 0341 01       		.byte	0x1
 2785 0342 0F04     		.2byte	0x40f
 2786 0344 6B000000 		.4byte	0x6b
 2787 0348 02       		.uleb128 0x2
 2788 0349 91       		.byte	0x91
 2789 034a 6B       		.sleb128 -21
 2790 034b 0B       		.uleb128 0xb
 2791 034c AC070000 		.4byte	.LASF44
 2792 0350 01       		.byte	0x1
 2793 0351 1004     		.2byte	0x410
 2794 0353 6B000000 		.4byte	0x6b
 2795 0357 02       		.uleb128 0x2
 2796 0358 91       		.byte	0x91
 2797 0359 6A       		.sleb128 -22
 2798 035a 0B       		.uleb128 0xb
 2799 035b 7D060000 		.4byte	.LASF45
 2800 035f 01       		.byte	0x1
 2801 0360 1104     		.2byte	0x411
 2802 0362 6B000000 		.4byte	0x6b
 2803 0366 02       		.uleb128 0x2
 2804 0367 91       		.byte	0x91
 2805 0368 69       		.sleb128 -23
ARM GAS  C:\Users\d4hhm\AppData\Local\Temp\ccLEMF4D.s 			page 90


 2806 0369 0B       		.uleb128 0xb
 2807 036a 1B080000 		.4byte	.LASF46
 2808 036e 01       		.byte	0x1
 2809 036f 1204     		.2byte	0x412
 2810 0371 83000000 		.4byte	0x83
 2811 0375 02       		.uleb128 0x2
 2812 0376 91       		.byte	0x91
 2813 0377 64       		.sleb128 -28
 2814 0378 0B       		.uleb128 0xb
 2815 0379 78060000 		.4byte	.LASF47
 2816 037d 01       		.byte	0x1
 2817 037e 1304     		.2byte	0x413
 2818 0380 83000000 		.4byte	0x83
 2819 0384 02       		.uleb128 0x2
 2820 0385 91       		.byte	0x91
 2821 0386 6C       		.sleb128 -20
 2822 0387 00       		.byte	0
 2823 0388 0A       		.uleb128 0xa
 2824 0389 55060000 		.4byte	.LASF48
 2825 038d 01       		.byte	0x1
 2826 038e 4204     		.2byte	0x442
 2827 0390 00000000 		.4byte	.LFB49
 2828 0394 1C010000 		.4byte	.LFE49-.LFB49
 2829 0398 01       		.uleb128 0x1
 2830 0399 9C       		.byte	0x9c
 2831 039a 17040000 		.4byte	0x417
 2832 039e 0E       		.uleb128 0xe
 2833 039f 52010000 		.4byte	.LASF29
 2834 03a3 01       		.byte	0x1
 2835 03a4 4204     		.2byte	0x442
 2836 03a6 83000000 		.4byte	0x83
 2837 03aa 02       		.uleb128 0x2
 2838 03ab 91       		.byte	0x91
 2839 03ac 54       		.sleb128 -44
 2840 03ad 0B       		.uleb128 0xb
 2841 03ae 7D060000 		.4byte	.LASF45
 2842 03b2 01       		.byte	0x1
 2843 03b3 4404     		.2byte	0x444
 2844 03b5 6B000000 		.4byte	0x6b
 2845 03b9 02       		.uleb128 0x2
 2846 03ba 91       		.byte	0x91
 2847 03bb 5F       		.sleb128 -33
 2848 03bc 0B       		.uleb128 0xb
 2849 03bd 1B080000 		.4byte	.LASF46
 2850 03c1 01       		.byte	0x1
 2851 03c2 4504     		.2byte	0x445
 2852 03c4 83000000 		.4byte	0x83
 2853 03c8 02       		.uleb128 0x2
 2854 03c9 91       		.byte	0x91
 2855 03ca 58       		.sleb128 -40
 2856 03cb 0B       		.uleb128 0xb
 2857 03cc 78060000 		.4byte	.LASF47
 2858 03d0 01       		.byte	0x1
 2859 03d1 4704     		.2byte	0x447
 2860 03d3 83000000 		.4byte	0x83
 2861 03d7 02       		.uleb128 0x2
 2862 03d8 91       		.byte	0x91
ARM GAS  C:\Users\d4hhm\AppData\Local\Temp\ccLEMF4D.s 			page 91


 2863 03d9 68       		.sleb128 -24
 2864 03da 0B       		.uleb128 0xb
 2865 03db AC070000 		.4byte	.LASF44
 2866 03df 01       		.byte	0x1
 2867 03e0 4804     		.2byte	0x448
 2868 03e2 6B000000 		.4byte	0x6b
 2869 03e6 02       		.uleb128 0x2
 2870 03e7 91       		.byte	0x91
 2871 03e8 67       		.sleb128 -25
 2872 03e9 0B       		.uleb128 0xb
 2873 03ea 23020000 		.4byte	.LASF43
 2874 03ee 01       		.byte	0x1
 2875 03ef 4904     		.2byte	0x449
 2876 03f1 6B000000 		.4byte	0x6b
 2877 03f5 02       		.uleb128 0x2
 2878 03f6 91       		.byte	0x91
 2879 03f7 66       		.sleb128 -26
 2880 03f8 0B       		.uleb128 0xb
 2881 03f9 4A050000 		.4byte	.LASF49
 2882 03fd 01       		.byte	0x1
 2883 03fe 4B04     		.2byte	0x44b
 2884 0400 83000000 		.4byte	0x83
 2885 0404 02       		.uleb128 0x2
 2886 0405 91       		.byte	0x91
 2887 0406 6C       		.sleb128 -20
 2888 0407 0B       		.uleb128 0xb
 2889 0408 C1020000 		.4byte	.LASF50
 2890 040c 01       		.byte	0x1
 2891 040d 4C04     		.2byte	0x44c
 2892 040f 83000000 		.4byte	0x83
 2893 0413 02       		.uleb128 0x2
 2894 0414 91       		.byte	0x91
 2895 0415 60       		.sleb128 -32
 2896 0416 00       		.byte	0
 2897 0417 0A       		.uleb128 0xa
 2898 0418 47070000 		.4byte	.LASF51
 2899 041c 01       		.byte	0x1
 2900 041d 8F04     		.2byte	0x48f
 2901 041f 00000000 		.4byte	.LFB50
 2902 0423 5E000000 		.4byte	.LFE50-.LFB50
 2903 0427 01       		.uleb128 0x1
 2904 0428 9C       		.byte	0x9c
 2905 0429 6A040000 		.4byte	0x46a
 2906 042d 0E       		.uleb128 0xe
 2907 042e EA050000 		.4byte	.LASF52
 2908 0432 01       		.byte	0x1
 2909 0433 8F04     		.2byte	0x48f
 2910 0435 83000000 		.4byte	0x83
 2911 0439 02       		.uleb128 0x2
 2912 043a 91       		.byte	0x91
 2913 043b 64       		.sleb128 -28
 2914 043c 0B       		.uleb128 0xb
 2915 043d 56030000 		.4byte	.LASF21
 2916 0441 01       		.byte	0x1
 2917 0442 9104     		.2byte	0x491
 2918 0444 6B000000 		.4byte	0x6b
 2919 0448 02       		.uleb128 0x2
ARM GAS  C:\Users\d4hhm\AppData\Local\Temp\ccLEMF4D.s 			page 92


 2920 0449 91       		.byte	0x91
 2921 044a 77       		.sleb128 -9
 2922 044b 0B       		.uleb128 0xb
 2923 044c 4F040000 		.4byte	.LASF53
 2924 0450 01       		.byte	0x1
 2925 0451 9604     		.2byte	0x496
 2926 0453 83000000 		.4byte	0x83
 2927 0457 02       		.uleb128 0x2
 2928 0458 91       		.byte	0x91
 2929 0459 70       		.sleb128 -16
 2930 045a 0B       		.uleb128 0xb
 2931 045b BA070000 		.4byte	.LASF54
 2932 045f 01       		.byte	0x1
 2933 0460 9704     		.2byte	0x497
 2934 0462 83000000 		.4byte	0x83
 2935 0466 02       		.uleb128 0x2
 2936 0467 91       		.byte	0x91
 2937 0468 6C       		.sleb128 -20
 2938 0469 00       		.byte	0
 2939 046a 0A       		.uleb128 0xa
 2940 046b F9010000 		.4byte	.LASF55
 2941 046f 01       		.byte	0x1
 2942 0470 D804     		.2byte	0x4d8
 2943 0472 00000000 		.4byte	.LFB51
 2944 0476 58000000 		.4byte	.LFE51-.LFB51
 2945 047a 01       		.uleb128 0x1
 2946 047b 9C       		.byte	0x9c
 2947 047c 90040000 		.4byte	0x490
 2948 0480 0B       		.uleb128 0xb
 2949 0481 1B080000 		.4byte	.LASF46
 2950 0485 01       		.byte	0x1
 2951 0486 DA04     		.2byte	0x4da
 2952 0488 83000000 		.4byte	0x83
 2953 048c 02       		.uleb128 0x2
 2954 048d 91       		.byte	0x91
 2955 048e 74       		.sleb128 -12
 2956 048f 00       		.byte	0
 2957 0490 11       		.uleb128 0x11
 2958 0491 D8010000 		.4byte	.LASF56
 2959 0495 01       		.byte	0x1
 2960 0496 0C05     		.2byte	0x50c
 2961 0498 00000000 		.4byte	.LFB52
 2962 049c 58000000 		.4byte	.LFE52-.LFB52
 2963 04a0 01       		.uleb128 0x1
 2964 04a1 9C       		.byte	0x9c
 2965 04a2 F2040000 		.4byte	0x4f2
 2966 04a6 0E       		.uleb128 0xe
 2967 04a7 EA050000 		.4byte	.LASF52
 2968 04ab 01       		.byte	0x1
 2969 04ac 0C05     		.2byte	0x50c
 2970 04ae 83000000 		.4byte	0x83
 2971 04b2 02       		.uleb128 0x2
 2972 04b3 91       		.byte	0x91
 2973 04b4 6C       		.sleb128 -20
 2974 04b5 0E       		.uleb128 0xe
 2975 04b6 6E060000 		.4byte	.LASF57
 2976 04ba 01       		.byte	0x1
ARM GAS  C:\Users\d4hhm\AppData\Local\Temp\ccLEMF4D.s 			page 93


 2977 04bb 0C05     		.2byte	0x50c
 2978 04bd 83000000 		.4byte	0x83
 2979 04c1 02       		.uleb128 0x2
 2980 04c2 91       		.byte	0x91
 2981 04c3 68       		.sleb128 -24
 2982 04c4 0E       		.uleb128 0xe
 2983 04c5 B3050000 		.4byte	.LASF58
 2984 04c9 01       		.byte	0x1
 2985 04ca 0C05     		.2byte	0x50c
 2986 04cc 83000000 		.4byte	0x83
 2987 04d0 02       		.uleb128 0x2
 2988 04d1 91       		.byte	0x91
 2989 04d2 64       		.sleb128 -28
 2990 04d3 0B       		.uleb128 0xb
 2991 04d4 23020000 		.4byte	.LASF43
 2992 04d8 01       		.byte	0x1
 2993 04d9 0E05     		.2byte	0x50e
 2994 04db 83000000 		.4byte	0x83
 2995 04df 02       		.uleb128 0x2
 2996 04e0 91       		.byte	0x91
 2997 04e1 74       		.sleb128 -12
 2998 04e2 0B       		.uleb128 0xb
 2999 04e3 1B080000 		.4byte	.LASF46
 3000 04e7 01       		.byte	0x1
 3001 04e8 0F05     		.2byte	0x50f
 3002 04ea 83000000 		.4byte	0x83
 3003 04ee 02       		.uleb128 0x2
 3004 04ef 91       		.byte	0x91
 3005 04f0 70       		.sleb128 -16
 3006 04f1 00       		.byte	0
 3007 04f2 0A       		.uleb128 0xa
 3008 04f3 F5060000 		.4byte	.LASF59
 3009 04f7 01       		.byte	0x1
 3010 04f8 3005     		.2byte	0x530
 3011 04fa 00000000 		.4byte	.LFB53
 3012 04fe 14010000 		.4byte	.LFE53-.LFB53
 3013 0502 01       		.uleb128 0x1
 3014 0503 9C       		.byte	0x9c
 3015 0504 54050000 		.4byte	0x554
 3016 0508 0E       		.uleb128 0xe
 3017 0509 52010000 		.4byte	.LASF29
 3018 050d 01       		.byte	0x1
 3019 050e 3005     		.2byte	0x530
 3020 0510 83000000 		.4byte	0x83
 3021 0514 02       		.uleb128 0x2
 3022 0515 91       		.byte	0x91
 3023 0516 5C       		.sleb128 -36
 3024 0517 0B       		.uleb128 0xb
 3025 0518 30020000 		.4byte	.LASF31
 3026 051c 01       		.byte	0x1
 3027 051d 3205     		.2byte	0x532
 3028 051f 6B000000 		.4byte	0x6b
 3029 0523 02       		.uleb128 0x2
 3030 0524 91       		.byte	0x91
 3031 0525 6F       		.sleb128 -17
 3032 0526 0B       		.uleb128 0xb
 3033 0527 7D060000 		.4byte	.LASF45
ARM GAS  C:\Users\d4hhm\AppData\Local\Temp\ccLEMF4D.s 			page 94


 3034 052b 01       		.byte	0x1
 3035 052c 3305     		.2byte	0x533
 3036 052e 6B000000 		.4byte	0x6b
 3037 0532 02       		.uleb128 0x2
 3038 0533 91       		.byte	0x91
 3039 0534 63       		.sleb128 -29
 3040 0535 0B       		.uleb128 0xb
 3041 0536 FC040000 		.4byte	.LASF22
 3042 053a 01       		.byte	0x1
 3043 053b 3405     		.2byte	0x534
 3044 053d 83000000 		.4byte	0x83
 3045 0541 02       		.uleb128 0x2
 3046 0542 91       		.byte	0x91
 3047 0543 64       		.sleb128 -28
 3048 0544 0B       		.uleb128 0xb
 3049 0545 43020000 		.4byte	.LASF60
 3050 0549 01       		.byte	0x1
 3051 054a 3505     		.2byte	0x535
 3052 054c 83000000 		.4byte	0x83
 3053 0550 02       		.uleb128 0x2
 3054 0551 91       		.byte	0x91
 3055 0552 68       		.sleb128 -24
 3056 0553 00       		.byte	0
 3057 0554 0A       		.uleb128 0xa
 3058 0555 D6050000 		.4byte	.LASF61
 3059 0559 01       		.byte	0x1
 3060 055a F505     		.2byte	0x5f5
 3061 055c 00000000 		.4byte	.LFB54
 3062 0560 74000000 		.4byte	.LFE54-.LFB54
 3063 0564 01       		.uleb128 0x1
 3064 0565 9C       		.byte	0x9c
 3065 0566 89050000 		.4byte	0x589
 3066 056a 0E       		.uleb128 0xe
 3067 056b 52010000 		.4byte	.LASF29
 3068 056f 01       		.byte	0x1
 3069 0570 F505     		.2byte	0x5f5
 3070 0572 83000000 		.4byte	0x83
 3071 0576 02       		.uleb128 0x2
 3072 0577 91       		.byte	0x91
 3073 0578 6C       		.sleb128 -20
 3074 0579 0B       		.uleb128 0xb
 3075 057a FC040000 		.4byte	.LASF22
 3076 057e 01       		.byte	0x1
 3077 057f F705     		.2byte	0x5f7
 3078 0581 83000000 		.4byte	0x83
 3079 0585 02       		.uleb128 0x2
 3080 0586 91       		.byte	0x91
 3081 0587 74       		.sleb128 -12
 3082 0588 00       		.byte	0
 3083 0589 11       		.uleb128 0x11
 3084 058a A0030000 		.4byte	.LASF62
 3085 058e 01       		.byte	0x1
 3086 058f 5206     		.2byte	0x652
 3087 0591 00000000 		.4byte	.LFB55
 3088 0595 7C000000 		.4byte	.LFE55-.LFB55
 3089 0599 01       		.uleb128 0x1
 3090 059a 9C       		.byte	0x9c
ARM GAS  C:\Users\d4hhm\AppData\Local\Temp\ccLEMF4D.s 			page 95


 3091 059b CD050000 		.4byte	0x5cd
 3092 059f 0E       		.uleb128 0xe
 3093 05a0 6E060000 		.4byte	.LASF57
 3094 05a4 01       		.byte	0x1
 3095 05a5 5206     		.2byte	0x652
 3096 05a7 83000000 		.4byte	0x83
 3097 05ab 02       		.uleb128 0x2
 3098 05ac 91       		.byte	0x91
 3099 05ad 6C       		.sleb128 -20
 3100 05ae 0E       		.uleb128 0xe
 3101 05af B3050000 		.4byte	.LASF58
 3102 05b3 01       		.byte	0x1
 3103 05b4 5206     		.2byte	0x652
 3104 05b6 83000000 		.4byte	0x83
 3105 05ba 02       		.uleb128 0x2
 3106 05bb 91       		.byte	0x91
 3107 05bc 68       		.sleb128 -24
 3108 05bd 0B       		.uleb128 0xb
 3109 05be FC040000 		.4byte	.LASF22
 3110 05c2 01       		.byte	0x1
 3111 05c3 5406     		.2byte	0x654
 3112 05c5 83000000 		.4byte	0x83
 3113 05c9 02       		.uleb128 0x2
 3114 05ca 91       		.byte	0x91
 3115 05cb 74       		.sleb128 -12
 3116 05cc 00       		.byte	0
 3117 05cd 11       		.uleb128 0x11
 3118 05ce 65000000 		.4byte	.LASF63
 3119 05d2 01       		.byte	0x1
 3120 05d3 7506     		.2byte	0x675
 3121 05d5 00000000 		.4byte	.LFB56
 3122 05d9 34000000 		.4byte	.LFE56-.LFB56
 3123 05dd 01       		.uleb128 0x1
 3124 05de 9C       		.byte	0x9c
 3125 05df 02060000 		.4byte	0x602
 3126 05e3 0E       		.uleb128 0xe
 3127 05e4 8D010000 		.4byte	.LASF64
 3128 05e8 01       		.byte	0x1
 3129 05e9 7506     		.2byte	0x675
 3130 05eb 83000000 		.4byte	0x83
 3131 05ef 02       		.uleb128 0x2
 3132 05f0 91       		.byte	0x91
 3133 05f1 6C       		.sleb128 -20
 3134 05f2 0B       		.uleb128 0xb
 3135 05f3 FC040000 		.4byte	.LASF22
 3136 05f7 01       		.byte	0x1
 3137 05f8 7706     		.2byte	0x677
 3138 05fa 83000000 		.4byte	0x83
 3139 05fe 02       		.uleb128 0x2
 3140 05ff 91       		.byte	0x91
 3141 0600 74       		.sleb128 -12
 3142 0601 00       		.byte	0
 3143 0602 0F       		.uleb128 0xf
 3144 0603 DB020000 		.4byte	.LASF66
 3145 0607 01       		.byte	0x1
 3146 0608 9906     		.2byte	0x699
 3147 060a 83000000 		.4byte	0x83
ARM GAS  C:\Users\d4hhm\AppData\Local\Temp\ccLEMF4D.s 			page 96


 3148 060e 00000000 		.4byte	.LFB57
 3149 0612 2C000000 		.4byte	.LFE57-.LFB57
 3150 0616 01       		.uleb128 0x1
 3151 0617 9C       		.byte	0x9c
 3152 0618 10       		.uleb128 0x10
 3153 0619 C7070000 		.4byte	.LASF67
 3154 061d 01       		.byte	0x1
 3155 061e B506     		.2byte	0x6b5
 3156 0620 83000000 		.4byte	0x83
 3157 0624 00000000 		.4byte	.LFB58
 3158 0628 44000000 		.4byte	.LFE58-.LFB58
 3159 062c 01       		.uleb128 0x1
 3160 062d 9C       		.byte	0x9c
 3161 062e 6F060000 		.4byte	0x66f
 3162 0632 0E       		.uleb128 0xe
 3163 0633 3D020000 		.4byte	.LASF68
 3164 0637 01       		.byte	0x1
 3165 0638 B506     		.2byte	0x6b5
 3166 063a DA000000 		.4byte	0xda
 3167 063e 02       		.uleb128 0x2
 3168 063f 91       		.byte	0x91
 3169 0640 6C       		.sleb128 -20
 3170 0641 0E       		.uleb128 0xe
 3171 0642 B5010000 		.4byte	.LASF69
 3172 0646 01       		.byte	0x1
 3173 0647 B506     		.2byte	0x6b5
 3174 0649 83000000 		.4byte	0x83
 3175 064d 02       		.uleb128 0x2
 3176 064e 91       		.byte	0x91
 3177 064f 68       		.sleb128 -24
 3178 0650 0B       		.uleb128 0xb
 3179 0651 75030000 		.4byte	.LASF70
 3180 0655 01       		.byte	0x1
 3181 0656 B706     		.2byte	0x6b7
 3182 0658 83000000 		.4byte	0x83
 3183 065c 02       		.uleb128 0x2
 3184 065d 91       		.byte	0x91
 3185 065e 74       		.sleb128 -12
 3186 065f 0B       		.uleb128 0xb
 3187 0660 C4000000 		.4byte	.LASF71
 3188 0664 01       		.byte	0x1
 3189 0665 B806     		.2byte	0x6b8
 3190 0667 6B000000 		.4byte	0x6b
 3191 066b 02       		.uleb128 0x2
 3192 066c 91       		.byte	0x91
 3193 066d 73       		.sleb128 -13
 3194 066e 00       		.byte	0
 3195 066f 11       		.uleb128 0x11
 3196 0670 AA060000 		.4byte	.LASF72
 3197 0674 01       		.byte	0x1
 3198 0675 E006     		.2byte	0x6e0
 3199 0677 00000000 		.4byte	.LFB59
 3200 067b 6A000000 		.4byte	.LFE59-.LFB59
 3201 067f 01       		.uleb128 0x1
 3202 0680 9C       		.byte	0x9c
 3203 0681 D1060000 		.4byte	0x6d1
 3204 0685 0E       		.uleb128 0xe
ARM GAS  C:\Users\d4hhm\AppData\Local\Temp\ccLEMF4D.s 			page 97


 3205 0686 3D020000 		.4byte	.LASF68
 3206 068a 01       		.byte	0x1
 3207 068b E006     		.2byte	0x6e0
 3208 068d D4000000 		.4byte	0xd4
 3209 0691 02       		.uleb128 0x2
 3210 0692 91       		.byte	0x91
 3211 0693 6C       		.sleb128 -20
 3212 0694 0E       		.uleb128 0xe
 3213 0695 B5010000 		.4byte	.LASF69
 3214 0699 01       		.byte	0x1
 3215 069a E006     		.2byte	0x6e0
 3216 069c 83000000 		.4byte	0x83
 3217 06a0 02       		.uleb128 0x2
 3218 06a1 91       		.byte	0x91
 3219 06a2 68       		.sleb128 -24
 3220 06a3 0E       		.uleb128 0xe
 3221 06a4 F3010000 		.4byte	.LASF39
 3222 06a8 01       		.byte	0x1
 3223 06a9 E006     		.2byte	0x6e0
 3224 06ab 83000000 		.4byte	0x83
 3225 06af 02       		.uleb128 0x2
 3226 06b0 91       		.byte	0x91
 3227 06b1 64       		.sleb128 -28
 3228 06b2 0B       		.uleb128 0xb
 3229 06b3 75030000 		.4byte	.LASF70
 3230 06b7 01       		.byte	0x1
 3231 06b8 E206     		.2byte	0x6e2
 3232 06ba 83000000 		.4byte	0x83
 3233 06be 02       		.uleb128 0x2
 3234 06bf 91       		.byte	0x91
 3235 06c0 74       		.sleb128 -12
 3236 06c1 0B       		.uleb128 0xb
 3237 06c2 C4000000 		.4byte	.LASF71
 3238 06c6 01       		.byte	0x1
 3239 06c7 E306     		.2byte	0x6e3
 3240 06c9 6B000000 		.4byte	0x6b
 3241 06cd 02       		.uleb128 0x2
 3242 06ce 91       		.byte	0x91
 3243 06cf 73       		.sleb128 -13
 3244 06d0 00       		.byte	0
 3245 06d1 10       		.uleb128 0x10
 3246 06d2 38030000 		.4byte	.LASF73
 3247 06d6 01       		.byte	0x1
 3248 06d7 1207     		.2byte	0x712
 3249 06d9 83000000 		.4byte	0x83
 3250 06dd 00000000 		.4byte	.LFB60
 3251 06e1 12000000 		.4byte	.LFE60-.LFB60
 3252 06e5 01       		.uleb128 0x1
 3253 06e6 9C       		.byte	0x9c
 3254 06e7 FB060000 		.4byte	0x6fb
 3255 06eb 0E       		.uleb128 0xe
 3256 06ec 52010000 		.4byte	.LASF29
 3257 06f0 01       		.byte	0x1
 3258 06f1 1207     		.2byte	0x712
 3259 06f3 83000000 		.4byte	0x83
 3260 06f7 02       		.uleb128 0x2
 3261 06f8 91       		.byte	0x91
ARM GAS  C:\Users\d4hhm\AppData\Local\Temp\ccLEMF4D.s 			page 98


 3262 06f9 74       		.sleb128 -12
 3263 06fa 00       		.byte	0
 3264 06fb 10       		.uleb128 0x10
 3265 06fc 66070000 		.4byte	.LASF74
 3266 0700 01       		.byte	0x1
 3267 0701 5107     		.2byte	0x751
 3268 0703 83000000 		.4byte	0x83
 3269 0707 00000000 		.4byte	.LFB61
 3270 070b 12000000 		.4byte	.LFE61-.LFB61
 3271 070f 01       		.uleb128 0x1
 3272 0710 9C       		.byte	0x9c
 3273 0711 25070000 		.4byte	0x725
 3274 0715 0E       		.uleb128 0xe
 3275 0716 52010000 		.4byte	.LASF29
 3276 071a 01       		.byte	0x1
 3277 071b 5107     		.2byte	0x751
 3278 071d 83000000 		.4byte	0x83
 3279 0721 02       		.uleb128 0x2
 3280 0722 91       		.byte	0x91
 3281 0723 74       		.sleb128 -12
 3282 0724 00       		.byte	0
 3283 0725 10       		.uleb128 0x10
 3284 0726 9E020000 		.4byte	.LASF75
 3285 072a 01       		.byte	0x1
 3286 072b 8F07     		.2byte	0x78f
 3287 072d 83000000 		.4byte	0x83
 3288 0731 00000000 		.4byte	.LFB62
 3289 0735 12000000 		.4byte	.LFE62-.LFB62
 3290 0739 01       		.uleb128 0x1
 3291 073a 9C       		.byte	0x9c
 3292 073b 4F070000 		.4byte	0x74f
 3293 073f 0E       		.uleb128 0xe
 3294 0740 52010000 		.4byte	.LASF29
 3295 0744 01       		.byte	0x1
 3296 0745 8F07     		.2byte	0x78f
 3297 0747 83000000 		.4byte	0x83
 3298 074b 02       		.uleb128 0x2
 3299 074c 91       		.byte	0x91
 3300 074d 74       		.sleb128 -12
 3301 074e 00       		.byte	0
 3302 074f 10       		.uleb128 0x10
 3303 0750 1D010000 		.4byte	.LASF76
 3304 0754 01       		.byte	0x1
 3305 0755 C707     		.2byte	0x7c7
 3306 0757 83000000 		.4byte	0x83
 3307 075b 00000000 		.4byte	.LFB63
 3308 075f 12000000 		.4byte	.LFE63-.LFB63
 3309 0763 01       		.uleb128 0x1
 3310 0764 9C       		.byte	0x9c
 3311 0765 79070000 		.4byte	0x779
 3312 0769 0E       		.uleb128 0xe
 3313 076a 52010000 		.4byte	.LASF29
 3314 076e 01       		.byte	0x1
 3315 076f C707     		.2byte	0x7c7
 3316 0771 83000000 		.4byte	0x83
 3317 0775 02       		.uleb128 0x2
 3318 0776 91       		.byte	0x91
ARM GAS  C:\Users\d4hhm\AppData\Local\Temp\ccLEMF4D.s 			page 99


 3319 0777 74       		.sleb128 -12
 3320 0778 00       		.byte	0
 3321 0779 0F       		.uleb128 0xf
 3322 077a 2C080000 		.4byte	.LASF77
 3323 077e 01       		.byte	0x1
 3324 077f 0108     		.2byte	0x801
 3325 0781 83000000 		.4byte	0x83
 3326 0785 00000000 		.4byte	.LFB64
 3327 0789 20000000 		.4byte	.LFE64-.LFB64
 3328 078d 01       		.uleb128 0x1
 3329 078e 9C       		.byte	0x9c
 3330 078f 11       		.uleb128 0x11
 3331 0790 71050000 		.4byte	.LASF78
 3332 0794 01       		.byte	0x1
 3333 0795 B108     		.2byte	0x8b1
 3334 0797 00000000 		.4byte	.LFB65
 3335 079b 24000000 		.4byte	.LFE65-.LFB65
 3336 079f 01       		.uleb128 0x1
 3337 07a0 9C       		.byte	0x9c
 3338 07a1 C4070000 		.4byte	0x7c4
 3339 07a5 0E       		.uleb128 0xe
 3340 07a6 52010000 		.4byte	.LASF29
 3341 07aa 01       		.byte	0x1
 3342 07ab B108     		.2byte	0x8b1
 3343 07ad 83000000 		.4byte	0x83
 3344 07b1 02       		.uleb128 0x2
 3345 07b2 91       		.byte	0x91
 3346 07b3 74       		.sleb128 -12
 3347 07b4 0E       		.uleb128 0xe
 3348 07b5 C1020000 		.4byte	.LASF50
 3349 07b9 01       		.byte	0x1
 3350 07ba B108     		.2byte	0x8b1
 3351 07bc 83000000 		.4byte	0x83
 3352 07c0 02       		.uleb128 0x2
 3353 07c1 91       		.byte	0x91
 3354 07c2 70       		.sleb128 -16
 3355 07c3 00       		.byte	0
 3356 07c4 12       		.uleb128 0x12
 3357 07c5 AC000000 		.4byte	.LASF79
 3358 07c9 01       		.byte	0x1
 3359 07ca 2D       		.byte	0x2d
 3360 07cb B0000000 		.4byte	0xb0
 3361 07cf 05       		.uleb128 0x5
 3362 07d0 03       		.byte	0x3
 3363 07d1 00000000 		.4byte	CapSense_1_csdStatusVar
 3364 07d5 12       		.uleb128 0x12
 3365 07d6 5A050000 		.4byte	.LASF80
 3366 07da 01       		.byte	0x1
 3367 07db 2E       		.byte	0x2e
 3368 07dc B0000000 		.4byte	0xb0
 3369 07e0 05       		.uleb128 0x5
 3370 07e1 03       		.byte	0x3
 3371 07e2 00000000 		.4byte	CapSense_1_sensorIndex
 3372 07e6 13       		.uleb128 0x13
 3373 07e7 77000000 		.4byte	0x77
 3374 07eb F6070000 		.4byte	0x7f6
 3375 07ef 14       		.uleb128 0x14
ARM GAS  C:\Users\d4hhm\AppData\Local\Temp\ccLEMF4D.s 			page 100


 3376 07f0 C6000000 		.4byte	0xc6
 3377 07f4 00       		.byte	0
 3378 07f5 00       		.byte	0
 3379 07f6 12       		.uleb128 0x12
 3380 07f7 6F010000 		.4byte	.LASF81
 3381 07fb 01       		.byte	0x1
 3382 07fc 31       		.byte	0x31
 3383 07fd E6070000 		.4byte	0x7e6
 3384 0801 05       		.uleb128 0x5
 3385 0802 03       		.byte	0x3
 3386 0803 00000000 		.4byte	CapSense_1_sensorRaw
 3387 0807 13       		.uleb128 0x13
 3388 0808 6B000000 		.4byte	0x6b
 3389 080c 17080000 		.4byte	0x817
 3390 0810 14       		.uleb128 0x14
 3391 0811 C6000000 		.4byte	0xc6
 3392 0815 00       		.byte	0
 3393 0816 00       		.byte	0
 3394 0817 12       		.uleb128 0x12
 3395 0818 D2040000 		.4byte	.LASF82
 3396 081c 01       		.byte	0x1
 3397 081d 3B       		.byte	0x3b
 3398 081e 07080000 		.4byte	0x807
 3399 0822 05       		.uleb128 0x5
 3400 0823 03       		.byte	0x3
 3401 0824 00000000 		.4byte	CapSense_1_unscannedSnsDriveMode
 3402 0828 12       		.uleb128 0x12
 3403 0829 93010000 		.4byte	.LASF83
 3404 082d 01       		.byte	0x1
 3405 082e 3E       		.byte	0x3e
 3406 082f 07080000 		.4byte	0x807
 3407 0833 05       		.uleb128 0x5
 3408 0834 03       		.byte	0x3
 3409 0835 00000000 		.4byte	CapSense_1_sensorEnableMaskBackup
 3410 0839 12       		.uleb128 0x12
 3411 083a 82020000 		.4byte	.LASF84
 3412 083e 01       		.byte	0x1
 3413 083f 41       		.byte	0x41
 3414 0840 07080000 		.4byte	0x807
 3415 0844 05       		.uleb128 0x5
 3416 0845 03       		.byte	0x3
 3417 0846 00000000 		.4byte	CapSense_1_sensorEnableMask
 3418 084a 13       		.uleb128 0x13
 3419 084b E0000000 		.4byte	0xe0
 3420 084f 5A080000 		.4byte	0x85a
 3421 0853 14       		.uleb128 0x14
 3422 0854 C6000000 		.4byte	0xc6
 3423 0858 00       		.byte	0
 3424 0859 00       		.byte	0
 3425 085a 12       		.uleb128 0x12
 3426 085b BE010000 		.4byte	.LASF85
 3427 085f 01       		.byte	0x1
 3428 0860 54       		.byte	0x54
 3429 0861 6B080000 		.4byte	0x86b
 3430 0865 05       		.uleb128 0x5
 3431 0866 03       		.byte	0x3
 3432 0867 00000000 		.4byte	CapSense_1_modulationIDAC
ARM GAS  C:\Users\d4hhm\AppData\Local\Temp\ccLEMF4D.s 			page 101


 3433 086b 07       		.uleb128 0x7
 3434 086c 4A080000 		.4byte	0x84a
 3435 0870 12       		.uleb128 0x12
 3436 0871 DE000000 		.4byte	.LASF86
 3437 0875 01       		.byte	0x1
 3438 0876 57       		.byte	0x57
 3439 0877 81080000 		.4byte	0x881
 3440 087b 05       		.uleb128 0x5
 3441 087c 03       		.byte	0x3
 3442 087d 00000000 		.4byte	CapSense_1_compensationIDAC
 3443 0881 07       		.uleb128 0x7
 3444 0882 4A080000 		.4byte	0x84a
 3445 0886 13       		.uleb128 0x13
 3446 0887 96080000 		.4byte	0x896
 3447 088b 96080000 		.4byte	0x896
 3448 088f 14       		.uleb128 0x14
 3449 0890 C6000000 		.4byte	0xc6
 3450 0894 00       		.byte	0
 3451 0895 00       		.byte	0
 3452 0896 07       		.uleb128 0x7
 3453 0897 83000000 		.4byte	0x83
 3454 089b 12       		.uleb128 0x12
 3455 089c 55020000 		.4byte	.LASF87
 3456 08a0 01       		.byte	0x1
 3457 08a1 5B       		.byte	0x5b
 3458 08a2 AC080000 		.4byte	0x8ac
 3459 08a6 05       		.uleb128 0x5
 3460 08a7 03       		.byte	0x3
 3461 08a8 00000000 		.4byte	CapSense_1_widgetResolution
 3462 08ac 07       		.uleb128 0x7
 3463 08ad 86080000 		.4byte	0x886
 3464 08b1 12       		.uleb128 0x12
 3465 08b2 FF050000 		.4byte	.LASF88
 3466 08b6 01       		.byte	0x1
 3467 08b7 5F       		.byte	0x5f
 3468 08b8 C2080000 		.4byte	0x8c2
 3469 08bc 05       		.uleb128 0x5
 3470 08bd 03       		.byte	0x3
 3471 08be 00000000 		.4byte	CapSense_1_senseClkDividerVal
 3472 08c2 07       		.uleb128 0x7
 3473 08c3 4A080000 		.4byte	0x84a
 3474 08c7 12       		.uleb128 0x12
 3475 08c8 94050000 		.4byte	.LASF89
 3476 08cc 01       		.byte	0x1
 3477 08cd 62       		.byte	0x62
 3478 08ce D8080000 		.4byte	0x8d8
 3479 08d2 05       		.uleb128 0x5
 3480 08d3 03       		.byte	0x3
 3481 08d4 00000000 		.4byte	CapSense_1_sampleClkDividerVal
 3482 08d8 07       		.uleb128 0x7
 3483 08d9 4A080000 		.4byte	0x84a
 3484 08dd 12       		.uleb128 0x12
 3485 08de 03080000 		.4byte	.LASF90
 3486 08e2 01       		.byte	0x1
 3487 08e3 67       		.byte	0x67
 3488 08e4 EE080000 		.4byte	0x8ee
 3489 08e8 05       		.uleb128 0x5
ARM GAS  C:\Users\d4hhm\AppData\Local\Temp\ccLEMF4D.s 			page 102


 3490 08e9 03       		.byte	0x3
 3491 08ea 00000000 		.4byte	CapSense_1_widgetNumber
 3492 08ee 07       		.uleb128 0x7
 3493 08ef 4A080000 		.4byte	0x84a
 3494 08f3 13       		.uleb128 0x13
 3495 08f4 09090000 		.4byte	0x909
 3496 08f8 03090000 		.4byte	0x903
 3497 08fc 14       		.uleb128 0x14
 3498 08fd C6000000 		.4byte	0xc6
 3499 0901 06       		.byte	0x6
 3500 0902 00       		.byte	0
 3501 0903 06       		.uleb128 0x6
 3502 0904 04       		.byte	0x4
 3503 0905 B5000000 		.4byte	0xb5
 3504 0909 07       		.uleb128 0x7
 3505 090a 03090000 		.4byte	0x903
 3506 090e 12       		.uleb128 0x12
 3507 090f 60030000 		.4byte	.LASF91
 3508 0913 01       		.byte	0x1
 3509 0914 6B       		.byte	0x6b
 3510 0915 1F090000 		.4byte	0x91f
 3511 0919 05       		.uleb128 0x5
 3512 091a 03       		.byte	0x3
 3513 091b 00000000 		.4byte	CapSense_1_prtSelTbl
 3514 091f 07       		.uleb128 0x7
 3515 0920 F3080000 		.4byte	0x8f3
 3516 0924 12       		.uleb128 0x12
 3517 0925 7F000000 		.4byte	.LASF92
 3518 0929 01       		.byte	0x1
 3519 092a 75       		.byte	0x75
 3520 092b 35090000 		.4byte	0x935
 3521 092f 05       		.uleb128 0x5
 3522 0930 03       		.byte	0x3
 3523 0931 00000000 		.4byte	CapSense_1_prtCfgTbl
 3524 0935 07       		.uleb128 0x7
 3525 0936 F3080000 		.4byte	0x8f3
 3526 093a 12       		.uleb128 0x12
 3527 093b BE040000 		.4byte	.LASF93
 3528 093f 01       		.byte	0x1
 3529 0940 7F       		.byte	0x7f
 3530 0941 4B090000 		.4byte	0x94b
 3531 0945 05       		.uleb128 0x5
 3532 0946 03       		.byte	0x3
 3533 0947 00000000 		.4byte	CapSense_1_prtDRTbl
 3534 094b 07       		.uleb128 0x7
 3535 094c F3080000 		.4byte	0x8f3
 3536 0950 13       		.uleb128 0x13
 3537 0951 03090000 		.4byte	0x903
 3538 0955 60090000 		.4byte	0x960
 3539 0959 14       		.uleb128 0x14
 3540 095a C6000000 		.4byte	0xc6
 3541 095e 00       		.byte	0
 3542 095f 00       		.byte	0
 3543 0960 12       		.uleb128 0x12
 3544 0961 CB000000 		.4byte	.LASF94
 3545 0965 01       		.byte	0x1
 3546 0966 44       		.byte	0x44
ARM GAS  C:\Users\d4hhm\AppData\Local\Temp\ccLEMF4D.s 			page 103


 3547 0967 50090000 		.4byte	0x950
 3548 096b 05       		.uleb128 0x5
 3549 096c 03       		.byte	0x3
 3550 096d 00000000 		.4byte	CapSense_1_pcTable
 3551 0971 12       		.uleb128 0x12
 3552 0972 00000000 		.4byte	.LASF95
 3553 0976 01       		.byte	0x1
 3554 0977 48       		.byte	0x48
 3555 0978 82090000 		.4byte	0x982
 3556 097c 05       		.uleb128 0x5
 3557 097d 03       		.byte	0x3
 3558 097e 00000000 		.4byte	CapSense_1_portTable
 3559 0982 07       		.uleb128 0x7
 3560 0983 4A080000 		.4byte	0x84a
 3561 0987 12       		.uleb128 0x12
 3562 0988 EE070000 		.4byte	.LASF96
 3563 098c 01       		.byte	0x1
 3564 098d 4C       		.byte	0x4c
 3565 098e 98090000 		.4byte	0x998
 3566 0992 05       		.uleb128 0x5
 3567 0993 03       		.byte	0x3
 3568 0994 00000000 		.4byte	CapSense_1_maskTable
 3569 0998 07       		.uleb128 0x7
 3570 0999 86080000 		.4byte	0x886
 3571 099d 12       		.uleb128 0x12
 3572 099e 44080000 		.4byte	.LASF97
 3573 09a2 01       		.byte	0x1
 3574 09a3 50       		.byte	0x50
 3575 09a4 AE090000 		.4byte	0x9ae
 3576 09a8 05       		.uleb128 0x5
 3577 09a9 03       		.byte	0x3
 3578 09aa 00000000 		.4byte	CapSense_1_pinShiftTbl
 3579 09ae 07       		.uleb128 0x7
 3580 09af 4A080000 		.4byte	0x84a
 3581 09b3 15       		.uleb128 0x15
 3582 09b4 94000000 		.4byte	.LASF98
 3583 09b8 03       		.byte	0x3
 3584 09b9 3A01     		.2byte	0x13a
 3585 09bb BF090000 		.4byte	0x9bf
 3586 09bf 07       		.uleb128 0x7
 3587 09c0 4A080000 		.4byte	0x84a
 3588 09c4 15       		.uleb128 0x15
 3589 09c5 3A060000 		.4byte	.LASF99
 3590 09c9 03       		.byte	0x3
 3591 09ca 3B01     		.2byte	0x13b
 3592 09cc D0090000 		.4byte	0x9d0
 3593 09d0 07       		.uleb128 0x7
 3594 09d1 4A080000 		.4byte	0x84a
 3595 09d5 12       		.uleb128 0x12
 3596 09d6 7C030000 		.4byte	.LASF100
 3597 09da 01       		.byte	0x1
 3598 09db 37       		.byte	0x37
 3599 09dc 6B000000 		.4byte	0x6b
 3600 09e0 05       		.uleb128 0x5
 3601 09e1 03       		.byte	0x3
 3602 09e2 00000000 		.4byte	CapSense_1_csdTrim1
 3603 09e6 00       		.byte	0
ARM GAS  C:\Users\d4hhm\AppData\Local\Temp\ccLEMF4D.s 			page 104


 3604              		.section	.debug_abbrev,"",%progbits
 3605              	.Ldebug_abbrev0:
 3606 0000 01       		.uleb128 0x1
 3607 0001 11       		.uleb128 0x11
 3608 0002 01       		.byte	0x1
 3609 0003 25       		.uleb128 0x25
 3610 0004 0E       		.uleb128 0xe
 3611 0005 13       		.uleb128 0x13
 3612 0006 0B       		.uleb128 0xb
 3613 0007 03       		.uleb128 0x3
 3614 0008 0E       		.uleb128 0xe
 3615 0009 1B       		.uleb128 0x1b
 3616 000a 0E       		.uleb128 0xe
 3617 000b 55       		.uleb128 0x55
 3618 000c 17       		.uleb128 0x17
 3619 000d 11       		.uleb128 0x11
 3620 000e 01       		.uleb128 0x1
 3621 000f 10       		.uleb128 0x10
 3622 0010 17       		.uleb128 0x17
 3623 0011 00       		.byte	0
 3624 0012 00       		.byte	0
 3625 0013 02       		.uleb128 0x2
 3626 0014 24       		.uleb128 0x24
 3627 0015 00       		.byte	0
 3628 0016 0B       		.uleb128 0xb
 3629 0017 0B       		.uleb128 0xb
 3630 0018 3E       		.uleb128 0x3e
 3631 0019 0B       		.uleb128 0xb
 3632 001a 03       		.uleb128 0x3
 3633 001b 0E       		.uleb128 0xe
 3634 001c 00       		.byte	0
 3635 001d 00       		.byte	0
 3636 001e 03       		.uleb128 0x3
 3637 001f 24       		.uleb128 0x24
 3638 0020 00       		.byte	0
 3639 0021 0B       		.uleb128 0xb
 3640 0022 0B       		.uleb128 0xb
 3641 0023 3E       		.uleb128 0x3e
 3642 0024 0B       		.uleb128 0xb
 3643 0025 03       		.uleb128 0x3
 3644 0026 08       		.uleb128 0x8
 3645 0027 00       		.byte	0
 3646 0028 00       		.byte	0
 3647 0029 04       		.uleb128 0x4
 3648 002a 16       		.uleb128 0x16
 3649 002b 00       		.byte	0
 3650 002c 03       		.uleb128 0x3
 3651 002d 0E       		.uleb128 0xe
 3652 002e 3A       		.uleb128 0x3a
 3653 002f 0B       		.uleb128 0xb
 3654 0030 3B       		.uleb128 0x3b
 3655 0031 05       		.uleb128 0x5
 3656 0032 49       		.uleb128 0x49
 3657 0033 13       		.uleb128 0x13
 3658 0034 00       		.byte	0
 3659 0035 00       		.byte	0
 3660 0036 05       		.uleb128 0x5
ARM GAS  C:\Users\d4hhm\AppData\Local\Temp\ccLEMF4D.s 			page 105


 3661 0037 35       		.uleb128 0x35
 3662 0038 00       		.byte	0
 3663 0039 49       		.uleb128 0x49
 3664 003a 13       		.uleb128 0x13
 3665 003b 00       		.byte	0
 3666 003c 00       		.byte	0
 3667 003d 06       		.uleb128 0x6
 3668 003e 0F       		.uleb128 0xf
 3669 003f 00       		.byte	0
 3670 0040 0B       		.uleb128 0xb
 3671 0041 0B       		.uleb128 0xb
 3672 0042 49       		.uleb128 0x49
 3673 0043 13       		.uleb128 0x13
 3674 0044 00       		.byte	0
 3675 0045 00       		.byte	0
 3676 0046 07       		.uleb128 0x7
 3677 0047 26       		.uleb128 0x26
 3678 0048 00       		.byte	0
 3679 0049 49       		.uleb128 0x49
 3680 004a 13       		.uleb128 0x13
 3681 004b 00       		.byte	0
 3682 004c 00       		.byte	0
 3683 004d 08       		.uleb128 0x8
 3684 004e 2E       		.uleb128 0x2e
 3685 004f 01       		.byte	0x1
 3686 0050 3F       		.uleb128 0x3f
 3687 0051 19       		.uleb128 0x19
 3688 0052 03       		.uleb128 0x3
 3689 0053 0E       		.uleb128 0xe
 3690 0054 3A       		.uleb128 0x3a
 3691 0055 0B       		.uleb128 0xb
 3692 0056 3B       		.uleb128 0x3b
 3693 0057 0B       		.uleb128 0xb
 3694 0058 27       		.uleb128 0x27
 3695 0059 19       		.uleb128 0x19
 3696 005a 11       		.uleb128 0x11
 3697 005b 01       		.uleb128 0x1
 3698 005c 12       		.uleb128 0x12
 3699 005d 06       		.uleb128 0x6
 3700 005e 40       		.uleb128 0x40
 3701 005f 18       		.uleb128 0x18
 3702 0060 9642     		.uleb128 0x2116
 3703 0062 19       		.uleb128 0x19
 3704 0063 01       		.uleb128 0x1
 3705 0064 13       		.uleb128 0x13
 3706 0065 00       		.byte	0
 3707 0066 00       		.byte	0
 3708 0067 09       		.uleb128 0x9
 3709 0068 34       		.uleb128 0x34
 3710 0069 00       		.byte	0
 3711 006a 03       		.uleb128 0x3
 3712 006b 0E       		.uleb128 0xe
 3713 006c 3A       		.uleb128 0x3a
 3714 006d 0B       		.uleb128 0xb
 3715 006e 3B       		.uleb128 0x3b
 3716 006f 0B       		.uleb128 0xb
 3717 0070 49       		.uleb128 0x49
ARM GAS  C:\Users\d4hhm\AppData\Local\Temp\ccLEMF4D.s 			page 106


 3718 0071 13       		.uleb128 0x13
 3719 0072 02       		.uleb128 0x2
 3720 0073 18       		.uleb128 0x18
 3721 0074 00       		.byte	0
 3722 0075 00       		.byte	0
 3723 0076 0A       		.uleb128 0xa
 3724 0077 2E       		.uleb128 0x2e
 3725 0078 01       		.byte	0x1
 3726 0079 3F       		.uleb128 0x3f
 3727 007a 19       		.uleb128 0x19
 3728 007b 03       		.uleb128 0x3
 3729 007c 0E       		.uleb128 0xe
 3730 007d 3A       		.uleb128 0x3a
 3731 007e 0B       		.uleb128 0xb
 3732 007f 3B       		.uleb128 0x3b
 3733 0080 05       		.uleb128 0x5
 3734 0081 27       		.uleb128 0x27
 3735 0082 19       		.uleb128 0x19
 3736 0083 11       		.uleb128 0x11
 3737 0084 01       		.uleb128 0x1
 3738 0085 12       		.uleb128 0x12
 3739 0086 06       		.uleb128 0x6
 3740 0087 40       		.uleb128 0x40
 3741 0088 18       		.uleb128 0x18
 3742 0089 9642     		.uleb128 0x2116
 3743 008b 19       		.uleb128 0x19
 3744 008c 01       		.uleb128 0x1
 3745 008d 13       		.uleb128 0x13
 3746 008e 00       		.byte	0
 3747 008f 00       		.byte	0
 3748 0090 0B       		.uleb128 0xb
 3749 0091 34       		.uleb128 0x34
 3750 0092 00       		.byte	0
 3751 0093 03       		.uleb128 0x3
 3752 0094 0E       		.uleb128 0xe
 3753 0095 3A       		.uleb128 0x3a
 3754 0096 0B       		.uleb128 0xb
 3755 0097 3B       		.uleb128 0x3b
 3756 0098 05       		.uleb128 0x5
 3757 0099 49       		.uleb128 0x49
 3758 009a 13       		.uleb128 0x13
 3759 009b 02       		.uleb128 0x2
 3760 009c 18       		.uleb128 0x18
 3761 009d 00       		.byte	0
 3762 009e 00       		.byte	0
 3763 009f 0C       		.uleb128 0xc
 3764 00a0 2E       		.uleb128 0x2e
 3765 00a1 00       		.byte	0
 3766 00a2 3F       		.uleb128 0x3f
 3767 00a3 19       		.uleb128 0x19
 3768 00a4 03       		.uleb128 0x3
 3769 00a5 0E       		.uleb128 0xe
 3770 00a6 3A       		.uleb128 0x3a
 3771 00a7 0B       		.uleb128 0xb
 3772 00a8 3B       		.uleb128 0x3b
 3773 00a9 05       		.uleb128 0x5
 3774 00aa 27       		.uleb128 0x27
ARM GAS  C:\Users\d4hhm\AppData\Local\Temp\ccLEMF4D.s 			page 107


 3775 00ab 19       		.uleb128 0x19
 3776 00ac 11       		.uleb128 0x11
 3777 00ad 01       		.uleb128 0x1
 3778 00ae 12       		.uleb128 0x12
 3779 00af 06       		.uleb128 0x6
 3780 00b0 40       		.uleb128 0x40
 3781 00b1 18       		.uleb128 0x18
 3782 00b2 9642     		.uleb128 0x2116
 3783 00b4 19       		.uleb128 0x19
 3784 00b5 00       		.byte	0
 3785 00b6 00       		.byte	0
 3786 00b7 0D       		.uleb128 0xd
 3787 00b8 2E       		.uleb128 0x2e
 3788 00b9 01       		.byte	0x1
 3789 00ba 3F       		.uleb128 0x3f
 3790 00bb 19       		.uleb128 0x19
 3791 00bc 03       		.uleb128 0x3
 3792 00bd 0E       		.uleb128 0xe
 3793 00be 3A       		.uleb128 0x3a
 3794 00bf 0B       		.uleb128 0xb
 3795 00c0 3B       		.uleb128 0x3b
 3796 00c1 05       		.uleb128 0x5
 3797 00c2 27       		.uleb128 0x27
 3798 00c3 19       		.uleb128 0x19
 3799 00c4 49       		.uleb128 0x49
 3800 00c5 13       		.uleb128 0x13
 3801 00c6 11       		.uleb128 0x11
 3802 00c7 01       		.uleb128 0x1
 3803 00c8 12       		.uleb128 0x12
 3804 00c9 06       		.uleb128 0x6
 3805 00ca 40       		.uleb128 0x40
 3806 00cb 18       		.uleb128 0x18
 3807 00cc 9642     		.uleb128 0x2116
 3808 00ce 19       		.uleb128 0x19
 3809 00cf 01       		.uleb128 0x1
 3810 00d0 13       		.uleb128 0x13
 3811 00d1 00       		.byte	0
 3812 00d2 00       		.byte	0
 3813 00d3 0E       		.uleb128 0xe
 3814 00d4 05       		.uleb128 0x5
 3815 00d5 00       		.byte	0
 3816 00d6 03       		.uleb128 0x3
 3817 00d7 0E       		.uleb128 0xe
 3818 00d8 3A       		.uleb128 0x3a
 3819 00d9 0B       		.uleb128 0xb
 3820 00da 3B       		.uleb128 0x3b
 3821 00db 05       		.uleb128 0x5
 3822 00dc 49       		.uleb128 0x49
 3823 00dd 13       		.uleb128 0x13
 3824 00de 02       		.uleb128 0x2
 3825 00df 18       		.uleb128 0x18
 3826 00e0 00       		.byte	0
 3827 00e1 00       		.byte	0
 3828 00e2 0F       		.uleb128 0xf
 3829 00e3 2E       		.uleb128 0x2e
 3830 00e4 00       		.byte	0
 3831 00e5 3F       		.uleb128 0x3f
ARM GAS  C:\Users\d4hhm\AppData\Local\Temp\ccLEMF4D.s 			page 108


 3832 00e6 19       		.uleb128 0x19
 3833 00e7 03       		.uleb128 0x3
 3834 00e8 0E       		.uleb128 0xe
 3835 00e9 3A       		.uleb128 0x3a
 3836 00ea 0B       		.uleb128 0xb
 3837 00eb 3B       		.uleb128 0x3b
 3838 00ec 05       		.uleb128 0x5
 3839 00ed 27       		.uleb128 0x27
 3840 00ee 19       		.uleb128 0x19
 3841 00ef 49       		.uleb128 0x49
 3842 00f0 13       		.uleb128 0x13
 3843 00f1 11       		.uleb128 0x11
 3844 00f2 01       		.uleb128 0x1
 3845 00f3 12       		.uleb128 0x12
 3846 00f4 06       		.uleb128 0x6
 3847 00f5 40       		.uleb128 0x40
 3848 00f6 18       		.uleb128 0x18
 3849 00f7 9742     		.uleb128 0x2117
 3850 00f9 19       		.uleb128 0x19
 3851 00fa 00       		.byte	0
 3852 00fb 00       		.byte	0
 3853 00fc 10       		.uleb128 0x10
 3854 00fd 2E       		.uleb128 0x2e
 3855 00fe 01       		.byte	0x1
 3856 00ff 3F       		.uleb128 0x3f
 3857 0100 19       		.uleb128 0x19
 3858 0101 03       		.uleb128 0x3
 3859 0102 0E       		.uleb128 0xe
 3860 0103 3A       		.uleb128 0x3a
 3861 0104 0B       		.uleb128 0xb
 3862 0105 3B       		.uleb128 0x3b
 3863 0106 05       		.uleb128 0x5
 3864 0107 27       		.uleb128 0x27
 3865 0108 19       		.uleb128 0x19
 3866 0109 49       		.uleb128 0x49
 3867 010a 13       		.uleb128 0x13
 3868 010b 11       		.uleb128 0x11
 3869 010c 01       		.uleb128 0x1
 3870 010d 12       		.uleb128 0x12
 3871 010e 06       		.uleb128 0x6
 3872 010f 40       		.uleb128 0x40
 3873 0110 18       		.uleb128 0x18
 3874 0111 9742     		.uleb128 0x2117
 3875 0113 19       		.uleb128 0x19
 3876 0114 01       		.uleb128 0x1
 3877 0115 13       		.uleb128 0x13
 3878 0116 00       		.byte	0
 3879 0117 00       		.byte	0
 3880 0118 11       		.uleb128 0x11
 3881 0119 2E       		.uleb128 0x2e
 3882 011a 01       		.byte	0x1
 3883 011b 3F       		.uleb128 0x3f
 3884 011c 19       		.uleb128 0x19
 3885 011d 03       		.uleb128 0x3
 3886 011e 0E       		.uleb128 0xe
 3887 011f 3A       		.uleb128 0x3a
 3888 0120 0B       		.uleb128 0xb
ARM GAS  C:\Users\d4hhm\AppData\Local\Temp\ccLEMF4D.s 			page 109


 3889 0121 3B       		.uleb128 0x3b
 3890 0122 05       		.uleb128 0x5
 3891 0123 27       		.uleb128 0x27
 3892 0124 19       		.uleb128 0x19
 3893 0125 11       		.uleb128 0x11
 3894 0126 01       		.uleb128 0x1
 3895 0127 12       		.uleb128 0x12
 3896 0128 06       		.uleb128 0x6
 3897 0129 40       		.uleb128 0x40
 3898 012a 18       		.uleb128 0x18
 3899 012b 9742     		.uleb128 0x2117
 3900 012d 19       		.uleb128 0x19
 3901 012e 01       		.uleb128 0x1
 3902 012f 13       		.uleb128 0x13
 3903 0130 00       		.byte	0
 3904 0131 00       		.byte	0
 3905 0132 12       		.uleb128 0x12
 3906 0133 34       		.uleb128 0x34
 3907 0134 00       		.byte	0
 3908 0135 03       		.uleb128 0x3
 3909 0136 0E       		.uleb128 0xe
 3910 0137 3A       		.uleb128 0x3a
 3911 0138 0B       		.uleb128 0xb
 3912 0139 3B       		.uleb128 0x3b
 3913 013a 0B       		.uleb128 0xb
 3914 013b 49       		.uleb128 0x49
 3915 013c 13       		.uleb128 0x13
 3916 013d 3F       		.uleb128 0x3f
 3917 013e 19       		.uleb128 0x19
 3918 013f 02       		.uleb128 0x2
 3919 0140 18       		.uleb128 0x18
 3920 0141 00       		.byte	0
 3921 0142 00       		.byte	0
 3922 0143 13       		.uleb128 0x13
 3923 0144 01       		.uleb128 0x1
 3924 0145 01       		.byte	0x1
 3925 0146 49       		.uleb128 0x49
 3926 0147 13       		.uleb128 0x13
 3927 0148 01       		.uleb128 0x1
 3928 0149 13       		.uleb128 0x13
 3929 014a 00       		.byte	0
 3930 014b 00       		.byte	0
 3931 014c 14       		.uleb128 0x14
 3932 014d 21       		.uleb128 0x21
 3933 014e 00       		.byte	0
 3934 014f 49       		.uleb128 0x49
 3935 0150 13       		.uleb128 0x13
 3936 0151 2F       		.uleb128 0x2f
 3937 0152 0B       		.uleb128 0xb
 3938 0153 00       		.byte	0
 3939 0154 00       		.byte	0
 3940 0155 15       		.uleb128 0x15
 3941 0156 34       		.uleb128 0x34
 3942 0157 00       		.byte	0
 3943 0158 03       		.uleb128 0x3
 3944 0159 0E       		.uleb128 0xe
 3945 015a 3A       		.uleb128 0x3a
ARM GAS  C:\Users\d4hhm\AppData\Local\Temp\ccLEMF4D.s 			page 110


 3946 015b 0B       		.uleb128 0xb
 3947 015c 3B       		.uleb128 0x3b
 3948 015d 05       		.uleb128 0x5
 3949 015e 49       		.uleb128 0x49
 3950 015f 13       		.uleb128 0x13
 3951 0160 3F       		.uleb128 0x3f
 3952 0161 19       		.uleb128 0x19
 3953 0162 3C       		.uleb128 0x3c
 3954 0163 19       		.uleb128 0x19
 3955 0164 00       		.byte	0
 3956 0165 00       		.byte	0
 3957 0166 00       		.byte	0
 3958              		.section	.debug_aranges,"",%progbits
 3959 0000 14010000 		.4byte	0x114
 3960 0004 0200     		.2byte	0x2
 3961 0006 00000000 		.4byte	.Ldebug_info0
 3962 000a 04       		.byte	0x4
 3963 000b 00       		.byte	0
 3964 000c 0000     		.2byte	0
 3965 000e 0000     		.2byte	0
 3966 0010 00000000 		.4byte	.LFB34
 3967 0014 40000000 		.4byte	.LFE34-.LFB34
 3968 0018 00000000 		.4byte	.LFB35
 3969 001c BC000000 		.4byte	.LFE35-.LFB35
 3970 0020 00000000 		.4byte	.LFB36
 3971 0024 54000000 		.4byte	.LFE36-.LFB36
 3972 0028 00000000 		.4byte	.LFB37
 3973 002c 38000000 		.4byte	.LFE37-.LFB37
 3974 0030 00000000 		.4byte	.LFB38
 3975 0034 38000000 		.4byte	.LFE38-.LFB38
 3976 0038 00000000 		.4byte	.LFB39
 3977 003c 4C000000 		.4byte	.LFE39-.LFB39
 3978 0040 00000000 		.4byte	.LFB40
 3979 0044 34000000 		.4byte	.LFE40-.LFB40
 3980 0048 00000000 		.4byte	.LFB41
 3981 004c DC000000 		.4byte	.LFE41-.LFB41
 3982 0050 00000000 		.4byte	.LFB42
 3983 0054 58000000 		.4byte	.LFE42-.LFB42
 3984 0058 00000000 		.4byte	.LFB43
 3985 005c 1C000000 		.4byte	.LFE43-.LFB43
 3986 0060 00000000 		.4byte	.LFB44
 3987 0064 1C000000 		.4byte	.LFE44-.LFB44
 3988 0068 00000000 		.4byte	.LFB45
 3989 006c 28000000 		.4byte	.LFE45-.LFB45
 3990 0070 00000000 		.4byte	.LFB46
 3991 0074 18000000 		.4byte	.LFE46-.LFB46
 3992 0078 00000000 		.4byte	.LFB47
 3993 007c 28000000 		.4byte	.LFE47-.LFB47
 3994 0080 00000000 		.4byte	.LFB48
 3995 0084 B0000000 		.4byte	.LFE48-.LFB48
 3996 0088 00000000 		.4byte	.LFB49
 3997 008c 1C010000 		.4byte	.LFE49-.LFB49
 3998 0090 00000000 		.4byte	.LFB50
 3999 0094 5E000000 		.4byte	.LFE50-.LFB50
 4000 0098 00000000 		.4byte	.LFB51
 4001 009c 58000000 		.4byte	.LFE51-.LFB51
 4002 00a0 00000000 		.4byte	.LFB52
ARM GAS  C:\Users\d4hhm\AppData\Local\Temp\ccLEMF4D.s 			page 111


 4003 00a4 58000000 		.4byte	.LFE52-.LFB52
 4004 00a8 00000000 		.4byte	.LFB53
 4005 00ac 14010000 		.4byte	.LFE53-.LFB53
 4006 00b0 00000000 		.4byte	.LFB54
 4007 00b4 74000000 		.4byte	.LFE54-.LFB54
 4008 00b8 00000000 		.4byte	.LFB55
 4009 00bc 7C000000 		.4byte	.LFE55-.LFB55
 4010 00c0 00000000 		.4byte	.LFB56
 4011 00c4 34000000 		.4byte	.LFE56-.LFB56
 4012 00c8 00000000 		.4byte	.LFB57
 4013 00cc 2C000000 		.4byte	.LFE57-.LFB57
 4014 00d0 00000000 		.4byte	.LFB58
 4015 00d4 44000000 		.4byte	.LFE58-.LFB58
 4016 00d8 00000000 		.4byte	.LFB59
 4017 00dc 6A000000 		.4byte	.LFE59-.LFB59
 4018 00e0 00000000 		.4byte	.LFB60
 4019 00e4 12000000 		.4byte	.LFE60-.LFB60
 4020 00e8 00000000 		.4byte	.LFB61
 4021 00ec 12000000 		.4byte	.LFE61-.LFB61
 4022 00f0 00000000 		.4byte	.LFB62
 4023 00f4 12000000 		.4byte	.LFE62-.LFB62
 4024 00f8 00000000 		.4byte	.LFB63
 4025 00fc 12000000 		.4byte	.LFE63-.LFB63
 4026 0100 00000000 		.4byte	.LFB64
 4027 0104 20000000 		.4byte	.LFE64-.LFB64
 4028 0108 00000000 		.4byte	.LFB65
 4029 010c 24000000 		.4byte	.LFE65-.LFB65
 4030 0110 00000000 		.4byte	0
 4031 0114 00000000 		.4byte	0
 4032              		.section	.debug_ranges,"",%progbits
 4033              	.Ldebug_ranges0:
 4034 0000 00000000 		.4byte	.LFB34
 4035 0004 40000000 		.4byte	.LFE34
 4036 0008 00000000 		.4byte	.LFB35
 4037 000c BC000000 		.4byte	.LFE35
 4038 0010 00000000 		.4byte	.LFB36
 4039 0014 54000000 		.4byte	.LFE36
 4040 0018 00000000 		.4byte	.LFB37
 4041 001c 38000000 		.4byte	.LFE37
 4042 0020 00000000 		.4byte	.LFB38
 4043 0024 38000000 		.4byte	.LFE38
 4044 0028 00000000 		.4byte	.LFB39
 4045 002c 4C000000 		.4byte	.LFE39
 4046 0030 00000000 		.4byte	.LFB40
 4047 0034 34000000 		.4byte	.LFE40
 4048 0038 00000000 		.4byte	.LFB41
 4049 003c DC000000 		.4byte	.LFE41
 4050 0040 00000000 		.4byte	.LFB42
 4051 0044 58000000 		.4byte	.LFE42
 4052 0048 00000000 		.4byte	.LFB43
 4053 004c 1C000000 		.4byte	.LFE43
 4054 0050 00000000 		.4byte	.LFB44
 4055 0054 1C000000 		.4byte	.LFE44
 4056 0058 00000000 		.4byte	.LFB45
 4057 005c 28000000 		.4byte	.LFE45
 4058 0060 00000000 		.4byte	.LFB46
 4059 0064 18000000 		.4byte	.LFE46
ARM GAS  C:\Users\d4hhm\AppData\Local\Temp\ccLEMF4D.s 			page 112


 4060 0068 00000000 		.4byte	.LFB47
 4061 006c 28000000 		.4byte	.LFE47
 4062 0070 00000000 		.4byte	.LFB48
 4063 0074 B0000000 		.4byte	.LFE48
 4064 0078 00000000 		.4byte	.LFB49
 4065 007c 1C010000 		.4byte	.LFE49
 4066 0080 00000000 		.4byte	.LFB50
 4067 0084 5E000000 		.4byte	.LFE50
 4068 0088 00000000 		.4byte	.LFB51
 4069 008c 58000000 		.4byte	.LFE51
 4070 0090 00000000 		.4byte	.LFB52
 4071 0094 58000000 		.4byte	.LFE52
 4072 0098 00000000 		.4byte	.LFB53
 4073 009c 14010000 		.4byte	.LFE53
 4074 00a0 00000000 		.4byte	.LFB54
 4075 00a4 74000000 		.4byte	.LFE54
 4076 00a8 00000000 		.4byte	.LFB55
 4077 00ac 7C000000 		.4byte	.LFE55
 4078 00b0 00000000 		.4byte	.LFB56
 4079 00b4 34000000 		.4byte	.LFE56
 4080 00b8 00000000 		.4byte	.LFB57
 4081 00bc 2C000000 		.4byte	.LFE57
 4082 00c0 00000000 		.4byte	.LFB58
 4083 00c4 44000000 		.4byte	.LFE58
 4084 00c8 00000000 		.4byte	.LFB59
 4085 00cc 6A000000 		.4byte	.LFE59
 4086 00d0 00000000 		.4byte	.LFB60
 4087 00d4 12000000 		.4byte	.LFE60
 4088 00d8 00000000 		.4byte	.LFB61
 4089 00dc 12000000 		.4byte	.LFE61
 4090 00e0 00000000 		.4byte	.LFB62
 4091 00e4 12000000 		.4byte	.LFE62
 4092 00e8 00000000 		.4byte	.LFB63
 4093 00ec 12000000 		.4byte	.LFE63
 4094 00f0 00000000 		.4byte	.LFB64
 4095 00f4 20000000 		.4byte	.LFE64
 4096 00f8 00000000 		.4byte	.LFB65
 4097 00fc 24000000 		.4byte	.LFE65
 4098 0100 00000000 		.4byte	0
 4099 0104 00000000 		.4byte	0
 4100              		.section	.debug_line,"",%progbits
 4101              	.Ldebug_line0:
 4102 0000 07040000 		.section	.debug_str,"MS",%progbits,1
 4102      02005C00 
 4102      00000201 
 4102      FB0E0D00 
 4102      01010101 
 4103              	.LASF95:
 4104 0000 43617053 		.ascii	"CapSense_1_portTable\000"
 4104      656E7365 
 4104      5F315F70 
 4104      6F727454 
 4104      61626C65 
 4105              	.LASF103:
 4106 0015 433A5C55 		.ascii	"C:\\Users\\d4hhm\\Documents\\PSoC Creator\\ble-beac"
 4106      73657273 
 4106      5C643468 
ARM GAS  C:\Users\d4hhm\AppData\Local\Temp\ccLEMF4D.s 			page 113


 4106      686D5C44 
 4106      6F63756D 
 4107 0043 6F6E5F63 		.ascii	"on_capsense+vl6180\\Design01.cydsn\000"
 4107      61707365 
 4107      6E73652B 
 4107      766C3631 
 4107      38305C44 
 4108              	.LASF63:
 4109 0065 43617053 		.ascii	"CapSense_1_SetShieldDelay\000"
 4109      656E7365 
 4109      5F315F53 
 4109      65745368 
 4109      69656C64 
 4110              	.LASF92:
 4111 007f 43617053 		.ascii	"CapSense_1_prtCfgTbl\000"
 4111      656E7365 
 4111      5F315F70 
 4111      72744366 
 4111      6754626C 
 4112              	.LASF98:
 4113 0094 43617053 		.ascii	"CapSense_1_rawDataIndex\000"
 4113      656E7365 
 4113      5F315F72 
 4113      61774461 
 4113      7461496E 
 4114              	.LASF79:
 4115 00ac 43617053 		.ascii	"CapSense_1_csdStatusVar\000"
 4115      656E7365 
 4115      5F315F63 
 4115      73645374 
 4115      61747573 
 4116              	.LASF71:
 4117 00c4 656E4D61 		.ascii	"enMask\000"
 4117      736B00
 4118              	.LASF94:
 4119 00cb 43617053 		.ascii	"CapSense_1_pcTable\000"
 4119      656E7365 
 4119      5F315F70 
 4119      63546162 
 4119      6C6500
 4120              	.LASF86:
 4121 00de 43617053 		.ascii	"CapSense_1_compensationIDAC\000"
 4121      656E7365 
 4121      5F315F63 
 4121      6F6D7065 
 4121      6E736174 
 4122              	.LASF37:
 4123 00fa 43617053 		.ascii	"CapSense_1_ReadSensorRaw\000"
 4123      656E7365 
 4123      5F315F52 
 4123      65616453 
 4123      656E736F 
 4124              	.LASF2:
 4125 0113 73686F72 		.ascii	"short int\000"
 4125      7420696E 
 4125      7400
 4126              	.LASF76:
ARM GAS  C:\Users\d4hhm\AppData\Local\Temp\ccLEMF4D.s 			page 114


 4127 011d 43617053 		.ascii	"CapSense_1_GetCompensationIDAC\000"
 4127      656E7365 
 4127      5F315F47 
 4127      6574436F 
 4127      6D70656E 
 4128              	.LASF27:
 4129 013c 43617053 		.ascii	"CapSense_1_ScanSensor\000"
 4129      656E7365 
 4129      5F315F53 
 4129      63616E53 
 4129      656E736F 
 4130              	.LASF29:
 4131 0152 73656E73 		.ascii	"sensor\000"
 4131      6F7200
 4132              	.LASF30:
 4133 0159 43617053 		.ascii	"CapSense_1_ScanWidget\000"
 4133      656E7365 
 4133      5F315F53 
 4133      63616E57 
 4133      69646765 
 4134              	.LASF81:
 4135 016f 43617053 		.ascii	"CapSense_1_sensorRaw\000"
 4135      656E7365 
 4135      5F315F73 
 4135      656E736F 
 4135      72526177 
 4136              	.LASF17:
 4137 0184 73697A65 		.ascii	"sizetype\000"
 4137      74797065 
 4137      00
 4138              	.LASF64:
 4139 018d 64656C61 		.ascii	"delay\000"
 4139      7900
 4140              	.LASF83:
 4141 0193 43617053 		.ascii	"CapSense_1_sensorEnableMaskBackup\000"
 4141      656E7365 
 4141      5F315F73 
 4141      656E736F 
 4141      72456E61 
 4142              	.LASF69:
 4143 01b5 706F7369 		.ascii	"position\000"
 4143      74696F6E 
 4143      00
 4144              	.LASF85:
 4145 01be 43617053 		.ascii	"CapSense_1_modulationIDAC\000"
 4145      656E7365 
 4145      5F315F6D 
 4145      6F64756C 
 4145      6174696F 
 4146              	.LASF56:
 4147 01d8 43617053 		.ascii	"CapSense_1_SetPinDriveMode\000"
 4147      656E7365 
 4147      5F315F53 
 4147      65745069 
 4147      6E447269 
 4148              	.LASF39:
 4149 01f3 76616C75 		.ascii	"value\000"
ARM GAS  C:\Users\d4hhm\AppData\Local\Temp\ccLEMF4D.s 			page 115


 4149      6500
 4150              	.LASF55:
 4151 01f9 43617053 		.ascii	"CapSense_1_RestoreDriveModeAllPins\000"
 4151      656E7365 
 4151      5F315F52 
 4151      6573746F 
 4151      72654472 
 4152              	.LASF10:
 4153 021c 75696E74 		.ascii	"uint16\000"
 4153      313600
 4154              	.LASF43:
 4155 0223 70696E4D 		.ascii	"pinModeShift\000"
 4155      6F646553 
 4155      68696674 
 4155      00
 4156              	.LASF31:
 4157 0230 77696467 		.ascii	"widget\000"
 4157      657400
 4158              	.LASF9:
 4159 0237 75696E74 		.ascii	"uint8\000"
 4159      3800
 4160              	.LASF68:
 4161 023d 7461626C 		.ascii	"table\000"
 4161      6500
 4162              	.LASF60:
 4163 0243 636F756E 		.ascii	"counterResolution\000"
 4163      74657252 
 4163      65736F6C 
 4163      7574696F 
 4163      6E00
 4164              	.LASF87:
 4165 0255 43617053 		.ascii	"CapSense_1_widgetResolution\000"
 4165      656E7365 
 4165      5F315F77 
 4165      69646765 
 4165      74526573 
 4166              	.LASF24:
 4167 0271 43617053 		.ascii	"CapSense_1_Start\000"
 4167      656E7365 
 4167      5F315F53 
 4167      74617274 
 4167      00
 4168              	.LASF84:
 4169 0282 43617053 		.ascii	"CapSense_1_sensorEnableMask\000"
 4169      656E7365 
 4169      5F315F73 
 4169      656E736F 
 4169      72456E61 
 4170              	.LASF75:
 4171 029e 43617053 		.ascii	"CapSense_1_GetModulationIDAC\000"
 4171      656E7365 
 4171      5F315F47 
 4171      65744D6F 
 4171      64756C61 
 4172              	.LASF12:
 4173 02bb 666C6F61 		.ascii	"float\000"
 4173      7400
ARM GAS  C:\Users\d4hhm\AppData\Local\Temp\ccLEMF4D.s 			page 116


 4174              	.LASF50:
 4175 02c1 73656E73 		.ascii	"sensorState\000"
 4175      6F725374 
 4175      61746500 
 4176              	.LASF6:
 4177 02cd 6C6F6E67 		.ascii	"long long int\000"
 4177      206C6F6E 
 4177      6720696E 
 4177      7400
 4178              	.LASF66:
 4179 02db 43617053 		.ascii	"CapSense_1_ReadCurrentScanningSensor\000"
 4179      656E7365 
 4179      5F315F52 
 4179      65616443 
 4179      75727265 
 4180              	.LASF35:
 4181 0300 43617053 		.ascii	"CapSense_1_ScanEnabledWidgets\000"
 4181      656E7365 
 4181      5F315F53 
 4181      63616E45 
 4181      6E61626C 
 4182              	.LASF32:
 4183 031e 73656E73 		.ascii	"sensorsPerWidget\000"
 4183      6F727350 
 4183      65725769 
 4183      64676574 
 4183      00
 4184              	.LASF4:
 4185 032f 6C6F6E67 		.ascii	"long int\000"
 4185      20696E74 
 4185      00
 4186              	.LASF73:
 4187 0338 43617053 		.ascii	"CapSense_1_GetSenseClkDivider\000"
 4187      656E7365 
 4187      5F315F47 
 4187      65745365 
 4187      6E736543 
 4188              	.LASF21:
 4189 0356 63757253 		.ascii	"curSensor\000"
 4189      656E736F 
 4189      7200
 4190              	.LASF91:
 4191 0360 43617053 		.ascii	"CapSense_1_prtSelTbl\000"
 4191      656E7365 
 4191      5F315F70 
 4191      72745365 
 4191      6C54626C 
 4192              	.LASF70:
 4193 0375 6F666673 		.ascii	"offset\000"
 4193      657400
 4194              	.LASF100:
 4195 037c 43617053 		.ascii	"CapSense_1_csdTrim1\000"
 4195      656E7365 
 4195      5F315F63 
 4195      73645472 
 4195      696D3100 
 4196              	.LASF34:
ARM GAS  C:\Users\d4hhm\AppData\Local\Temp\ccLEMF4D.s 			page 117


 4197 0390 43617053 		.ascii	"CapSense_1_Stop\000"
 4197      656E7365 
 4197      5F315F53 
 4197      746F7000 
 4198              	.LASF62:
 4199 03a0 43617053 		.ascii	"CapSense_1_EnableShieldElectrode\000"
 4199      656E7365 
 4199      5F315F45 
 4199      6E61626C 
 4199      65536869 
 4200              	.LASF101:
 4201 03c1 474E5520 		.ascii	"GNU C11 5.4.1 20160609 (release) [ARM/embedded-5-br"
 4201      43313120 
 4201      352E342E 
 4201      31203230 
 4201      31363036 
 4202 03f4 616E6368 		.ascii	"anch revision 237715] -mcpu=cortex-m0 -mthumb -g -O"
 4202      20726576 
 4202      6973696F 
 4202      6E203233 
 4202      37373135 
 4203 0427 30202D66 		.ascii	"0 -ffunction-sections -ffat-lto-objects\000"
 4203      66756E63 
 4203      74696F6E 
 4203      2D736563 
 4203      74696F6E 
 4204              	.LASF53:
 4205 044f 7072744E 		.ascii	"prtNumberTmp\000"
 4205      756D6265 
 4205      72546D70 
 4205      00
 4206              	.LASF18:
 4207 045c 6C6F6E67 		.ascii	"long double\000"
 4207      20646F75 
 4207      626C6500 
 4208              	.LASF42:
 4209 0468 43617053 		.ascii	"CapSense_1_EnableSensor\000"
 4209      656E7365 
 4209      5F315F45 
 4209      6E61626C 
 4209      6553656E 
 4210              	.LASF1:
 4211 0480 756E7369 		.ascii	"unsigned char\000"
 4211      676E6564 
 4211      20636861 
 4211      7200
 4212              	.LASF0:
 4213 048e 7369676E 		.ascii	"signed char\000"
 4213      65642063 
 4213      68617200 
 4214              	.LASF7:
 4215 049a 6C6F6E67 		.ascii	"long long unsigned int\000"
 4215      206C6F6E 
 4215      6720756E 
 4215      7369676E 
 4215      65642069 
 4216              	.LASF8:
ARM GAS  C:\Users\d4hhm\AppData\Local\Temp\ccLEMF4D.s 			page 118


 4217 04b1 756E7369 		.ascii	"unsigned int\000"
 4217      676E6564 
 4217      20696E74 
 4217      00
 4218              	.LASF93:
 4219 04be 43617053 		.ascii	"CapSense_1_prtDRTbl\000"
 4219      656E7365 
 4219      5F315F70 
 4219      72744452 
 4219      54626C00 
 4220              	.LASF82:
 4221 04d2 43617053 		.ascii	"CapSense_1_unscannedSnsDriveMode\000"
 4221      656E7365 
 4221      5F315F75 
 4221      6E736361 
 4221      6E6E6564 
 4222              	.LASF28:
 4223 04f3 736E7349 		.ascii	"snsIndex\000"
 4223      6E646578 
 4223      00
 4224              	.LASF22:
 4225 04fc 6E657752 		.ascii	"newRegValue\000"
 4225      65675661 
 4225      6C756500 
 4226              	.LASF41:
 4227 0508 43617053 		.ascii	"CapSense_1_ClearSensors\000"
 4227      656E7365 
 4227      5F315F43 
 4227      6C656172 
 4227      53656E73 
 4228              	.LASF102:
 4229 0520 47656E65 		.ascii	"Generated_Source\\PSoC4\\CapSense_1.c\000"
 4229      72617465 
 4229      645F536F 
 4229      75726365 
 4229      5C50536F 
 4230              	.LASF16:
 4231 0544 72656733 		.ascii	"reg32\000"
 4231      3200
 4232              	.LASF49:
 4233 054a 696E6163 		.ascii	"inactiveConnect\000"
 4233      74697665 
 4233      436F6E6E 
 4233      65637400 
 4234              	.LASF80:
 4235 055a 43617053 		.ascii	"CapSense_1_sensorIndex\000"
 4235      656E7365 
 4235      5F315F73 
 4235      656E736F 
 4235      72496E64 
 4236              	.LASF78:
 4237 0571 43617053 		.ascii	"CapSense_1_SetUnscannedSensorState\000"
 4237      656E7365 
 4237      5F315F53 
 4237      6574556E 
 4237      7363616E 
 4238              	.LASF89:
ARM GAS  C:\Users\d4hhm\AppData\Local\Temp\ccLEMF4D.s 			page 119


 4239 0594 43617053 		.ascii	"CapSense_1_sampleClkDividerVal\000"
 4239      656E7365 
 4239      5F315F73 
 4239      616D706C 
 4239      65436C6B 
 4240              	.LASF58:
 4241 05b3 706F7274 		.ascii	"portNumber\000"
 4241      4E756D62 
 4241      657200
 4242              	.LASF14:
 4243 05be 63686172 		.ascii	"char\000"
 4243      00
 4244              	.LASF3:
 4245 05c3 73686F72 		.ascii	"short unsigned int\000"
 4245      7420756E 
 4245      7369676E 
 4245      65642069 
 4245      6E7400
 4246              	.LASF61:
 4247 05d6 43617053 		.ascii	"CapSense_1_PostScan\000"
 4247      656E7365 
 4247      5F315F50 
 4247      6F737453 
 4247      63616E00 
 4248              	.LASF52:
 4249 05ea 64726976 		.ascii	"driveMode\000"
 4249      654D6F64 
 4249      6500
 4250              	.LASF33:
 4251 05f4 6C617374 		.ascii	"lastSensor\000"
 4251      53656E73 
 4251      6F7200
 4252              	.LASF88:
 4253 05ff 43617053 		.ascii	"CapSense_1_senseClkDividerVal\000"
 4253      656E7365 
 4253      5F315F73 
 4253      656E7365 
 4253      436C6B44 
 4254              	.LASF40:
 4255 061d 43617053 		.ascii	"CapSense_1_GetScanResolution\000"
 4255      656E7365 
 4255      5F315F47 
 4255      65745363 
 4255      616E5265 
 4256              	.LASF99:
 4257 063a 43617053 		.ascii	"CapSense_1_numberOfSensors\000"
 4257      656E7365 
 4257      5F315F6E 
 4257      756D6265 
 4257      724F6653 
 4258              	.LASF48:
 4259 0655 43617053 		.ascii	"CapSense_1_DisableSensor\000"
 4259      656E7365 
 4259      5F315F44 
 4259      69736162 
 4259      6C655365 
 4260              	.LASF57:
ARM GAS  C:\Users\d4hhm\AppData\Local\Temp\ccLEMF4D.s 			page 120


 4261 066e 70696E4E 		.ascii	"pinNumber\000"
 4261      756D6265 
 4261      7200
 4262              	.LASF47:
 4263 0678 706F7274 		.ascii	"port\000"
 4263      00
 4264              	.LASF45:
 4265 067d 696E7465 		.ascii	"interruptState\000"
 4265      72727570 
 4265      74537461 
 4265      746500
 4266              	.LASF11:
 4267 068c 75696E74 		.ascii	"uint32\000"
 4267      333200
 4268              	.LASF15:
 4269 0693 72656738 		.ascii	"reg8\000"
 4269      00
 4270              	.LASF5:
 4271 0698 6C6F6E67 		.ascii	"long unsigned int\000"
 4271      20756E73 
 4271      69676E65 
 4271      6420696E 
 4271      7400
 4272              	.LASF72:
 4273 06aa 43617053 		.ascii	"CapSense_1_SetBitValue\000"
 4273      656E7365 
 4273      5F315F53 
 4273      65744269 
 4273      7456616C 
 4274              	.LASF20:
 4275 06c1 43617053 		.ascii	"CapSense_1_CsdHwBlockInit\000"
 4275      656E7365 
 4275      5F315F43 
 4275      73644877 
 4275      426C6F63 
 4276              	.LASF38:
 4277 06db 43617053 		.ascii	"CapSense_1_WriteSensorRaw\000"
 4277      656E7365 
 4277      5F315F57 
 4277      72697465 
 4277      53656E73 
 4278              	.LASF59:
 4279 06f5 43617053 		.ascii	"CapSense_1_PreScan\000"
 4279      656E7365 
 4279      5F315F50 
 4279      72655363 
 4279      616E00
 4280              	.LASF65:
 4281 0708 43617053 		.ascii	"CapSense_1_IsBusy\000"
 4281      656E7365 
 4281      5F315F49 
 4281      73427573 
 4281      7900
 4282              	.LASF36:
 4283 071a 43617053 		.ascii	"CapSense_1_FindNextSensor\000"
 4283      656E7365 
 4283      5F315F46 
ARM GAS  C:\Users\d4hhm\AppData\Local\Temp\ccLEMF4D.s 			page 121


 4283      696E644E 
 4283      65787453 
 4284              	.LASF25:
 4285 0734 43617053 		.ascii	"CapSense_1_initVar\000"
 4285      656E7365 
 4285      5F315F69 
 4285      6E697456 
 4285      617200
 4286              	.LASF51:
 4287 0747 43617053 		.ascii	"CapSense_1_SetDriveModeAllPins\000"
 4287      656E7365 
 4287      5F315F53 
 4287      65744472 
 4287      6976654D 
 4288              	.LASF74:
 4289 0766 43617053 		.ascii	"CapSense_1_GetModulatorClkDivider\000"
 4289      656E7365 
 4289      5F315F47 
 4289      65744D6F 
 4289      64756C61 
 4290              	.LASF23:
 4291 0788 43617053 		.ascii	"CapSense_1_Enable\000"
 4291      656E7365 
 4291      5F315F45 
 4291      6E61626C 
 4291      6500
 4292              	.LASF26:
 4293 079a 656E6162 		.ascii	"enableFlag\000"
 4293      6C65466C 
 4293      616700
 4294              	.LASF13:
 4295 07a5 646F7562 		.ascii	"double\000"
 4295      6C6500
 4296              	.LASF44:
 4297 07ac 70696E48 		.ascii	"pinHSIOMShift\000"
 4297      53494F4D 
 4297      53686966 
 4297      7400
 4298              	.LASF54:
 4299 07ba 70696E4E 		.ascii	"pinNumberTmp\000"
 4299      756D6265 
 4299      72546D70 
 4299      00
 4300              	.LASF67:
 4301 07c7 43617053 		.ascii	"CapSense_1_GetBitValue\000"
 4301      656E7365 
 4301      5F315F47 
 4301      65744269 
 4301      7456616C 
 4302              	.LASF19:
 4303 07de 43617053 		.ascii	"CapSense_1_Init\000"
 4303      656E7365 
 4303      5F315F49 
 4303      6E697400 
 4304              	.LASF96:
 4305 07ee 43617053 		.ascii	"CapSense_1_maskTable\000"
 4305      656E7365 
ARM GAS  C:\Users\d4hhm\AppData\Local\Temp\ccLEMF4D.s 			page 122


 4305      5F315F6D 
 4305      61736B54 
 4305      61626C65 
 4306              	.LASF90:
 4307 0803 43617053 		.ascii	"CapSense_1_widgetNumber\000"
 4307      656E7365 
 4307      5F315F77 
 4307      69646765 
 4307      744E756D 
 4308              	.LASF46:
 4309 081b 6E657752 		.ascii	"newRegisterValue\000"
 4309      65676973 
 4309      74657256 
 4309      616C7565 
 4309      00
 4310              	.LASF77:
 4311 082c 43617053 		.ascii	"CapSense_1_GetIDACRange\000"
 4311      656E7365 
 4311      5F315F47 
 4311      65744944 
 4311      41435261 
 4312              	.LASF97:
 4313 0844 43617053 		.ascii	"CapSense_1_pinShiftTbl\000"
 4313      656E7365 
 4313      5F315F70 
 4313      696E5368 
 4313      69667454 
 4314              		.ident	"GCC: (GNU Tools for ARM Embedded Processors) 5.4.1 20160609 (release) [ARM/embedded-5-bran
