ARM GAS  C:\Users\d4hhm\AppData\Local\Temp\ccLEMF4D.s 			page 1


   1              		.syntax unified
   2              		.cpu cortex-m0
   3              		.fpu softvfp
   4              		.eabi_attribute 20, 1
   5              		.eabi_attribute 21, 1
   6              		.eabi_attribute 23, 3
   7              		.eabi_attribute 24, 1
   8              		.eabi_attribute 25, 1
   9              		.eabi_attribute 26, 1
  10              		.eabi_attribute 30, 6
  11              		.eabi_attribute 34, 0
  12              		.eabi_attribute 18, 4
  13              		.thumb
  14              		.syntax unified
  15              		.file	"CapSense_1.c"
  16              		.text
  17              	.Ltext0:
  18              		.cfi_sections	.debug_frame
  19              		.global	CapSense_1_csdStatusVar
  20              		.bss
  21              		.type	CapSense_1_csdStatusVar, %object
  22              		.size	CapSense_1_csdStatusVar, 1
  23              	CapSense_1_csdStatusVar:
  24 0000 00       		.space	1
  25              		.global	CapSense_1_sensorIndex
  26              		.type	CapSense_1_sensorIndex, %object
  27              		.size	CapSense_1_sensorIndex, 1
  28              	CapSense_1_sensorIndex:
  29 0001 00       		.space	1
  30              		.global	CapSense_1_sensorRaw
  31 0002 0000     		.align	2
  32              		.type	CapSense_1_sensorRaw, %object
  33              		.size	CapSense_1_sensorRaw, 2
  34              	CapSense_1_sensorRaw:
  35 0004 0000     		.space	2
  36              		.comm	CapSense_1_csdTrim1,1,1
  37              		.comm	CapSense_1_unscannedSnsDriveMode,1,4
  38              		.comm	CapSense_1_sensorEnableMaskBackup,1,4
  39              		.global	CapSense_1_sensorEnableMask
  40              		.data
  41              		.align	2
  42              		.type	CapSense_1_sensorEnableMask, %object
  43              		.size	CapSense_1_sensorEnableMask, 1
  44              	CapSense_1_sensorEnableMask:
  45 0000 01       		.byte	1
  46              		.global	CapSense_1_pcTable
  47 0001 000000   		.align	2
  48              		.type	CapSense_1_pcTable, %object
  49              		.size	CapSense_1_pcTable, 4
  50              	CapSense_1_pcTable:
  51 0004 08030440 		.word	1074004744
  52              		.global	CapSense_1_portTable
  53              		.section	.rodata
  54              		.align	2
  55              		.type	CapSense_1_portTable, %object
  56              		.size	CapSense_1_portTable, 1
  57              	CapSense_1_portTable:
ARM GAS  C:\Users\d4hhm\AppData\Local\Temp\ccLEMF4D.s 			page 2


  58 0000 03       		.byte	3
  59              		.global	CapSense_1_maskTable
  60 0001 000000   		.align	2
  61              		.type	CapSense_1_maskTable, %object
  62              		.size	CapSense_1_maskTable, 4
  63              	CapSense_1_maskTable:
  64 0004 10000000 		.word	16
  65              		.global	CapSense_1_pinShiftTbl
  66              		.align	2
  67              		.type	CapSense_1_pinShiftTbl, %object
  68              		.size	CapSense_1_pinShiftTbl, 1
  69              	CapSense_1_pinShiftTbl:
  70 0008 04       		.byte	4
  71              		.global	CapSense_1_modulationIDAC
  72 0009 000000   		.align	2
  73              		.type	CapSense_1_modulationIDAC, %object
  74              		.size	CapSense_1_modulationIDAC, 1
  75              	CapSense_1_modulationIDAC:
  76 000c 50       		.byte	80
  77              		.global	CapSense_1_compensationIDAC
  78 000d 000000   		.align	2
  79              		.type	CapSense_1_compensationIDAC, %object
  80              		.size	CapSense_1_compensationIDAC, 1
  81              	CapSense_1_compensationIDAC:
  82 0010 50       		.byte	80
  83              		.global	CapSense_1_widgetResolution
  84 0011 000000   		.align	2
  85              		.type	CapSense_1_widgetResolution, %object
  86              		.size	CapSense_1_widgetResolution, 4
  87              	CapSense_1_widgetResolution:
  88 0014 0000FF03 		.word	67043328
  89              		.global	CapSense_1_senseClkDividerVal
  90              		.align	2
  91              		.type	CapSense_1_senseClkDividerVal, %object
  92              		.size	CapSense_1_senseClkDividerVal, 1
  93              	CapSense_1_senseClkDividerVal:
  94 0018 02       		.byte	2
  95              		.global	CapSense_1_sampleClkDividerVal
  96 0019 000000   		.align	2
  97              		.type	CapSense_1_sampleClkDividerVal, %object
  98              		.size	CapSense_1_sampleClkDividerVal, 1
  99              	CapSense_1_sampleClkDividerVal:
 100 001c 02       		.byte	2
 101              		.global	CapSense_1_widgetNumber
 102 001d 000000   		.align	2
 103              		.type	CapSense_1_widgetNumber, %object
 104              		.size	CapSense_1_widgetNumber, 1
 105              	CapSense_1_widgetNumber:
 106 0020 00       		.space	1
 107              		.global	CapSense_1_prtSelTbl
 108 0021 000000   		.align	2
 109              		.type	CapSense_1_prtSelTbl, %object
 110              		.size	CapSense_1_prtSelTbl, 28
 111              	CapSense_1_prtSelTbl:
 112 0024 00000240 		.word	1073872896
 113 0028 00010240 		.word	1073873152
 114 002c 00020240 		.word	1073873408
ARM GAS  C:\Users\d4hhm\AppData\Local\Temp\ccLEMF4D.s 			page 3


 115 0030 00030240 		.word	1073873664
 116 0034 00040240 		.word	1073873920
 117 0038 00050240 		.word	1073874176
 118 003c 00060240 		.word	1073874432
 119              		.global	CapSense_1_prtCfgTbl
 120              		.align	2
 121              		.type	CapSense_1_prtCfgTbl, %object
 122              		.size	CapSense_1_prtCfgTbl, 28
 123              	CapSense_1_prtCfgTbl:
 124 0040 08000440 		.word	1074003976
 125 0044 08010440 		.word	1074004232
 126 0048 08020440 		.word	1074004488
 127 004c 08030440 		.word	1074004744
 128 0050 08040440 		.word	1074005000
 129 0054 08050440 		.word	1074005256
 130 0058 08060440 		.word	1074005512
 131              		.global	CapSense_1_prtDRTbl
 132              		.align	2
 133              		.type	CapSense_1_prtDRTbl, %object
 134              		.size	CapSense_1_prtDRTbl, 28
 135              	CapSense_1_prtDRTbl:
 136 005c 00000440 		.word	1074003968
 137 0060 00010440 		.word	1074004224
 138 0064 00020440 		.word	1074004480
 139 0068 00030440 		.word	1074004736
 140 006c 00040440 		.word	1074004992
 141 0070 00050440 		.word	1074005248
 142 0074 00060440 		.word	1074005504
 143              		.section	.text.CapSense_1_Init,"ax",%progbits
 144              		.align	2
 145              		.global	CapSense_1_Init
 146              		.code	16
 147              		.thumb_func
 148              		.type	CapSense_1_Init, %function
 149              	CapSense_1_Init:
 150              	.LFB34:
 151              		.file 1 "Generated_Source\\PSoC4\\CapSense_1.c"
   1:Generated_Source\PSoC4/CapSense_1.c **** /*******************************************************************************
   2:Generated_Source\PSoC4/CapSense_1.c **** * File Name: CapSense_1.c
   3:Generated_Source\PSoC4/CapSense_1.c **** * Version 2.60
   4:Generated_Source\PSoC4/CapSense_1.c **** *
   5:Generated_Source\PSoC4/CapSense_1.c **** * Description:
   6:Generated_Source\PSoC4/CapSense_1.c **** *  This file provides the source code for scanning APIs for the CapSense CSD
   7:Generated_Source\PSoC4/CapSense_1.c **** *  component.
   8:Generated_Source\PSoC4/CapSense_1.c **** *
   9:Generated_Source\PSoC4/CapSense_1.c **** * Note:
  10:Generated_Source\PSoC4/CapSense_1.c **** *
  11:Generated_Source\PSoC4/CapSense_1.c **** ********************************************************************************
  12:Generated_Source\PSoC4/CapSense_1.c **** * Copyright 2013-2016, Cypress Semiconductor Corporation.  All rights reserved.
  13:Generated_Source\PSoC4/CapSense_1.c **** * You may use this file only in accordance with the license, terms, conditions,
  14:Generated_Source\PSoC4/CapSense_1.c **** * disclaimers, and limitations in the end user license agreement accompanying
  15:Generated_Source\PSoC4/CapSense_1.c **** * the software package with which this file was provided.
  16:Generated_Source\PSoC4/CapSense_1.c **** *******************************************************************************/
  17:Generated_Source\PSoC4/CapSense_1.c **** 
  18:Generated_Source\PSoC4/CapSense_1.c **** #include "CapSense_1.h"
  19:Generated_Source\PSoC4/CapSense_1.c **** #include "CapSense_1_PVT.h"
  20:Generated_Source\PSoC4/CapSense_1.c **** #include "cypins.h"
ARM GAS  C:\Users\d4hhm\AppData\Local\Temp\ccLEMF4D.s 			page 4


  21:Generated_Source\PSoC4/CapSense_1.c **** #include "cyapicallbacks.h"
  22:Generated_Source\PSoC4/CapSense_1.c **** 
  23:Generated_Source\PSoC4/CapSense_1.c **** #if(0u != CapSense_1_CSHL_API_GENERATE)
  24:Generated_Source\PSoC4/CapSense_1.c ****     #include "CapSense_1_CSHL.h"
  25:Generated_Source\PSoC4/CapSense_1.c **** #endif /* (0u != CapSense_1_CSHL_API_GENERATE) */
  26:Generated_Source\PSoC4/CapSense_1.c **** 
  27:Generated_Source\PSoC4/CapSense_1.c **** /* This definition is intended to prevent unexpected linker error.
  28:Generated_Source\PSoC4/CapSense_1.c ****    For more details please see the IAR Technical Note 49981 */
  29:Generated_Source\PSoC4/CapSense_1.c **** #if defined(__ICCARM__)
  30:Generated_Source\PSoC4/CapSense_1.c ****     extern void CapSense_1_EnableSensor(uint32 sensor);
  31:Generated_Source\PSoC4/CapSense_1.c ****     extern void CapSense_1_DisableSensor(uint32 sensor);
  32:Generated_Source\PSoC4/CapSense_1.c **** #endif /* (__ICCARM__) */
  33:Generated_Source\PSoC4/CapSense_1.c **** 
  34:Generated_Source\PSoC4/CapSense_1.c **** /* SmartSense functions */
  35:Generated_Source\PSoC4/CapSense_1.c **** #if (CapSense_1_TUNING_METHOD == CapSense_1__TUNING_AUTO)
  36:Generated_Source\PSoC4/CapSense_1.c ****     uint8 CapSense_1_lowLevelTuningDone = 0u;
  37:Generated_Source\PSoC4/CapSense_1.c ****     uint8 CapSense_1_scanSpeedTbl[((CapSense_1_TOTAL_SENSOR_COUNT - 1u) / 8u) + 1u];
  38:Generated_Source\PSoC4/CapSense_1.c **** #endif /* (CapSense_1_TUNING_METHOD == CapSense_1__TUNING_AUTO) */
  39:Generated_Source\PSoC4/CapSense_1.c **** 
  40:Generated_Source\PSoC4/CapSense_1.c **** #if(CapSense_1_PRS_OPTIONS != CapSense_1__PRS_NONE)
  41:Generated_Source\PSoC4/CapSense_1.c ****     uint8 CapSense_1_prescalersTuningDone = 0u;
  42:Generated_Source\PSoC4/CapSense_1.c **** #endif /* (CapSense_1_PRS_OPTIONS == CapSense_1__PRS_NONE) */
  43:Generated_Source\PSoC4/CapSense_1.c **** 
  44:Generated_Source\PSoC4/CapSense_1.c **** /* Global software variables */
  45:Generated_Source\PSoC4/CapSense_1.c **** volatile uint8 CapSense_1_csdStatusVar = 0u;   /* CapSense CSD status, variable */
  46:Generated_Source\PSoC4/CapSense_1.c **** volatile uint8 CapSense_1_sensorIndex = 0u;    /* Index of scannig sensor */
  47:Generated_Source\PSoC4/CapSense_1.c **** 
  48:Generated_Source\PSoC4/CapSense_1.c **** /* Global array of Raw Counts */
  49:Generated_Source\PSoC4/CapSense_1.c **** uint16 CapSense_1_sensorRaw[CapSense_1_TOTAL_SENSOR_COUNT] = {0u};
  50:Generated_Source\PSoC4/CapSense_1.c **** 
  51:Generated_Source\PSoC4/CapSense_1.c **** /* Backup variables for trim registers*/
  52:Generated_Source\PSoC4/CapSense_1.c **** #if (CapSense_1_IDAC1_POLARITY == CapSense_1__IDAC_SINK)
  53:Generated_Source\PSoC4/CapSense_1.c ****     uint8 CapSense_1_csdTrim2;
  54:Generated_Source\PSoC4/CapSense_1.c **** #else
  55:Generated_Source\PSoC4/CapSense_1.c ****     uint8 CapSense_1_csdTrim1;
  56:Generated_Source\PSoC4/CapSense_1.c **** #endif /* (CapSense_1_IDAC1_POLARITY == CapSense_1__IDAC_SINK) */
  57:Generated_Source\PSoC4/CapSense_1.c **** 
  58:Generated_Source\PSoC4/CapSense_1.c **** /* Global array of un-scanned sensors state */
  59:Generated_Source\PSoC4/CapSense_1.c **** uint8 CapSense_1_unscannedSnsDriveMode[CapSense_1_PORT_PIN_CONFIG_TBL_ZISE];
  60:Generated_Source\PSoC4/CapSense_1.c **** 
  61:Generated_Source\PSoC4/CapSense_1.c **** /* Backup array for CapSense_1_sensorEnableMask */
  62:Generated_Source\PSoC4/CapSense_1.c **** uint8 CapSense_1_sensorEnableMaskBackup[(((CapSense_1_TOTAL_SENSOR_COUNT - 1u) / 8u) + 1u)];
  63:Generated_Source\PSoC4/CapSense_1.c **** 
  64:Generated_Source\PSoC4/CapSense_1.c **** /* Configured constants and arrays by Customizer */
  65:Generated_Source\PSoC4/CapSense_1.c **** uint8 CapSense_1_sensorEnableMask[(((CapSense_1_TOTAL_SENSOR_COUNT - 1u) / 8u) + 1u)] = {
  66:Generated_Source\PSoC4/CapSense_1.c **** 0x1u, };
  67:Generated_Source\PSoC4/CapSense_1.c **** 
  68:Generated_Source\PSoC4/CapSense_1.c **** reg32 * CapSense_1_pcTable[] = {
  69:Generated_Source\PSoC4/CapSense_1.c ****     (reg32 *)CapSense_1_Sns__Button0__BTN__PC, 
  70:Generated_Source\PSoC4/CapSense_1.c **** };
  71:Generated_Source\PSoC4/CapSense_1.c **** 
  72:Generated_Source\PSoC4/CapSense_1.c **** const uint8 CapSense_1_portTable[] = {
  73:Generated_Source\PSoC4/CapSense_1.c ****     CapSense_1_Sns__Button0__BTN__PORT, 
  74:Generated_Source\PSoC4/CapSense_1.c **** };
  75:Generated_Source\PSoC4/CapSense_1.c **** 
  76:Generated_Source\PSoC4/CapSense_1.c **** const uint32 CapSense_1_maskTable[] = {
  77:Generated_Source\PSoC4/CapSense_1.c ****     CapSense_1_Sns__Button0__BTN__MASK, 
ARM GAS  C:\Users\d4hhm\AppData\Local\Temp\ccLEMF4D.s 			page 5


  78:Generated_Source\PSoC4/CapSense_1.c **** };
  79:Generated_Source\PSoC4/CapSense_1.c **** 
  80:Generated_Source\PSoC4/CapSense_1.c **** const uint8 CapSense_1_pinShiftTbl[] = {
  81:Generated_Source\PSoC4/CapSense_1.c ****     (uint8) CapSense_1_Sns__Button0__BTN__SHIFT, 
  82:Generated_Source\PSoC4/CapSense_1.c **** };
  83:Generated_Source\PSoC4/CapSense_1.c **** 
  84:Generated_Source\PSoC4/CapSense_1.c **** const uint8 CapSense_1_modulationIDAC[CapSense_1_TOTAL_SENSOR_COUNT] = {
  85:Generated_Source\PSoC4/CapSense_1.c ****     80u, 
  86:Generated_Source\PSoC4/CapSense_1.c **** };
  87:Generated_Source\PSoC4/CapSense_1.c **** const uint8 CapSense_1_compensationIDAC[CapSense_1_TOTAL_SENSOR_COUNT] = {
  88:Generated_Source\PSoC4/CapSense_1.c ****     80u, 
  89:Generated_Source\PSoC4/CapSense_1.c **** };
  90:Generated_Source\PSoC4/CapSense_1.c **** 
  91:Generated_Source\PSoC4/CapSense_1.c **** const uint32 CapSense_1_widgetResolution[CapSense_1_RESOLUTIONS_TBL_SIZE] = {
  92:Generated_Source\PSoC4/CapSense_1.c ****     CapSense_1_RESOLUTION_10_BITS,
  93:Generated_Source\PSoC4/CapSense_1.c **** };
  94:Generated_Source\PSoC4/CapSense_1.c **** 
  95:Generated_Source\PSoC4/CapSense_1.c **** const uint8 CapSense_1_senseClkDividerVal[CapSense_1_TOTAL_SCANSLOT_COUNT] = {
  96:Generated_Source\PSoC4/CapSense_1.c ****     2u, 
  97:Generated_Source\PSoC4/CapSense_1.c **** };
  98:Generated_Source\PSoC4/CapSense_1.c **** const uint8 CapSense_1_sampleClkDividerVal[CapSense_1_TOTAL_SCANSLOT_COUNT] = {
  99:Generated_Source\PSoC4/CapSense_1.c ****     2u, 
 100:Generated_Source\PSoC4/CapSense_1.c **** };
 101:Generated_Source\PSoC4/CapSense_1.c **** 
 102:Generated_Source\PSoC4/CapSense_1.c **** 
 103:Generated_Source\PSoC4/CapSense_1.c **** const uint8 CapSense_1_widgetNumber[CapSense_1_TOTAL_SENSOR_COUNT] = {
 104:Generated_Source\PSoC4/CapSense_1.c ****     0u, /* Button0__BTN */
 105:Generated_Source\PSoC4/CapSense_1.c **** };
 106:Generated_Source\PSoC4/CapSense_1.c **** 
 107:Generated_Source\PSoC4/CapSense_1.c **** reg32* const CapSense_1_prtSelTbl[CapSense_1_CFG_REG_TBL_SIZE] = {
 108:Generated_Source\PSoC4/CapSense_1.c ****     ((reg32 *) CYREG_HSIOM_PORT_SEL0),
 109:Generated_Source\PSoC4/CapSense_1.c ****     ((reg32 *) CYREG_HSIOM_PORT_SEL1),
 110:Generated_Source\PSoC4/CapSense_1.c ****     ((reg32 *) CYREG_HSIOM_PORT_SEL2),
 111:Generated_Source\PSoC4/CapSense_1.c ****     ((reg32 *) CYREG_HSIOM_PORT_SEL3),
 112:Generated_Source\PSoC4/CapSense_1.c ****     ((reg32 *) CYREG_HSIOM_PORT_SEL4),
 113:Generated_Source\PSoC4/CapSense_1.c ****     ((reg32 *) CYREG_HSIOM_PORT_SEL5),
 114:Generated_Source\PSoC4/CapSense_1.c ****     ((reg32 *) CYREG_HSIOM_PORT_SEL6),
 115:Generated_Source\PSoC4/CapSense_1.c **** };
 116:Generated_Source\PSoC4/CapSense_1.c **** 
 117:Generated_Source\PSoC4/CapSense_1.c **** reg32* const CapSense_1_prtCfgTbl[CapSense_1_CFG_REG_TBL_SIZE] = {
 118:Generated_Source\PSoC4/CapSense_1.c ****     ((reg32 *) CYREG_GPIO_PRT0_PC),
 119:Generated_Source\PSoC4/CapSense_1.c ****     ((reg32 *) CYREG_GPIO_PRT1_PC),
 120:Generated_Source\PSoC4/CapSense_1.c ****     ((reg32 *) CYREG_GPIO_PRT2_PC),
 121:Generated_Source\PSoC4/CapSense_1.c ****     ((reg32 *) CYREG_GPIO_PRT3_PC),
 122:Generated_Source\PSoC4/CapSense_1.c ****     ((reg32 *) CYREG_GPIO_PRT4_PC),
 123:Generated_Source\PSoC4/CapSense_1.c ****     ((reg32 *) CYREG_GPIO_PRT5_PC),
 124:Generated_Source\PSoC4/CapSense_1.c ****     ((reg32 *) CYREG_GPIO_PRT6_PC),
 125:Generated_Source\PSoC4/CapSense_1.c **** };
 126:Generated_Source\PSoC4/CapSense_1.c **** 
 127:Generated_Source\PSoC4/CapSense_1.c **** reg32* const CapSense_1_prtDRTbl[CapSense_1_CFG_REG_TBL_SIZE] = {
 128:Generated_Source\PSoC4/CapSense_1.c ****     ((reg32 *) CYREG_GPIO_PRT0_DR),
 129:Generated_Source\PSoC4/CapSense_1.c ****     ((reg32 *) CYREG_GPIO_PRT1_DR),
 130:Generated_Source\PSoC4/CapSense_1.c ****     ((reg32 *) CYREG_GPIO_PRT2_DR),
 131:Generated_Source\PSoC4/CapSense_1.c ****     ((reg32 *) CYREG_GPIO_PRT3_DR),
 132:Generated_Source\PSoC4/CapSense_1.c ****     ((reg32 *) CYREG_GPIO_PRT4_DR),
 133:Generated_Source\PSoC4/CapSense_1.c ****     ((reg32 *) CYREG_GPIO_PRT5_DR),
 134:Generated_Source\PSoC4/CapSense_1.c ****     ((reg32 *) CYREG_GPIO_PRT6_DR),
ARM GAS  C:\Users\d4hhm\AppData\Local\Temp\ccLEMF4D.s 			page 6


 135:Generated_Source\PSoC4/CapSense_1.c **** };
 136:Generated_Source\PSoC4/CapSense_1.c **** 
 137:Generated_Source\PSoC4/CapSense_1.c **** 
 138:Generated_Source\PSoC4/CapSense_1.c **** 
 139:Generated_Source\PSoC4/CapSense_1.c **** /*******************************************************************************
 140:Generated_Source\PSoC4/CapSense_1.c **** * Function Name: CapSense_1_Init
 141:Generated_Source\PSoC4/CapSense_1.c **** ********************************************************************************
 142:Generated_Source\PSoC4/CapSense_1.c **** *
 143:Generated_Source\PSoC4/CapSense_1.c **** * Summary:
 144:Generated_Source\PSoC4/CapSense_1.c **** *  API initializes default CapSense configuration provided by the customizer that defines
 145:Generated_Source\PSoC4/CapSense_1.c **** *  the mode of component operations and resets all the sensors to an inactive state.
 146:Generated_Source\PSoC4/CapSense_1.c **** *
 147:Generated_Source\PSoC4/CapSense_1.c **** * Parameters:
 148:Generated_Source\PSoC4/CapSense_1.c **** *  None
 149:Generated_Source\PSoC4/CapSense_1.c **** *
 150:Generated_Source\PSoC4/CapSense_1.c **** * Return:
 151:Generated_Source\PSoC4/CapSense_1.c **** *  None
 152:Generated_Source\PSoC4/CapSense_1.c **** *
 153:Generated_Source\PSoC4/CapSense_1.c **** * Global Variables:
 154:Generated_Source\PSoC4/CapSense_1.c **** *  CapSense_1_immunityIndex - defines immunity level.
 155:Generated_Source\PSoC4/CapSense_1.c **** *
 156:Generated_Source\PSoC4/CapSense_1.c **** * Side Effects:
 157:Generated_Source\PSoC4/CapSense_1.c **** *  None
 158:Generated_Source\PSoC4/CapSense_1.c **** *
 159:Generated_Source\PSoC4/CapSense_1.c **** *******************************************************************************/
 160:Generated_Source\PSoC4/CapSense_1.c **** void CapSense_1_Init(void)
 161:Generated_Source\PSoC4/CapSense_1.c **** {
 152              		.loc 1 161 0
 153              		.cfi_startproc
 154              		@ args = 0, pretend = 0, frame = 8
 155              		@ frame_needed = 1, uses_anonymous_args = 0
 156 0000 80B5     		push	{r7, lr}
 157              		.cfi_def_cfa_offset 8
 158              		.cfi_offset 7, -8
 159              		.cfi_offset 14, -4
 160 0002 82B0     		sub	sp, sp, #8
 161              		.cfi_def_cfa_offset 16
 162 0004 00AF     		add	r7, sp, #0
 163              		.cfi_def_cfa_register 7
 162:Generated_Source\PSoC4/CapSense_1.c ****     uint32 curSensor;
 163:Generated_Source\PSoC4/CapSense_1.c **** 
 164:Generated_Source\PSoC4/CapSense_1.c ****     #if(CapSense_1_IS_SHIELD_ENABLE)
 165:Generated_Source\PSoC4/CapSense_1.c **** 
 166:Generated_Source\PSoC4/CapSense_1.c ****         #if((CapSense_1_CSH_TANK_PREGARGE_OPTION == CapSense_1__CAPPRIOBUF) || (0u != CapSense_1_CS
 167:Generated_Source\PSoC4/CapSense_1.c ****             uint32 newRegValue;
 168:Generated_Source\PSoC4/CapSense_1.c **** 
 169:Generated_Source\PSoC4/CapSense_1.c ****             newRegValue = CapSense_1_CTANK_CONNECTION_REG;
 170:Generated_Source\PSoC4/CapSense_1.c ****             newRegValue &= ~(CapSense_1_CSD_CTANK_CONNECTION_MASK);
 171:Generated_Source\PSoC4/CapSense_1.c ****             newRegValue |= CapSense_1_CSD_CTANK_TO_AMUXBUS_B;
 172:Generated_Source\PSoC4/CapSense_1.c ****             CapSense_1_CTANK_CONNECTION_REG = newRegValue;
 173:Generated_Source\PSoC4/CapSense_1.c **** 
 174:Generated_Source\PSoC4/CapSense_1.c ****             #if(CapSense_1_CSH_TANK_PREGARGE_OPTION == CapSense_1__CAPPRIOBUF)
 175:Generated_Source\PSoC4/CapSense_1.c ****                 newRegValue = CapSense_1_CTANK_PORT_PC_REG;
 176:Generated_Source\PSoC4/CapSense_1.c ****                 newRegValue &= ~(CapSense_1_CSD_CTANK_PC_MASK);
 177:Generated_Source\PSoC4/CapSense_1.c ****                 newRegValue |= CapSense_1_CTANK_PC_STRONG_MODE;
 178:Generated_Source\PSoC4/CapSense_1.c ****                 CapSense_1_CTANK_PORT_PC_REG = newRegValue;
 179:Generated_Source\PSoC4/CapSense_1.c **** 
ARM GAS  C:\Users\d4hhm\AppData\Local\Temp\ccLEMF4D.s 			page 7


 180:Generated_Source\PSoC4/CapSense_1.c ****                 newRegValue = CapSense_1_CTANK_PORT_DR_REG;
 181:Generated_Source\PSoC4/CapSense_1.c ****                 newRegValue &= ~(CapSense_1_CTANK_DR_MASK);
 182:Generated_Source\PSoC4/CapSense_1.c ****                 newRegValue |= CapSense_1_CTANK_DR_CONFIG;
 183:Generated_Source\PSoC4/CapSense_1.c ****                 CapSense_1_CTANK_PORT_DR_REG = newRegValue;
 184:Generated_Source\PSoC4/CapSense_1.c ****             #endif /* (CapSense_1_CSH_TANK_PREGARGE_OPTION == CapSense_1__CAPPRIOBUF) */
 185:Generated_Source\PSoC4/CapSense_1.c **** 
 186:Generated_Source\PSoC4/CapSense_1.c ****         #endif /* ((CapSense_1_CSH_TANK_PREGARGE_OPTION == CapSense_1__CAPPRIOBUF) || (CapSense_1_C
 187:Generated_Source\PSoC4/CapSense_1.c **** 
 188:Generated_Source\PSoC4/CapSense_1.c ****         CapSense_1_EnableShieldElectrode((uint32)CapSense_1_SHIELD_PIN_NUMBER, (uint32)CapSense_1_S
 164              		.loc 1 188 0
 165 0006 0321     		movs	r1, #3
 166 0008 0720     		movs	r0, #7
 167 000a FFF7FEFF 		bl	CapSense_1_EnableShieldElectrode
 189:Generated_Source\PSoC4/CapSense_1.c **** 
 190:Generated_Source\PSoC4/CapSense_1.c ****     #endif /* (CapSense_1_IS_SHIELD_ENABLE) */
 191:Generated_Source\PSoC4/CapSense_1.c **** 
 192:Generated_Source\PSoC4/CapSense_1.c ****     for(curSensor = 0u; curSensor < CapSense_1_TOTAL_SENSOR_COUNT; curSensor++)
 168              		.loc 1 192 0
 169 000e 0023     		movs	r3, #0
 170 0010 7B60     		str	r3, [r7, #4]
 171 0012 07E0     		b	.L2
 172              	.L3:
 193:Generated_Source\PSoC4/CapSense_1.c ****     {
 194:Generated_Source\PSoC4/CapSense_1.c ****         CapSense_1_SetUnscannedSensorState(curSensor, CapSense_1_CONNECT_INACTIVE_SNS);
 173              		.loc 1 194 0 discriminator 3
 174 0014 7B68     		ldr	r3, [r7, #4]
 175 0016 0221     		movs	r1, #2
 176 0018 1800     		movs	r0, r3
 177 001a FFF7FEFF 		bl	CapSense_1_SetUnscannedSensorState
 192:Generated_Source\PSoC4/CapSense_1.c ****     {
 178              		.loc 1 192 0 discriminator 3
 179 001e 7B68     		ldr	r3, [r7, #4]
 180 0020 0133     		adds	r3, r3, #1
 181 0022 7B60     		str	r3, [r7, #4]
 182              	.L2:
 192:Generated_Source\PSoC4/CapSense_1.c ****     {
 183              		.loc 1 192 0 is_stmt 0 discriminator 1
 184 0024 7B68     		ldr	r3, [r7, #4]
 185 0026 002B     		cmp	r3, #0
 186 0028 F4D0     		beq	.L3
 195:Generated_Source\PSoC4/CapSense_1.c ****     }
 196:Generated_Source\PSoC4/CapSense_1.c **** 
 197:Generated_Source\PSoC4/CapSense_1.c ****     CapSense_1_CsdHwBlockInit();
 187              		.loc 1 197 0 is_stmt 1
 188 002a FFF7FEFF 		bl	CapSense_1_CsdHwBlockInit
 198:Generated_Source\PSoC4/CapSense_1.c ****     CapSense_1_SetShieldDelay(CapSense_1_SHIELD_DELAY );
 189              		.loc 1 198 0
 190 002e 0020     		movs	r0, #0
 191 0030 FFF7FEFF 		bl	CapSense_1_SetShieldDelay
 199:Generated_Source\PSoC4/CapSense_1.c **** 
 200:Generated_Source\PSoC4/CapSense_1.c ****     /* Clear all sensors */
 201:Generated_Source\PSoC4/CapSense_1.c ****     CapSense_1_ClearSensors();
 192              		.loc 1 201 0
 193 0034 FFF7FEFF 		bl	CapSense_1_ClearSensors
 202:Generated_Source\PSoC4/CapSense_1.c **** }
 194              		.loc 1 202 0
 195 0038 C046     		nop
ARM GAS  C:\Users\d4hhm\AppData\Local\Temp\ccLEMF4D.s 			page 8


 196 003a BD46     		mov	sp, r7
 197 003c 02B0     		add	sp, sp, #8
 198              		@ sp needed
 199 003e 80BD     		pop	{r7, pc}
 200              		.cfi_endproc
 201              	.LFE34:
 202              		.size	CapSense_1_Init, .-CapSense_1_Init
 203              		.section	.text.CapSense_1_CsdHwBlockInit,"ax",%progbits
 204              		.align	2
 205              		.global	CapSense_1_CsdHwBlockInit
 206              		.code	16
 207              		.thumb_func
 208              		.type	CapSense_1_CsdHwBlockInit, %function
 209              	CapSense_1_CsdHwBlockInit:
 210              	.LFB35:
 203:Generated_Source\PSoC4/CapSense_1.c **** 
 204:Generated_Source\PSoC4/CapSense_1.c **** /*******************************************************************************
 205:Generated_Source\PSoC4/CapSense_1.c **** * Function Name: CapSense_1_CsdHwBlockInit
 206:Generated_Source\PSoC4/CapSense_1.c **** ********************************************************************************
 207:Generated_Source\PSoC4/CapSense_1.c **** *
 208:Generated_Source\PSoC4/CapSense_1.c **** * Summary:
 209:Generated_Source\PSoC4/CapSense_1.c **** *  Initialises the hardware parameters of the CSD block
 210:Generated_Source\PSoC4/CapSense_1.c **** *
 211:Generated_Source\PSoC4/CapSense_1.c **** * Parameters:
 212:Generated_Source\PSoC4/CapSense_1.c **** *  None
 213:Generated_Source\PSoC4/CapSense_1.c **** *
 214:Generated_Source\PSoC4/CapSense_1.c **** * Return:
 215:Generated_Source\PSoC4/CapSense_1.c **** *  None
 216:Generated_Source\PSoC4/CapSense_1.c **** *
 217:Generated_Source\PSoC4/CapSense_1.c **** * Global Variables:
 218:Generated_Source\PSoC4/CapSense_1.c **** *  CapSense_1_csdTrim1 - Contains IDAC trim register value for Sourcing Mode.
 219:Generated_Source\PSoC4/CapSense_1.c **** *  CapSense_1_csdTrim2 - Contains IDAC trim register value for Sinking Mode.
 220:Generated_Source\PSoC4/CapSense_1.c **** *
 221:Generated_Source\PSoC4/CapSense_1.c **** * Side Effects:
 222:Generated_Source\PSoC4/CapSense_1.c **** *  None
 223:Generated_Source\PSoC4/CapSense_1.c **** *
 224:Generated_Source\PSoC4/CapSense_1.c **** *******************************************************************************/
 225:Generated_Source\PSoC4/CapSense_1.c **** void CapSense_1_CsdHwBlockInit(void)
 226:Generated_Source\PSoC4/CapSense_1.c **** {
 211              		.loc 1 226 0
 212              		.cfi_startproc
 213              		@ args = 0, pretend = 0, frame = 8
 214              		@ frame_needed = 1, uses_anonymous_args = 0
 215 0000 80B5     		push	{r7, lr}
 216              		.cfi_def_cfa_offset 8
 217              		.cfi_offset 7, -8
 218              		.cfi_offset 14, -4
 219 0002 82B0     		sub	sp, sp, #8
 220              		.cfi_def_cfa_offset 16
 221 0004 00AF     		add	r7, sp, #0
 222              		.cfi_def_cfa_register 7
 227:Generated_Source\PSoC4/CapSense_1.c ****     uint32 newRegValue;
 228:Generated_Source\PSoC4/CapSense_1.c **** 
 229:Generated_Source\PSoC4/CapSense_1.c ****         /* Set trim registers for CSD Mode */
 230:Generated_Source\PSoC4/CapSense_1.c ****     #if (CapSense_1_IDAC1_POLARITY == CapSense_1__IDAC_SINK)
 231:Generated_Source\PSoC4/CapSense_1.c ****         /* iDAC1 Sinking Mode */
 232:Generated_Source\PSoC4/CapSense_1.c ****         CapSense_1_csdTrim2 = (uint8)CapSense_1_CSD_TRIM2_REG;
ARM GAS  C:\Users\d4hhm\AppData\Local\Temp\ccLEMF4D.s 			page 9


 233:Generated_Source\PSoC4/CapSense_1.c ****         newRegValue = CapSense_1_csdTrim2;
 234:Generated_Source\PSoC4/CapSense_1.c ****         newRegValue &= CapSense_1_CSD_IDAC1_TRIM_MASK;
 235:Generated_Source\PSoC4/CapSense_1.c ****         newRegValue |= (uint32)((uint32)CapSense_1_SFLASH_CSD_TRIM2_REG & (uint32)CapSense_1_CSFLAS
 236:Generated_Source\PSoC4/CapSense_1.c **** 
 237:Generated_Source\PSoC4/CapSense_1.c ****         #if (CapSense_1_IDAC_CNT == 2u)
 238:Generated_Source\PSoC4/CapSense_1.c ****             /* iDAC2 Sinking Mode */
 239:Generated_Source\PSoC4/CapSense_1.c ****             newRegValue &= CapSense_1_CSD_IDAC2_TRIM_MASK;
 240:Generated_Source\PSoC4/CapSense_1.c ****             newRegValue |= (uint32)((uint32)CapSense_1_SFLASH_CSD_TRIM2_REG & (uint32)CapSense_1_CS
 241:Generated_Source\PSoC4/CapSense_1.c ****         #endif /* (CapSense_1_IDAC_CNT == 2u) */
 242:Generated_Source\PSoC4/CapSense_1.c ****         CapSense_1_CSD_TRIM2_REG = newRegValue;
 243:Generated_Source\PSoC4/CapSense_1.c ****     #else
 244:Generated_Source\PSoC4/CapSense_1.c ****         /* iDAC1 Sourcing Mode */
 245:Generated_Source\PSoC4/CapSense_1.c ****         CapSense_1_csdTrim1 = (uint8)CapSense_1_CSD_TRIM1_REG;
 223              		.loc 1 245 0
 224 0006 244B     		ldr	r3, .L5
 225 0008 1B68     		ldr	r3, [r3]
 226 000a DAB2     		uxtb	r2, r3
 227 000c 234B     		ldr	r3, .L5+4
 228 000e 1A70     		strb	r2, [r3]
 246:Generated_Source\PSoC4/CapSense_1.c ****         newRegValue = CapSense_1_csdTrim1;
 229              		.loc 1 246 0
 230 0010 224B     		ldr	r3, .L5+4
 231 0012 1B78     		ldrb	r3, [r3]
 232 0014 7B60     		str	r3, [r7, #4]
 247:Generated_Source\PSoC4/CapSense_1.c ****         newRegValue &= CapSense_1_CSD_IDAC1_TRIM_MASK;
 233              		.loc 1 247 0
 234 0016 7B68     		ldr	r3, [r7, #4]
 235 0018 0F22     		movs	r2, #15
 236 001a 9343     		bics	r3, r2
 237 001c 7B60     		str	r3, [r7, #4]
 248:Generated_Source\PSoC4/CapSense_1.c ****         newRegValue |= (uint32)((uint32)CapSense_1_SFLASH_CSD_TRIM1_REG & (uint32)CapSense_1_CSFLAS
 238              		.loc 1 248 0
 239 001e 204B     		ldr	r3, .L5+8
 240 0020 1B78     		ldrb	r3, [r3]
 241 0022 DBB2     		uxtb	r3, r3
 242 0024 1A00     		movs	r2, r3
 243 0026 0F23     		movs	r3, #15
 244 0028 1340     		ands	r3, r2
 245 002a 7A68     		ldr	r2, [r7, #4]
 246 002c 1343     		orrs	r3, r2
 247 002e 7B60     		str	r3, [r7, #4]
 249:Generated_Source\PSoC4/CapSense_1.c ****         #if (CapSense_1_IDAC_CNT == 2u)
 250:Generated_Source\PSoC4/CapSense_1.c ****              /* iDAC2 Sourcing Mode */
 251:Generated_Source\PSoC4/CapSense_1.c ****             newRegValue &= CapSense_1_CSD_IDAC2_TRIM_MASK;
 248              		.loc 1 251 0
 249 0030 7B68     		ldr	r3, [r7, #4]
 250 0032 F022     		movs	r2, #240
 251 0034 9343     		bics	r3, r2
 252 0036 7B60     		str	r3, [r7, #4]
 252:Generated_Source\PSoC4/CapSense_1.c ****             newRegValue |= (uint32)((uint32)CapSense_1_SFLASH_CSD_TRIM1_REG & (uint32)CapSense_1_CS
 253              		.loc 1 252 0
 254 0038 194B     		ldr	r3, .L5+8
 255 003a 1B78     		ldrb	r3, [r3]
 256 003c DBB2     		uxtb	r3, r3
 257 003e 1A00     		movs	r2, r3
 258 0040 F023     		movs	r3, #240
 259 0042 1340     		ands	r3, r2
ARM GAS  C:\Users\d4hhm\AppData\Local\Temp\ccLEMF4D.s 			page 10


 260 0044 7A68     		ldr	r2, [r7, #4]
 261 0046 1343     		orrs	r3, r2
 262 0048 7B60     		str	r3, [r7, #4]
 253:Generated_Source\PSoC4/CapSense_1.c ****         #endif
 254:Generated_Source\PSoC4/CapSense_1.c ****         CapSense_1_CSD_TRIM1_REG = newRegValue;
 263              		.loc 1 254 0
 264 004a 134B     		ldr	r3, .L5
 265 004c 7A68     		ldr	r2, [r7, #4]
 266 004e 1A60     		str	r2, [r3]
 255:Generated_Source\PSoC4/CapSense_1.c ****     #endif /* (CapSense_1_IDAC1_POLARITY == CapSense_1__IDAC_SINK) */
 256:Generated_Source\PSoC4/CapSense_1.c **** 
 257:Generated_Source\PSoC4/CapSense_1.c ****     /* Configure CSD and IDAC */
 258:Generated_Source\PSoC4/CapSense_1.c ****     #if (CapSense_1_IDAC_CNT > 1u)
 259:Generated_Source\PSoC4/CapSense_1.c ****         CapSense_1_CSD_IDAC_REG = CapSense_1_DEFAULT_CSD_IDAC_CONFIG;
 267              		.loc 1 259 0
 268 0050 144B     		ldr	r3, .L5+12
 269 0052 154A     		ldr	r2, .L5+16
 270 0054 1A60     		str	r2, [r3]
 260:Generated_Source\PSoC4/CapSense_1.c ****         CapSense_1_CSD_CFG_REG = CapSense_1_DEFAULT_CSD_CONFIG;
 271              		.loc 1 260 0
 272 0056 154B     		ldr	r3, .L5+20
 273 0058 154A     		ldr	r2, .L5+24
 274 005a 1A60     		str	r2, [r3]
 261:Generated_Source\PSoC4/CapSense_1.c ****     #else
 262:Generated_Source\PSoC4/CapSense_1.c ****         CapSense_1_CSD_IDAC_REG &= ~(CapSense_1_CSD_IDAC1_MODE_MASK  | CapSense_1_CSD_IDAC1_DATA_MA
 263:Generated_Source\PSoC4/CapSense_1.c ****         CapSense_1_CSD_IDAC_REG |= CapSense_1_DEFAULT_CSD_IDAC_CONFIG;
 264:Generated_Source\PSoC4/CapSense_1.c **** 
 265:Generated_Source\PSoC4/CapSense_1.c ****         CapSense_1_CSD_CFG_REG &= ~(CapSense_1_CSD_CONFIG_MASK);
 266:Generated_Source\PSoC4/CapSense_1.c ****         CapSense_1_CSD_CFG_REG |= (CapSense_1_DEFAULT_CSD_CONFIG);
 267:Generated_Source\PSoC4/CapSense_1.c ****     #endif /* (CapSense_1_IDAC_CNT > 1u) */
 268:Generated_Source\PSoC4/CapSense_1.c **** 
 269:Generated_Source\PSoC4/CapSense_1.c **** 
 270:Generated_Source\PSoC4/CapSense_1.c ****     /* Connect Cmod to AMUX bus */
 271:Generated_Source\PSoC4/CapSense_1.c ****     newRegValue = CapSense_1_CMOD_CONNECTION_REG;
 275              		.loc 1 271 0
 276 005c 154B     		ldr	r3, .L5+28
 277 005e 1B68     		ldr	r3, [r3]
 278 0060 7B60     		str	r3, [r7, #4]
 272:Generated_Source\PSoC4/CapSense_1.c ****     newRegValue &= ~(CapSense_1_CSD_CMOD_CONNECTION_MASK);
 279              		.loc 1 272 0
 280 0062 7B68     		ldr	r3, [r7, #4]
 281 0064 0F22     		movs	r2, #15
 282 0066 9343     		bics	r3, r2
 283 0068 7B60     		str	r3, [r7, #4]
 273:Generated_Source\PSoC4/CapSense_1.c ****     newRegValue |= CapSense_1_CSD_CMOD_TO_AMUXBUS_A;
 284              		.loc 1 273 0
 285 006a 7B68     		ldr	r3, [r7, #4]
 286 006c 0622     		movs	r2, #6
 287 006e 1343     		orrs	r3, r2
 288 0070 7B60     		str	r3, [r7, #4]
 274:Generated_Source\PSoC4/CapSense_1.c ****     CapSense_1_CMOD_CONNECTION_REG = newRegValue;
 289              		.loc 1 274 0
 290 0072 104B     		ldr	r3, .L5+28
 291 0074 7A68     		ldr	r2, [r7, #4]
 292 0076 1A60     		str	r2, [r3]
 275:Generated_Source\PSoC4/CapSense_1.c **** 
 276:Generated_Source\PSoC4/CapSense_1.c ****     /* Configure Dead Band PWM if it is enabled */
ARM GAS  C:\Users\d4hhm\AppData\Local\Temp\ccLEMF4D.s 			page 11


 277:Generated_Source\PSoC4/CapSense_1.c ****     #if(CapSense_1_CSD_4B_PWM_MODE != CapSense_1__PWM_OFF)
 278:Generated_Source\PSoC4/CapSense_1.c ****         CapSense_1_CSD_4B_PWM_REG = CapSense_1_DEFAULT_CSD_4B_PWM_CONFIG;
 279:Generated_Source\PSoC4/CapSense_1.c ****     #endif /* (CapSense_1_CSD_4B_PWM_MODE != CapSense_1__PWM_OFF) */
 280:Generated_Source\PSoC4/CapSense_1.c **** 
 281:Generated_Source\PSoC4/CapSense_1.c ****     /* Setup ISR */
 282:Generated_Source\PSoC4/CapSense_1.c ****     CyIntDisable(CapSense_1_ISR_NUMBER);
 293              		.loc 1 282 0
 294 0078 1020     		movs	r0, #16
 295 007a FFF7FEFF 		bl	CyIntDisable
 283:Generated_Source\PSoC4/CapSense_1.c ****     #if !defined(CY_EXTERNAL_INTERRUPT_CONFIG)
 284:Generated_Source\PSoC4/CapSense_1.c ****         (void)CyIntSetVector(CapSense_1_ISR_NUMBER, &CapSense_1_ISR);
 296              		.loc 1 284 0
 297 007e 0E4B     		ldr	r3, .L5+32
 298 0080 1900     		movs	r1, r3
 299 0082 1020     		movs	r0, #16
 300 0084 FFF7FEFF 		bl	CyIntSetVector
 285:Generated_Source\PSoC4/CapSense_1.c ****         CyIntSetPriority(CapSense_1_ISR_NUMBER, CapSense_1_ISR_PRIORITY);
 301              		.loc 1 285 0
 302 0088 0321     		movs	r1, #3
 303 008a 1020     		movs	r0, #16
 304 008c FFF7FEFF 		bl	CyIntSetPriority
 286:Generated_Source\PSoC4/CapSense_1.c ****     #endif /* (CY_EXTERNAL_INTERRUPT_CONFIG) */
 287:Generated_Source\PSoC4/CapSense_1.c **** }
 305              		.loc 1 287 0
 306 0090 C046     		nop
 307 0092 BD46     		mov	sp, r7
 308 0094 02B0     		add	sp, sp, #8
 309              		@ sp needed
 310 0096 80BD     		pop	{r7, pc}
 311              	.L6:
 312              		.align	2
 313              	.L5:
 314 0098 00FF2840 		.word	1076428544
 315 009c 00000000 		.word	CapSense_1_csdTrim1
 316 00a0 62F1FF0F 		.word	268431714
 317 00a4 08002840 		.word	1076363272
 318 00a8 00020001 		.word	16777728
 319 00ac 04002840 		.word	1076363268
 320 00b0 0008A001 		.word	27265024
 321 00b4 00040240 		.word	1073873920
 322 00b8 00000000 		.word	CapSense_1_ISR
 323              		.cfi_endproc
 324              	.LFE35:
 325              		.size	CapSense_1_CsdHwBlockInit, .-CapSense_1_CsdHwBlockInit
 326              		.section	.text.CapSense_1_Enable,"ax",%progbits
 327              		.align	2
 328              		.global	CapSense_1_Enable
 329              		.code	16
 330              		.thumb_func
 331              		.type	CapSense_1_Enable, %function
 332              	CapSense_1_Enable:
 333              	.LFB36:
 288:Generated_Source\PSoC4/CapSense_1.c **** 
 289:Generated_Source\PSoC4/CapSense_1.c **** 
 290:Generated_Source\PSoC4/CapSense_1.c **** /*******************************************************************************
 291:Generated_Source\PSoC4/CapSense_1.c **** * Function Name: CapSense_1_Enable
 292:Generated_Source\PSoC4/CapSense_1.c **** ********************************************************************************
ARM GAS  C:\Users\d4hhm\AppData\Local\Temp\ccLEMF4D.s 			page 12


 293:Generated_Source\PSoC4/CapSense_1.c **** *
 294:Generated_Source\PSoC4/CapSense_1.c **** * Summary:
 295:Generated_Source\PSoC4/CapSense_1.c **** *  Enables the CSD block and related resources to an active mode.
 296:Generated_Source\PSoC4/CapSense_1.c **** *
 297:Generated_Source\PSoC4/CapSense_1.c **** * Parameters:
 298:Generated_Source\PSoC4/CapSense_1.c **** *  None
 299:Generated_Source\PSoC4/CapSense_1.c **** *
 300:Generated_Source\PSoC4/CapSense_1.c **** * Return:
 301:Generated_Source\PSoC4/CapSense_1.c **** *  None
 302:Generated_Source\PSoC4/CapSense_1.c **** *
 303:Generated_Source\PSoC4/CapSense_1.c **** * Global Variables:
 304:Generated_Source\PSoC4/CapSense_1.c **** *  None.
 305:Generated_Source\PSoC4/CapSense_1.c **** *
 306:Generated_Source\PSoC4/CapSense_1.c **** * Side Effects:
 307:Generated_Source\PSoC4/CapSense_1.c **** *  None
 308:Generated_Source\PSoC4/CapSense_1.c **** *
 309:Generated_Source\PSoC4/CapSense_1.c **** *******************************************************************************/
 310:Generated_Source\PSoC4/CapSense_1.c **** void CapSense_1_Enable(void)
 311:Generated_Source\PSoC4/CapSense_1.c **** {
 334              		.loc 1 311 0
 335              		.cfi_startproc
 336              		@ args = 0, pretend = 0, frame = 8
 337              		@ frame_needed = 1, uses_anonymous_args = 0
 338 0000 80B5     		push	{r7, lr}
 339              		.cfi_def_cfa_offset 8
 340              		.cfi_offset 7, -8
 341              		.cfi_offset 14, -4
 342 0002 82B0     		sub	sp, sp, #8
 343              		.cfi_def_cfa_offset 16
 344 0004 00AF     		add	r7, sp, #0
 345              		.cfi_def_cfa_register 7
 312:Generated_Source\PSoC4/CapSense_1.c ****     uint32 newRegValue;
 313:Generated_Source\PSoC4/CapSense_1.c **** 
 314:Generated_Source\PSoC4/CapSense_1.c ****     /* Enable Clocks */
 315:Generated_Source\PSoC4/CapSense_1.c ****     CapSense_1_SenseClk_Stop();
 346              		.loc 1 315 0
 347 0006 FFF7FEFF 		bl	CapSense_1_SenseClk_Stop
 316:Generated_Source\PSoC4/CapSense_1.c ****     CapSense_1_SampleClk_Stop();
 348              		.loc 1 316 0
 349 000a FFF7FEFF 		bl	CapSense_1_SampleClk_Stop
 317:Generated_Source\PSoC4/CapSense_1.c **** 
 318:Generated_Source\PSoC4/CapSense_1.c ****     CapSense_1_SampleClk_SetDividerValue((uint16)CapSense_1_INITIAL_CLK_DIVIDER);
 350              		.loc 1 318 0
 351 000e 0021     		movs	r1, #0
 352 0010 0020     		movs	r0, #0
 353 0012 FFF7FEFF 		bl	CapSense_1_SampleClk_SetFractionalDividerRegister
 319:Generated_Source\PSoC4/CapSense_1.c ****     CapSense_1_SenseClk_SetDividerValue((uint16)CapSense_1_INITIAL_CLK_DIVIDER);
 354              		.loc 1 319 0
 355 0016 0021     		movs	r1, #0
 356 0018 0020     		movs	r0, #0
 357 001a FFF7FEFF 		bl	CapSense_1_SenseClk_SetFractionalDividerRegister
 320:Generated_Source\PSoC4/CapSense_1.c **** 
 321:Generated_Source\PSoC4/CapSense_1.c ****     #if (0u == CapSense_1_IS_M0S8PERI_BLOCK)
 322:Generated_Source\PSoC4/CapSense_1.c ****         CapSense_1_SenseClk_Start();
 323:Generated_Source\PSoC4/CapSense_1.c ****         CapSense_1_SampleClk_Start();
 324:Generated_Source\PSoC4/CapSense_1.c ****     #else
 325:Generated_Source\PSoC4/CapSense_1.c ****         CapSense_1_SampleClk_Start();
ARM GAS  C:\Users\d4hhm\AppData\Local\Temp\ccLEMF4D.s 			page 13


 358              		.loc 1 325 0
 359 001e FF20     		movs	r0, #255
 360 0020 FFF7FEFF 		bl	CapSense_1_SampleClk_StartEx
 326:Generated_Source\PSoC4/CapSense_1.c ****         CapSense_1_SenseClk_StartEx(CapSense_1_SampleClk__DIV_ID);
 361              		.loc 1 326 0
 362 0024 4020     		movs	r0, #64
 363 0026 FFF7FEFF 		bl	CapSense_1_SenseClk_StartEx
 327:Generated_Source\PSoC4/CapSense_1.c ****     #endif /* (0u == CapSense_1_IS_M0S8PERI_BLOCK) */
 328:Generated_Source\PSoC4/CapSense_1.c **** 
 329:Generated_Source\PSoC4/CapSense_1.c ****     /* Enable the CSD block */
 330:Generated_Source\PSoC4/CapSense_1.c ****     newRegValue = CapSense_1_CSD_CFG_REG;
 364              		.loc 1 330 0
 365 002a 084B     		ldr	r3, .L8
 366 002c 1B68     		ldr	r3, [r3]
 367 002e 7B60     		str	r3, [r7, #4]
 331:Generated_Source\PSoC4/CapSense_1.c ****     newRegValue |= (CapSense_1_CSD_CFG_ENABLE | CapSense_1_CSD_CFG_SENSE_COMP_EN
 368              		.loc 1 331 0
 369 0030 7B68     		ldr	r3, [r7, #4]
 370 0032 074A     		ldr	r2, .L8+4
 371 0034 1343     		orrs	r3, r2
 372 0036 7B60     		str	r3, [r7, #4]
 332:Generated_Source\PSoC4/CapSense_1.c ****                                                    | CapSense_1_CSD_CFG_SENSE_EN);
 333:Generated_Source\PSoC4/CapSense_1.c ****     CapSense_1_CSD_CFG_REG = newRegValue;
 373              		.loc 1 333 0
 374 0038 044B     		ldr	r3, .L8
 375 003a 7A68     		ldr	r2, [r7, #4]
 376 003c 1A60     		str	r2, [r3]
 334:Generated_Source\PSoC4/CapSense_1.c **** 
 335:Generated_Source\PSoC4/CapSense_1.c ****     /* Enable interrupt */
 336:Generated_Source\PSoC4/CapSense_1.c ****     CyIntEnable(CapSense_1_ISR_NUMBER);
 377              		.loc 1 336 0
 378 003e 1020     		movs	r0, #16
 379 0040 FFF7FEFF 		bl	CyIntEnable
 337:Generated_Source\PSoC4/CapSense_1.c **** }
 380              		.loc 1 337 0
 381 0044 C046     		nop
 382 0046 BD46     		mov	sp, r7
 383 0048 02B0     		add	sp, sp, #8
 384              		@ sp needed
 385 004a 80BD     		pop	{r7, pc}
 386              	.L9:
 387              		.align	2
 388              	.L8:
 389 004c 04002840 		.word	1076363268
 390 0050 00100880 		.word	-2146955264
 391              		.cfi_endproc
 392              	.LFE36:
 393              		.size	CapSense_1_Enable, .-CapSense_1_Enable
 394              		.section	.text.CapSense_1_Start,"ax",%progbits
 395              		.align	2
 396              		.global	CapSense_1_Start
 397              		.code	16
 398              		.thumb_func
 399              		.type	CapSense_1_Start, %function
 400              	CapSense_1_Start:
 401              	.LFB37:
 338:Generated_Source\PSoC4/CapSense_1.c **** 
ARM GAS  C:\Users\d4hhm\AppData\Local\Temp\ccLEMF4D.s 			page 14


 339:Generated_Source\PSoC4/CapSense_1.c **** 
 340:Generated_Source\PSoC4/CapSense_1.c **** /*******************************************************************************
 341:Generated_Source\PSoC4/CapSense_1.c **** * Function Name: CapSense_1_Start
 342:Generated_Source\PSoC4/CapSense_1.c **** ********************************************************************************
 343:Generated_Source\PSoC4/CapSense_1.c **** *
 344:Generated_Source\PSoC4/CapSense_1.c **** * Summary:
 345:Generated_Source\PSoC4/CapSense_1.c **** *  This is the preferred method to begin the component operation. CapSense_Start()
 346:Generated_Source\PSoC4/CapSense_1.c **** *  calls the CapSense_Init() function, and then calls the CapSense_Enable()
 347:Generated_Source\PSoC4/CapSense_1.c **** *  function. Initializes the registers and starts the CSD method of the CapSense
 348:Generated_Source\PSoC4/CapSense_1.c **** *  component. Resets all the sensors to an inactive state. Enables interrupts for
 349:Generated_Source\PSoC4/CapSense_1.c **** *  sensors scanning. When the SmartSense tuning mode is selected, the tuning procedure
 350:Generated_Source\PSoC4/CapSense_1.c **** *  is applied for all the sensors. The CapSense_Start() routine must be called before
 351:Generated_Source\PSoC4/CapSense_1.c **** *  any other API routines.
 352:Generated_Source\PSoC4/CapSense_1.c **** *
 353:Generated_Source\PSoC4/CapSense_1.c **** * Parameters:
 354:Generated_Source\PSoC4/CapSense_1.c **** *  None
 355:Generated_Source\PSoC4/CapSense_1.c **** *
 356:Generated_Source\PSoC4/CapSense_1.c **** * Return:
 357:Generated_Source\PSoC4/CapSense_1.c **** *  None
 358:Generated_Source\PSoC4/CapSense_1.c **** *
 359:Generated_Source\PSoC4/CapSense_1.c **** * Global Variables:
 360:Generated_Source\PSoC4/CapSense_1.c **** *   CapSense_1_initVar - used to check the initial configuration,
 361:Generated_Source\PSoC4/CapSense_1.c **** *   modified on the first function call.
 362:Generated_Source\PSoC4/CapSense_1.c **** *  CapSense_1_lowLevelTuningDone - Used to notify the Tuner GUI that
 363:Generated_Source\PSoC4/CapSense_1.c **** *   tuning of the scanning parameters is done.
 364:Generated_Source\PSoC4/CapSense_1.c **** *
 365:Generated_Source\PSoC4/CapSense_1.c **** * Side Effects:
 366:Generated_Source\PSoC4/CapSense_1.c **** *  None
 367:Generated_Source\PSoC4/CapSense_1.c **** *
 368:Generated_Source\PSoC4/CapSense_1.c **** *******************************************************************************/
 369:Generated_Source\PSoC4/CapSense_1.c **** void CapSense_1_Start(void)
 370:Generated_Source\PSoC4/CapSense_1.c **** {
 402              		.loc 1 370 0
 403              		.cfi_startproc
 404              		@ args = 0, pretend = 0, frame = 0
 405              		@ frame_needed = 1, uses_anonymous_args = 0
 406 0000 80B5     		push	{r7, lr}
 407              		.cfi_def_cfa_offset 8
 408              		.cfi_offset 7, -8
 409              		.cfi_offset 14, -4
 410 0002 00AF     		add	r7, sp, #0
 411              		.cfi_def_cfa_register 7
 371:Generated_Source\PSoC4/CapSense_1.c **** 
 372:Generated_Source\PSoC4/CapSense_1.c ****     static uint8 CapSense_1_initVar = 0u;
 373:Generated_Source\PSoC4/CapSense_1.c **** 
 374:Generated_Source\PSoC4/CapSense_1.c ****     #if((0u != CapSense_1_AUTOCALIBRATION_ENABLE) && (CapSense_1_TUNING_METHOD != CapSense_1__TUNIN
 375:Generated_Source\PSoC4/CapSense_1.c ****         uint32 curSensor;
 376:Generated_Source\PSoC4/CapSense_1.c ****         uint32 rawLevel;
 377:Generated_Source\PSoC4/CapSense_1.c ****         uint32 widget;
 378:Generated_Source\PSoC4/CapSense_1.c ****     #endif /* ((0u != CapSense_1_AUTOCALIBRATION_ENABLE) && (CapSense_1_TUNING_METHOD != CapSense_1
 379:Generated_Source\PSoC4/CapSense_1.c **** 
 380:Generated_Source\PSoC4/CapSense_1.c ****     if (CapSense_1_initVar == 0u)
 412              		.loc 1 380 0
 413 0004 0A4B     		ldr	r3, .L12
 414 0006 1B78     		ldrb	r3, [r3]
 415 0008 002B     		cmp	r3, #0
 416 000a 04D1     		bne	.L11
ARM GAS  C:\Users\d4hhm\AppData\Local\Temp\ccLEMF4D.s 			page 15


 381:Generated_Source\PSoC4/CapSense_1.c ****     {
 382:Generated_Source\PSoC4/CapSense_1.c ****         CapSense_1_Init();
 417              		.loc 1 382 0
 418 000c FFF7FEFF 		bl	CapSense_1_Init
 383:Generated_Source\PSoC4/CapSense_1.c ****         CapSense_1_initVar = 1u;
 419              		.loc 1 383 0
 420 0010 074B     		ldr	r3, .L12
 421 0012 0122     		movs	r2, #1
 422 0014 1A70     		strb	r2, [r3]
 423              	.L11:
 384:Generated_Source\PSoC4/CapSense_1.c ****     }
 385:Generated_Source\PSoC4/CapSense_1.c ****     CapSense_1_Enable();
 424              		.loc 1 385 0
 425 0016 FFF7FEFF 		bl	CapSense_1_Enable
 386:Generated_Source\PSoC4/CapSense_1.c **** 
 387:Generated_Source\PSoC4/CapSense_1.c ****     /* AutoTunning start */
 388:Generated_Source\PSoC4/CapSense_1.c ****     #if(CapSense_1_TUNING_METHOD == CapSense_1__TUNING_AUTO)
 389:Generated_Source\PSoC4/CapSense_1.c ****         #if(0u != CapSense_1_CSHL_API_GENERATE)
 390:Generated_Source\PSoC4/CapSense_1.c ****             CapSense_1_AutoTune();
 391:Generated_Source\PSoC4/CapSense_1.c ****             CapSense_1_lowLevelTuningDone = 1u;
 392:Generated_Source\PSoC4/CapSense_1.c ****         #endif /* (0u != CapSense_1_CSHL_API_GENERATE) */
 393:Generated_Source\PSoC4/CapSense_1.c ****     #else
 394:Generated_Source\PSoC4/CapSense_1.c ****         #if(0u != CapSense_1_AUTOCALIBRATION_ENABLE)
 395:Generated_Source\PSoC4/CapSense_1.c **** 
 396:Generated_Source\PSoC4/CapSense_1.c ****             #if(CapSense_1_IDAC_CNT > 1u)
 397:Generated_Source\PSoC4/CapSense_1.c ****                 CapSense_1_CSD_IDAC_REG &= ~(CapSense_1_CSD_IDAC2_MODE_MASK);
 398:Generated_Source\PSoC4/CapSense_1.c ****             #endif /* (CapSense_1_IDAC_CNT > 1u) */
 399:Generated_Source\PSoC4/CapSense_1.c **** 
 400:Generated_Source\PSoC4/CapSense_1.c ****             for(curSensor = 0u; curSensor < CapSense_1_TOTAL_SCANSLOT_COUNT; curSensor++)
 401:Generated_Source\PSoC4/CapSense_1.c ****             {
 402:Generated_Source\PSoC4/CapSense_1.c ****                 widget = CapSense_1_widgetNumber[curSensor];
 403:Generated_Source\PSoC4/CapSense_1.c ****                 rawLevel = CapSense_1_widgetResolution[widget] >> CapSense_1_RESOLUTION_OFFSET;
 404:Generated_Source\PSoC4/CapSense_1.c **** 
 405:Generated_Source\PSoC4/CapSense_1.c ****                 /* Calibration level should be equal to 85% from scanning resolution */
 406:Generated_Source\PSoC4/CapSense_1.c ****                 rawLevel = (rawLevel * 85u) / 100u;
 407:Generated_Source\PSoC4/CapSense_1.c **** 
 408:Generated_Source\PSoC4/CapSense_1.c ****                 CapSense_1_CalibrateSensor(curSensor, rawLevel, CapSense_1_modulationIDAC);
 409:Generated_Source\PSoC4/CapSense_1.c ****             }
 410:Generated_Source\PSoC4/CapSense_1.c **** 
 411:Generated_Source\PSoC4/CapSense_1.c ****             #if(0u != CapSense_1_TOTAL_CENTROIDS_COUNT)
 412:Generated_Source\PSoC4/CapSense_1.c ****                 CapSense_1_NormalizeWidgets(CapSense_1_END_OF_WIDGETS_INDEX, CapSense_1_modulationI
 413:Generated_Source\PSoC4/CapSense_1.c ****             #endif /* (0u != CapSense_1_TOTAL_CENTROIDS_COUNT)  */
 414:Generated_Source\PSoC4/CapSense_1.c **** 
 415:Generated_Source\PSoC4/CapSense_1.c ****             #if(CapSense_1_IDAC_CNT > 1u)
 416:Generated_Source\PSoC4/CapSense_1.c ****                 for(curSensor = 0u; curSensor < CapSense_1_TOTAL_SCANSLOT_COUNT; curSensor++)
 417:Generated_Source\PSoC4/CapSense_1.c ****                 {
 418:Generated_Source\PSoC4/CapSense_1.c ****                     CapSense_1_compensationIDAC[curSensor] = CapSense_1_modulationIDAC[curSensor] /
 419:Generated_Source\PSoC4/CapSense_1.c ****                     CapSense_1_modulationIDAC[curSensor] = (CapSense_1_modulationIDAC[curSensor] + 
 420:Generated_Source\PSoC4/CapSense_1.c ****                 }
 421:Generated_Source\PSoC4/CapSense_1.c ****                 CapSense_1_CSD_IDAC_REG |= CapSense_1_CSD_IDAC2_MODE_FIXED;
 422:Generated_Source\PSoC4/CapSense_1.c ****             #endif /* (CapSense_1_IDAC_CNT > 1u) */
 423:Generated_Source\PSoC4/CapSense_1.c **** 
 424:Generated_Source\PSoC4/CapSense_1.c ****         #endif /* (0u != CapSense_1_AUTOCALIBRATION_ENABLE) */
 425:Generated_Source\PSoC4/CapSense_1.c **** 
 426:Generated_Source\PSoC4/CapSense_1.c ****     #endif /* ((CapSense_1_TUNING_METHOD == CapSense_1__TUNING_AUTO) */
 427:Generated_Source\PSoC4/CapSense_1.c **** 
 428:Generated_Source\PSoC4/CapSense_1.c ****     /* Initialize Advanced Centroid */
ARM GAS  C:\Users\d4hhm\AppData\Local\Temp\ccLEMF4D.s 			page 16


 429:Generated_Source\PSoC4/CapSense_1.c ****     #if(CapSense_1_TOTAL_TRACKPAD_GESTURES_COUNT > 0u)
 430:Generated_Source\PSoC4/CapSense_1.c ****         CapSense_1_AdvancedCentroidInit();
 431:Generated_Source\PSoC4/CapSense_1.c ****     #endif /* (CapSense_1_TOTAL_TRACKPAD_GESTURES_COUNT > 0u) */
 432:Generated_Source\PSoC4/CapSense_1.c **** 
 433:Generated_Source\PSoC4/CapSense_1.c ****     /* Connect sense comparator input to AMUXA */
 434:Generated_Source\PSoC4/CapSense_1.c ****     CapSense_1_CSD_CFG_REG |= CapSense_1_CSD_CFG_SENSE_INSEL;
 426              		.loc 1 434 0
 427 001a 064B     		ldr	r3, .L12+4
 428 001c 054A     		ldr	r2, .L12+4
 429 001e 1268     		ldr	r2, [r2]
 430 0020 8021     		movs	r1, #128
 431 0022 C903     		lsls	r1, r1, #15
 432 0024 0A43     		orrs	r2, r1
 433 0026 1A60     		str	r2, [r3]
 435:Generated_Source\PSoC4/CapSense_1.c **** }
 434              		.loc 1 435 0
 435 0028 C046     		nop
 436 002a BD46     		mov	sp, r7
 437              		@ sp needed
 438 002c 80BD     		pop	{r7, pc}
 439              	.L13:
 440 002e C046     		.align	2
 441              	.L12:
 442 0030 06000000 		.word	CapSense_1_initVar.5375
 443 0034 04002840 		.word	1076363268
 444              		.cfi_endproc
 445              	.LFE37:
 446              		.size	CapSense_1_Start, .-CapSense_1_Start
 447              		.section	.text.CapSense_1_Stop,"ax",%progbits
 448              		.align	2
 449              		.global	CapSense_1_Stop
 450              		.code	16
 451              		.thumb_func
 452              		.type	CapSense_1_Stop, %function
 453              	CapSense_1_Stop:
 454              	.LFB38:
 436:Generated_Source\PSoC4/CapSense_1.c **** 
 437:Generated_Source\PSoC4/CapSense_1.c **** 
 438:Generated_Source\PSoC4/CapSense_1.c **** /*******************************************************************************
 439:Generated_Source\PSoC4/CapSense_1.c **** * Function Name: CapSense_1_Stop
 440:Generated_Source\PSoC4/CapSense_1.c **** ********************************************************************************
 441:Generated_Source\PSoC4/CapSense_1.c **** *
 442:Generated_Source\PSoC4/CapSense_1.c **** * Summary:
 443:Generated_Source\PSoC4/CapSense_1.c **** *  Stops the sensor scanning, disables component interrupts, and resets all the
 444:Generated_Source\PSoC4/CapSense_1.c **** *  sensors to an inactive state. Disables the Active mode power template bits for
 445:Generated_Source\PSoC4/CapSense_1.c **** *  the subcomponents used within CapSense.
 446:Generated_Source\PSoC4/CapSense_1.c **** *
 447:Generated_Source\PSoC4/CapSense_1.c **** * Parameters:
 448:Generated_Source\PSoC4/CapSense_1.c **** *  None
 449:Generated_Source\PSoC4/CapSense_1.c **** *
 450:Generated_Source\PSoC4/CapSense_1.c **** * Return:
 451:Generated_Source\PSoC4/CapSense_1.c **** *  None
 452:Generated_Source\PSoC4/CapSense_1.c **** *
 453:Generated_Source\PSoC4/CapSense_1.c **** * Global Variables:
 454:Generated_Source\PSoC4/CapSense_1.c **** *  CapSense_1_csdTrim1 - Contains the IDAC trim register value for the Sourcing Mode.
 455:Generated_Source\PSoC4/CapSense_1.c **** *  CapSense_1_csdTrim2 - Contains the IDAC trim register value for vSinking Mode.
 456:Generated_Source\PSoC4/CapSense_1.c **** *
ARM GAS  C:\Users\d4hhm\AppData\Local\Temp\ccLEMF4D.s 			page 17


 457:Generated_Source\PSoC4/CapSense_1.c **** * Side Effects:
 458:Generated_Source\PSoC4/CapSense_1.c **** *  This function should be called after scans are completed.
 459:Generated_Source\PSoC4/CapSense_1.c **** *
 460:Generated_Source\PSoC4/CapSense_1.c **** *******************************************************************************/
 461:Generated_Source\PSoC4/CapSense_1.c **** void CapSense_1_Stop(void)
 462:Generated_Source\PSoC4/CapSense_1.c **** {
 455              		.loc 1 462 0
 456              		.cfi_startproc
 457              		@ args = 0, pretend = 0, frame = 0
 458              		@ frame_needed = 1, uses_anonymous_args = 0
 459 0000 80B5     		push	{r7, lr}
 460              		.cfi_def_cfa_offset 8
 461              		.cfi_offset 7, -8
 462              		.cfi_offset 14, -4
 463 0002 00AF     		add	r7, sp, #0
 464              		.cfi_def_cfa_register 7
 463:Generated_Source\PSoC4/CapSense_1.c ****     /* Disable interrupt */
 464:Generated_Source\PSoC4/CapSense_1.c ****     CyIntDisable(CapSense_1_ISR_NUMBER);
 465              		.loc 1 464 0
 466 0004 1020     		movs	r0, #16
 467 0006 FFF7FEFF 		bl	CyIntDisable
 465:Generated_Source\PSoC4/CapSense_1.c **** 
 466:Generated_Source\PSoC4/CapSense_1.c ****     CapSense_1_CSD_CFG_REG &= ~(CapSense_1_CSD_CFG_SENSE_COMP_EN | CapSense_1_CSD_CFG_SENSE_EN);
 468              		.loc 1 466 0
 469 000a 094B     		ldr	r3, .L15
 470 000c 084A     		ldr	r2, .L15
 471 000e 1268     		ldr	r2, [r2]
 472 0010 0849     		ldr	r1, .L15+4
 473 0012 0A40     		ands	r2, r1
 474 0014 1A60     		str	r2, [r3]
 467:Generated_Source\PSoC4/CapSense_1.c **** 
 468:Generated_Source\PSoC4/CapSense_1.c ****     #if(CapSense_1_IDAC_CNT == 2u)
 469:Generated_Source\PSoC4/CapSense_1.c ****         CapSense_1_CSD_CFG_REG &= ~(CapSense_1_CSD_CFG_ENABLE);
 475              		.loc 1 469 0
 476 0016 064B     		ldr	r3, .L15
 477 0018 054A     		ldr	r2, .L15
 478 001a 1268     		ldr	r2, [r2]
 479 001c 5200     		lsls	r2, r2, #1
 480 001e 5208     		lsrs	r2, r2, #1
 481 0020 1A60     		str	r2, [r3]
 470:Generated_Source\PSoC4/CapSense_1.c ****     #endif /* (CapSense_1_IDAC_CNT == 2u) */
 471:Generated_Source\PSoC4/CapSense_1.c **** 
 472:Generated_Source\PSoC4/CapSense_1.c ****     /* Disable the Clocks */
 473:Generated_Source\PSoC4/CapSense_1.c ****     CapSense_1_SenseClk_Stop();
 482              		.loc 1 473 0
 483 0022 FFF7FEFF 		bl	CapSense_1_SenseClk_Stop
 474:Generated_Source\PSoC4/CapSense_1.c ****     CapSense_1_SampleClk_Stop();
 484              		.loc 1 474 0
 485 0026 FFF7FEFF 		bl	CapSense_1_SampleClk_Stop
 475:Generated_Source\PSoC4/CapSense_1.c **** }
 486              		.loc 1 475 0
 487 002a C046     		nop
 488 002c BD46     		mov	sp, r7
 489              		@ sp needed
 490 002e 80BD     		pop	{r7, pc}
 491              	.L16:
 492              		.align	2
ARM GAS  C:\Users\d4hhm\AppData\Local\Temp\ccLEMF4D.s 			page 18


 493              	.L15:
 494 0030 04002840 		.word	1076363268
 495 0034 FFEFF7FF 		.word	-528385
 496              		.cfi_endproc
 497              	.LFE38:
 498              		.size	CapSense_1_Stop, .-CapSense_1_Stop
 499              		.section	.text.CapSense_1_FindNextSensor,"ax",%progbits
 500              		.align	2
 501              		.global	CapSense_1_FindNextSensor
 502              		.code	16
 503              		.thumb_func
 504              		.type	CapSense_1_FindNextSensor, %function
 505              	CapSense_1_FindNextSensor:
 506              	.LFB39:
 476:Generated_Source\PSoC4/CapSense_1.c **** 
 477:Generated_Source\PSoC4/CapSense_1.c **** 
 478:Generated_Source\PSoC4/CapSense_1.c **** /*******************************************************************************
 479:Generated_Source\PSoC4/CapSense_1.c **** * Function Name: CapSense_1_FindNextSensor
 480:Generated_Source\PSoC4/CapSense_1.c **** ********************************************************************************
 481:Generated_Source\PSoC4/CapSense_1.c **** *
 482:Generated_Source\PSoC4/CapSense_1.c **** * Summary:
 483:Generated_Source\PSoC4/CapSense_1.c **** *  Finds the next sensor to scan.
 484:Generated_Source\PSoC4/CapSense_1.c **** *
 485:Generated_Source\PSoC4/CapSense_1.c **** * Parameters:
 486:Generated_Source\PSoC4/CapSense_1.c **** *  snsIndex:  Current index of sensor.
 487:Generated_Source\PSoC4/CapSense_1.c **** *
 488:Generated_Source\PSoC4/CapSense_1.c **** * Return:
 489:Generated_Source\PSoC4/CapSense_1.c **** *  Returns the next sensor index to scan.
 490:Generated_Source\PSoC4/CapSense_1.c **** *
 491:Generated_Source\PSoC4/CapSense_1.c **** * Global Variables:
 492:Generated_Source\PSoC4/CapSense_1.c **** *  CapSense_1_sensorEnableMask[] - used to store bit masks of the enabled sensors.
 493:Generated_Source\PSoC4/CapSense_1.c **** *
 494:Generated_Source\PSoC4/CapSense_1.c **** * Side Effects:
 495:Generated_Source\PSoC4/CapSense_1.c **** *  This function affects the  current scanning and should not
 496:Generated_Source\PSoC4/CapSense_1.c **** *  be used outside the component.
 497:Generated_Source\PSoC4/CapSense_1.c **** *
 498:Generated_Source\PSoC4/CapSense_1.c **** *******************************************************************************/
 499:Generated_Source\PSoC4/CapSense_1.c **** uint8 CapSense_1_FindNextSensor(uint8 snsIndex)
 500:Generated_Source\PSoC4/CapSense_1.c **** {
 507              		.loc 1 500 0
 508              		.cfi_startproc
 509              		@ args = 0, pretend = 0, frame = 16
 510              		@ frame_needed = 1, uses_anonymous_args = 0
 511 0000 80B5     		push	{r7, lr}
 512              		.cfi_def_cfa_offset 8
 513              		.cfi_offset 7, -8
 514              		.cfi_offset 14, -4
 515 0002 84B0     		sub	sp, sp, #16
 516              		.cfi_def_cfa_offset 24
 517 0004 00AF     		add	r7, sp, #0
 518              		.cfi_def_cfa_register 7
 519 0006 0200     		movs	r2, r0
 520 0008 FB1D     		adds	r3, r7, #7
 521 000a 1A70     		strb	r2, [r3]
 522              	.L20:
 501:Generated_Source\PSoC4/CapSense_1.c ****     uint32 enableFlag;
 502:Generated_Source\PSoC4/CapSense_1.c **** 
ARM GAS  C:\Users\d4hhm\AppData\Local\Temp\ccLEMF4D.s 			page 19


 503:Generated_Source\PSoC4/CapSense_1.c ****     /* Check if sensor enabled */
 504:Generated_Source\PSoC4/CapSense_1.c ****     do
 505:Generated_Source\PSoC4/CapSense_1.c ****     {
 506:Generated_Source\PSoC4/CapSense_1.c ****         /* Proceed with next sensor */
 507:Generated_Source\PSoC4/CapSense_1.c ****         snsIndex++;
 523              		.loc 1 507 0
 524 000c FB1D     		adds	r3, r7, #7
 525 000e 1A78     		ldrb	r2, [r3]
 526 0010 FB1D     		adds	r3, r7, #7
 527 0012 0132     		adds	r2, r2, #1
 528 0014 1A70     		strb	r2, [r3]
 508:Generated_Source\PSoC4/CapSense_1.c ****         if(snsIndex == CapSense_1_TOTAL_SENSOR_COUNT)
 529              		.loc 1 508 0
 530 0016 FB1D     		adds	r3, r7, #7
 531 0018 1B78     		ldrb	r3, [r3]
 532 001a 012B     		cmp	r3, #1
 533 001c 0CD0     		beq	.L22
 509:Generated_Source\PSoC4/CapSense_1.c ****         {
 510:Generated_Source\PSoC4/CapSense_1.c ****             break;
 511:Generated_Source\PSoC4/CapSense_1.c ****         }
 512:Generated_Source\PSoC4/CapSense_1.c ****         enableFlag = CapSense_1_GetBitValue(CapSense_1_sensorEnableMask, (uint32)snsIndex);
 534              		.loc 1 512 0
 535 001e FB1D     		adds	r3, r7, #7
 536 0020 1A78     		ldrb	r2, [r3]
 537 0022 094B     		ldr	r3, .L23
 538 0024 1100     		movs	r1, r2
 539 0026 1800     		movs	r0, r3
 540 0028 FFF7FEFF 		bl	CapSense_1_GetBitValue
 541 002c 0300     		movs	r3, r0
 542 002e FB60     		str	r3, [r7, #12]
 513:Generated_Source\PSoC4/CapSense_1.c ****     }
 514:Generated_Source\PSoC4/CapSense_1.c ****     while(enableFlag == 0u);
 543              		.loc 1 514 0
 544 0030 FB68     		ldr	r3, [r7, #12]
 545 0032 002B     		cmp	r3, #0
 546 0034 EAD0     		beq	.L20
 547 0036 00E0     		b	.L19
 548              	.L22:
 510:Generated_Source\PSoC4/CapSense_1.c ****         }
 549              		.loc 1 510 0
 550 0038 C046     		nop
 551              	.L19:
 515:Generated_Source\PSoC4/CapSense_1.c **** 
 516:Generated_Source\PSoC4/CapSense_1.c ****     return ((uint8)snsIndex);
 552              		.loc 1 516 0
 553 003a FB1D     		adds	r3, r7, #7
 554 003c 1B78     		ldrb	r3, [r3]
 517:Generated_Source\PSoC4/CapSense_1.c **** }
 555              		.loc 1 517 0
 556 003e 1800     		movs	r0, r3
 557 0040 BD46     		mov	sp, r7
 558 0042 04B0     		add	sp, sp, #16
 559              		@ sp needed
 560 0044 80BD     		pop	{r7, pc}
 561              	.L24:
 562 0046 C046     		.align	2
 563              	.L23:
ARM GAS  C:\Users\d4hhm\AppData\Local\Temp\ccLEMF4D.s 			page 20


 564 0048 00000000 		.word	CapSense_1_sensorEnableMask
 565              		.cfi_endproc
 566              	.LFE39:
 567              		.size	CapSense_1_FindNextSensor, .-CapSense_1_FindNextSensor
 568              		.section	.text.CapSense_1_ScanSensor,"ax",%progbits
 569              		.align	2
 570              		.global	CapSense_1_ScanSensor
 571              		.code	16
 572              		.thumb_func
 573              		.type	CapSense_1_ScanSensor, %function
 574              	CapSense_1_ScanSensor:
 575              	.LFB40:
 518:Generated_Source\PSoC4/CapSense_1.c **** 
 519:Generated_Source\PSoC4/CapSense_1.c **** 
 520:Generated_Source\PSoC4/CapSense_1.c **** /*******************************************************************************
 521:Generated_Source\PSoC4/CapSense_1.c **** * Function Name: CapSense_1_ScanSensor
 522:Generated_Source\PSoC4/CapSense_1.c **** ********************************************************************************
 523:Generated_Source\PSoC4/CapSense_1.c **** *
 524:Generated_Source\PSoC4/CapSense_1.c **** * Summary:
 525:Generated_Source\PSoC4/CapSense_1.c **** *  Sets the scan settings and starts scanning a sensor. After scanning is complete,
 526:Generated_Source\PSoC4/CapSense_1.c **** *  the ISR copies the measured sensor raw data to the global raw sensor array.
 527:Generated_Source\PSoC4/CapSense_1.c **** *  Use of the ISR ensures this function is non-blocking.
 528:Generated_Source\PSoC4/CapSense_1.c **** *  Each sensor has a unique number within the sensor array.
 529:Generated_Source\PSoC4/CapSense_1.c **** *  This number is assigned by the CapSense customizer in sequence.
 530:Generated_Source\PSoC4/CapSense_1.c **** *
 531:Generated_Source\PSoC4/CapSense_1.c **** * Parameters:
 532:Generated_Source\PSoC4/CapSense_1.c **** *  sensor:  Sensor number.
 533:Generated_Source\PSoC4/CapSense_1.c **** *
 534:Generated_Source\PSoC4/CapSense_1.c **** * Return:
 535:Generated_Source\PSoC4/CapSense_1.c **** *  None
 536:Generated_Source\PSoC4/CapSense_1.c **** *
 537:Generated_Source\PSoC4/CapSense_1.c **** * Global Variables:
 538:Generated_Source\PSoC4/CapSense_1.c **** *  CapSense_1_csdStatusVar - used to provide the status and mode of the scanning process.
 539:Generated_Source\PSoC4/CapSense_1.c **** *  Sets the busy status(scan in progress) and mode of scan as single scan.
 540:Generated_Source\PSoC4/CapSense_1.c **** *  CapSense_1_sensorIndex - used to store a sensor scanning sensor number.
 541:Generated_Source\PSoC4/CapSense_1.c **** *  Sets to the provided sensor argument.
 542:Generated_Source\PSoC4/CapSense_1.c **** *
 543:Generated_Source\PSoC4/CapSense_1.c **** * Side Effects:
 544:Generated_Source\PSoC4/CapSense_1.c **** *  None
 545:Generated_Source\PSoC4/CapSense_1.c **** *
 546:Generated_Source\PSoC4/CapSense_1.c **** *******************************************************************************/
 547:Generated_Source\PSoC4/CapSense_1.c **** void CapSense_1_ScanSensor(uint32 sensor)
 548:Generated_Source\PSoC4/CapSense_1.c **** {
 576              		.loc 1 548 0
 577              		.cfi_startproc
 578              		@ args = 0, pretend = 0, frame = 8
 579              		@ frame_needed = 1, uses_anonymous_args = 0
 580 0000 80B5     		push	{r7, lr}
 581              		.cfi_def_cfa_offset 8
 582              		.cfi_offset 7, -8
 583              		.cfi_offset 14, -4
 584 0002 82B0     		sub	sp, sp, #8
 585              		.cfi_def_cfa_offset 16
 586 0004 00AF     		add	r7, sp, #0
 587              		.cfi_def_cfa_register 7
 588 0006 7860     		str	r0, [r7, #4]
 549:Generated_Source\PSoC4/CapSense_1.c ****     /* Clears status/control variable and set sensorIndex */
ARM GAS  C:\Users\d4hhm\AppData\Local\Temp\ccLEMF4D.s 			page 21


 550:Generated_Source\PSoC4/CapSense_1.c ****     CapSense_1_csdStatusVar = 0u;
 589              		.loc 1 550 0
 590 0008 084B     		ldr	r3, .L26
 591 000a 0022     		movs	r2, #0
 592 000c 1A70     		strb	r2, [r3]
 551:Generated_Source\PSoC4/CapSense_1.c ****     CapSense_1_sensorIndex = (uint8)sensor;
 593              		.loc 1 551 0
 594 000e 7B68     		ldr	r3, [r7, #4]
 595 0010 DAB2     		uxtb	r2, r3
 596 0012 074B     		ldr	r3, .L26+4
 597 0014 1A70     		strb	r2, [r3]
 552:Generated_Source\PSoC4/CapSense_1.c **** 
 553:Generated_Source\PSoC4/CapSense_1.c ****     /* Start of sensor scan */
 554:Generated_Source\PSoC4/CapSense_1.c ****     CapSense_1_csdStatusVar = (CapSense_1_SW_STS_BUSY | CapSense_1_SW_CTRL_SINGLE_SCAN);
 598              		.loc 1 554 0
 599 0016 054B     		ldr	r3, .L26
 600 0018 8122     		movs	r2, #129
 601 001a 1A70     		strb	r2, [r3]
 555:Generated_Source\PSoC4/CapSense_1.c ****     CapSense_1_PreScan(sensor);
 602              		.loc 1 555 0
 603 001c 7B68     		ldr	r3, [r7, #4]
 604 001e 1800     		movs	r0, r3
 605 0020 FFF7FEFF 		bl	CapSense_1_PreScan
 556:Generated_Source\PSoC4/CapSense_1.c **** }
 606              		.loc 1 556 0
 607 0024 C046     		nop
 608 0026 BD46     		mov	sp, r7
 609 0028 02B0     		add	sp, sp, #8
 610              		@ sp needed
 611 002a 80BD     		pop	{r7, pc}
 612              	.L27:
 613              		.align	2
 614              	.L26:
 615 002c 00000000 		.word	CapSense_1_csdStatusVar
 616 0030 00000000 		.word	CapSense_1_sensorIndex
 617              		.cfi_endproc
 618              	.LFE40:
 619              		.size	CapSense_1_ScanSensor, .-CapSense_1_ScanSensor
 620              		.section	.text.CapSense_1_ScanWidget,"ax",%progbits
 621              		.align	2
 622              		.global	CapSense_1_ScanWidget
 623              		.code	16
 624              		.thumb_func
 625              		.type	CapSense_1_ScanWidget, %function
 626              	CapSense_1_ScanWidget:
 627              	.LFB41:
 557:Generated_Source\PSoC4/CapSense_1.c **** 
 558:Generated_Source\PSoC4/CapSense_1.c **** 
 559:Generated_Source\PSoC4/CapSense_1.c **** #if(0u != CapSense_1_CSHL_API_GENERATE)
 560:Generated_Source\PSoC4/CapSense_1.c **** /*******************************************************************************
 561:Generated_Source\PSoC4/CapSense_1.c **** * Function Name: CapSense_1_ScanWidget
 562:Generated_Source\PSoC4/CapSense_1.c **** ********************************************************************************
 563:Generated_Source\PSoC4/CapSense_1.c **** *
 564:Generated_Source\PSoC4/CapSense_1.c **** * Summary:
 565:Generated_Source\PSoC4/CapSense_1.c **** *  Sets the scan settings and starts scanning a widget.
 566:Generated_Source\PSoC4/CapSense_1.c **** *
 567:Generated_Source\PSoC4/CapSense_1.c **** * Parameters:
ARM GAS  C:\Users\d4hhm\AppData\Local\Temp\ccLEMF4D.s 			page 22


 568:Generated_Source\PSoC4/CapSense_1.c **** *  uint32 widget: Widget number.
 569:Generated_Source\PSoC4/CapSense_1.c **** *
 570:Generated_Source\PSoC4/CapSense_1.c **** * Return:
 571:Generated_Source\PSoC4/CapSense_1.c **** *  None
 572:Generated_Source\PSoC4/CapSense_1.c **** *
 573:Generated_Source\PSoC4/CapSense_1.c **** * Global Variables:
 574:Generated_Source\PSoC4/CapSense_1.c **** *  CapSense_1_csdStatusVar - used to provide the status and mode of the scanning process.
 575:Generated_Source\PSoC4/CapSense_1.c **** *  Sets the busy status(scan in progress) and clears the single scan mode.
 576:Generated_Source\PSoC4/CapSense_1.c **** *  CapSense_1_sensorIndex - used to store a sensor scanning sensor number.
 577:Generated_Source\PSoC4/CapSense_1.c **** *  Sets to 0xFF and provided to function CapSense_1_FindNextSensor or
 578:Generated_Source\PSoC4/CapSense_1.c **** *  CapSense_1_sensorEnableMask[] - used to store bit masks of the enabled sensors.
 579:Generated_Source\PSoC4/CapSense_1.c **** *  CapSense_1_sensorEnableMaskBackup[] - used to backup bit masks of the enabled
 580:Generated_Source\PSoC4/CapSense_1.c **** *   sensors.
 581:Generated_Source\PSoC4/CapSense_1.c **** *
 582:Generated_Source\PSoC4/CapSense_1.c **** * Side Effects:
 583:Generated_Source\PSoC4/CapSense_1.c **** *  None
 584:Generated_Source\PSoC4/CapSense_1.c **** *
 585:Generated_Source\PSoC4/CapSense_1.c **** *******************************************************************************/
 586:Generated_Source\PSoC4/CapSense_1.c **** void CapSense_1_ScanWidget(uint32 widget)
 587:Generated_Source\PSoC4/CapSense_1.c **** {
 628              		.loc 1 587 0
 629              		.cfi_startproc
 630              		@ args = 0, pretend = 0, frame = 24
 631              		@ frame_needed = 1, uses_anonymous_args = 0
 632 0000 80B5     		push	{r7, lr}
 633              		.cfi_def_cfa_offset 8
 634              		.cfi_offset 7, -8
 635              		.cfi_offset 14, -4
 636 0002 86B0     		sub	sp, sp, #24
 637              		.cfi_def_cfa_offset 32
 638 0004 00AF     		add	r7, sp, #0
 639              		.cfi_def_cfa_register 7
 640 0006 7860     		str	r0, [r7, #4]
 588:Generated_Source\PSoC4/CapSense_1.c ****     uint32 sensorsPerWidget;
 589:Generated_Source\PSoC4/CapSense_1.c ****     uint32 lastSensor;
 590:Generated_Source\PSoC4/CapSense_1.c ****     uint32 snsIndex;
 591:Generated_Source\PSoC4/CapSense_1.c **** 
 592:Generated_Source\PSoC4/CapSense_1.c ****     /* Get first sensor in widget */
 593:Generated_Source\PSoC4/CapSense_1.c ****     CapSense_1_sensorIndex = CapSense_1_rawDataIndex[widget];
 641              		.loc 1 593 0
 642 0008 2E4A     		ldr	r2, .L38
 643 000a 7B68     		ldr	r3, [r7, #4]
 644 000c D318     		adds	r3, r2, r3
 645 000e 1A78     		ldrb	r2, [r3]
 646 0010 2D4B     		ldr	r3, .L38+4
 647 0012 1A70     		strb	r2, [r3]
 594:Generated_Source\PSoC4/CapSense_1.c **** 
 595:Generated_Source\PSoC4/CapSense_1.c ****     /* Get number of sensors in widget */
 596:Generated_Source\PSoC4/CapSense_1.c ****     sensorsPerWidget = CapSense_1_numberOfSensors[widget];
 648              		.loc 1 596 0
 649 0014 2D4A     		ldr	r2, .L38+8
 650 0016 7B68     		ldr	r3, [r7, #4]
 651 0018 D318     		adds	r3, r2, r3
 652 001a 1B78     		ldrb	r3, [r3]
 653 001c 7B61     		str	r3, [r7, #20]
 597:Generated_Source\PSoC4/CapSense_1.c **** 
 598:Generated_Source\PSoC4/CapSense_1.c ****     /* Check if generic Sensor */
ARM GAS  C:\Users\d4hhm\AppData\Local\Temp\ccLEMF4D.s 			page 23


 599:Generated_Source\PSoC4/CapSense_1.c ****     if(sensorsPerWidget == 0u)
 654              		.loc 1 599 0
 655 001e 7B69     		ldr	r3, [r7, #20]
 656 0020 002B     		cmp	r3, #0
 657 0022 01D1     		bne	.L29
 600:Generated_Source\PSoC4/CapSense_1.c ****     {
 601:Generated_Source\PSoC4/CapSense_1.c ****         sensorsPerWidget = 1u;
 658              		.loc 1 601 0
 659 0024 0123     		movs	r3, #1
 660 0026 7B61     		str	r3, [r7, #20]
 661              	.L29:
 602:Generated_Source\PSoC4/CapSense_1.c ****     }
 603:Generated_Source\PSoC4/CapSense_1.c **** 
 604:Generated_Source\PSoC4/CapSense_1.c ****     /* Get last sensor in widget */
 605:Generated_Source\PSoC4/CapSense_1.c ****     lastSensor = (CapSense_1_rawDataIndex[widget] + sensorsPerWidget) - 1u;
 662              		.loc 1 605 0
 663 0028 264A     		ldr	r2, .L38
 664 002a 7B68     		ldr	r3, [r7, #4]
 665 002c D318     		adds	r3, r2, r3
 666 002e 1B78     		ldrb	r3, [r3]
 667 0030 1A00     		movs	r2, r3
 668 0032 7B69     		ldr	r3, [r7, #20]
 669 0034 D318     		adds	r3, r2, r3
 670 0036 013B     		subs	r3, r3, #1
 671 0038 FB60     		str	r3, [r7, #12]
 606:Generated_Source\PSoC4/CapSense_1.c **** 
 607:Generated_Source\PSoC4/CapSense_1.c ****     /* Backup sensorEnableMask array */
 608:Generated_Source\PSoC4/CapSense_1.c ****     for(snsIndex = 0u; snsIndex < CapSense_1_TOTAL_SENSOR_MASK; snsIndex++)
 672              		.loc 1 608 0
 673 003a 0023     		movs	r3, #0
 674 003c 3B61     		str	r3, [r7, #16]
 675 003e 0BE0     		b	.L30
 676              	.L31:
 609:Generated_Source\PSoC4/CapSense_1.c ****     {
 610:Generated_Source\PSoC4/CapSense_1.c ****         /* Backup sensorEnableMask array */
 611:Generated_Source\PSoC4/CapSense_1.c ****         CapSense_1_sensorEnableMaskBackup[snsIndex] = CapSense_1_sensorEnableMask[snsIndex];
 677              		.loc 1 611 0 discriminator 3
 678 0040 234A     		ldr	r2, .L38+12
 679 0042 3B69     		ldr	r3, [r7, #16]
 680 0044 D318     		adds	r3, r2, r3
 681 0046 1978     		ldrb	r1, [r3]
 682 0048 224A     		ldr	r2, .L38+16
 683 004a 3B69     		ldr	r3, [r7, #16]
 684 004c D318     		adds	r3, r2, r3
 685 004e 0A1C     		adds	r2, r1, #0
 686 0050 1A70     		strb	r2, [r3]
 608:Generated_Source\PSoC4/CapSense_1.c ****     {
 687              		.loc 1 608 0 discriminator 3
 688 0052 3B69     		ldr	r3, [r7, #16]
 689 0054 0133     		adds	r3, r3, #1
 690 0056 3B61     		str	r3, [r7, #16]
 691              	.L30:
 608:Generated_Source\PSoC4/CapSense_1.c ****     {
 692              		.loc 1 608 0 is_stmt 0 discriminator 1
 693 0058 3B69     		ldr	r3, [r7, #16]
 694 005a 002B     		cmp	r3, #0
 695 005c F0D0     		beq	.L31
ARM GAS  C:\Users\d4hhm\AppData\Local\Temp\ccLEMF4D.s 			page 24


 612:Generated_Source\PSoC4/CapSense_1.c ****     }
 613:Generated_Source\PSoC4/CapSense_1.c **** 
 614:Generated_Source\PSoC4/CapSense_1.c ****     /* Update sensorEnableMask to scan the sensors that belong to widget */
 615:Generated_Source\PSoC4/CapSense_1.c ****     for(snsIndex = 0u; snsIndex < CapSense_1_TOTAL_SENSOR_COUNT; snsIndex++)
 696              		.loc 1 615 0 is_stmt 1
 697 005e 0023     		movs	r3, #0
 698 0060 3B61     		str	r3, [r7, #16]
 699 0062 1AE0     		b	.L32
 700              	.L35:
 616:Generated_Source\PSoC4/CapSense_1.c ****     {
 617:Generated_Source\PSoC4/CapSense_1.c ****         /* Update sensorEnableMask array bits to scan the widget only */
 618:Generated_Source\PSoC4/CapSense_1.c ****         if((snsIndex >= CapSense_1_sensorIndex) && (snsIndex <= lastSensor))
 701              		.loc 1 618 0
 702 0064 184B     		ldr	r3, .L38+4
 703 0066 1B78     		ldrb	r3, [r3]
 704 0068 DBB2     		uxtb	r3, r3
 705 006a 1A00     		movs	r2, r3
 706 006c 3B69     		ldr	r3, [r7, #16]
 707 006e 9A42     		cmp	r2, r3
 708 0070 0AD8     		bhi	.L33
 709              		.loc 1 618 0 is_stmt 0 discriminator 1
 710 0072 3A69     		ldr	r2, [r7, #16]
 711 0074 FB68     		ldr	r3, [r7, #12]
 712 0076 9A42     		cmp	r2, r3
 713 0078 06D8     		bhi	.L33
 619:Generated_Source\PSoC4/CapSense_1.c ****         {
 620:Generated_Source\PSoC4/CapSense_1.c ****             /* Set sensor bit to scan */
 621:Generated_Source\PSoC4/CapSense_1.c ****             CapSense_1_SetBitValue(CapSense_1_sensorEnableMask, snsIndex, 1u);
 714              		.loc 1 621 0 is_stmt 1
 715 007a 3969     		ldr	r1, [r7, #16]
 716 007c 144B     		ldr	r3, .L38+12
 717 007e 0122     		movs	r2, #1
 718 0080 1800     		movs	r0, r3
 719 0082 FFF7FEFF 		bl	CapSense_1_SetBitValue
 720 0086 05E0     		b	.L34
 721              	.L33:
 622:Generated_Source\PSoC4/CapSense_1.c ****         }
 623:Generated_Source\PSoC4/CapSense_1.c ****         else
 624:Generated_Source\PSoC4/CapSense_1.c ****         {
 625:Generated_Source\PSoC4/CapSense_1.c ****             /* Reset sensor bit to do not scan */
 626:Generated_Source\PSoC4/CapSense_1.c ****             CapSense_1_SetBitValue(CapSense_1_sensorEnableMask, snsIndex, 0u);
 722              		.loc 1 626 0
 723 0088 3969     		ldr	r1, [r7, #16]
 724 008a 114B     		ldr	r3, .L38+12
 725 008c 0022     		movs	r2, #0
 726 008e 1800     		movs	r0, r3
 727 0090 FFF7FEFF 		bl	CapSense_1_SetBitValue
 728              	.L34:
 615:Generated_Source\PSoC4/CapSense_1.c ****     {
 729              		.loc 1 615 0 discriminator 2
 730 0094 3B69     		ldr	r3, [r7, #16]
 731 0096 0133     		adds	r3, r3, #1
 732 0098 3B61     		str	r3, [r7, #16]
 733              	.L32:
 615:Generated_Source\PSoC4/CapSense_1.c ****     {
 734              		.loc 1 615 0 is_stmt 0 discriminator 1
 735 009a 3B69     		ldr	r3, [r7, #16]
ARM GAS  C:\Users\d4hhm\AppData\Local\Temp\ccLEMF4D.s 			page 25


 736 009c 002B     		cmp	r3, #0
 737 009e E1D0     		beq	.L35
 627:Generated_Source\PSoC4/CapSense_1.c ****         }
 628:Generated_Source\PSoC4/CapSense_1.c ****     }
 629:Generated_Source\PSoC4/CapSense_1.c **** 
 630:Generated_Source\PSoC4/CapSense_1.c ****     /* Check end of scan condition */
 631:Generated_Source\PSoC4/CapSense_1.c ****     if(CapSense_1_sensorIndex < CapSense_1_TOTAL_SENSOR_COUNT)
 738              		.loc 1 631 0 is_stmt 1
 739 00a0 094B     		ldr	r3, .L38+4
 740 00a2 1B78     		ldrb	r3, [r3]
 741 00a4 DBB2     		uxtb	r3, r3
 742 00a6 002B     		cmp	r3, #0
 743 00a8 08D1     		bne	.L37
 632:Generated_Source\PSoC4/CapSense_1.c ****     {
 633:Generated_Source\PSoC4/CapSense_1.c ****         /* Set widget busy bit in status/control variable*/
 634:Generated_Source\PSoC4/CapSense_1.c ****         CapSense_1_csdStatusVar = (CapSense_1_SW_STS_BUSY | CapSense_1_SW_CTRL_WIDGET_SCAN);
 744              		.loc 1 634 0
 745 00aa 0B4B     		ldr	r3, .L38+20
 746 00ac 4122     		movs	r2, #65
 747 00ae 1A70     		strb	r2, [r3]
 635:Generated_Source\PSoC4/CapSense_1.c ****         /* Scan first sensor of widget*/
 636:Generated_Source\PSoC4/CapSense_1.c ****         CapSense_1_PreScan((uint32)CapSense_1_sensorIndex);
 748              		.loc 1 636 0
 749 00b0 054B     		ldr	r3, .L38+4
 750 00b2 1B78     		ldrb	r3, [r3]
 751 00b4 DBB2     		uxtb	r3, r3
 752 00b6 1800     		movs	r0, r3
 753 00b8 FFF7FEFF 		bl	CapSense_1_PreScan
 754              	.L37:
 637:Generated_Source\PSoC4/CapSense_1.c ****     }
 638:Generated_Source\PSoC4/CapSense_1.c **** }
 755              		.loc 1 638 0
 756 00bc C046     		nop
 757 00be BD46     		mov	sp, r7
 758 00c0 06B0     		add	sp, sp, #24
 759              		@ sp needed
 760 00c2 80BD     		pop	{r7, pc}
 761              	.L39:
 762              		.align	2
 763              	.L38:
 764 00c4 00000000 		.word	CapSense_1_rawDataIndex
 765 00c8 00000000 		.word	CapSense_1_sensorIndex
 766 00cc 00000000 		.word	CapSense_1_numberOfSensors
 767 00d0 00000000 		.word	CapSense_1_sensorEnableMask
 768 00d4 00000000 		.word	CapSense_1_sensorEnableMaskBackup
 769 00d8 00000000 		.word	CapSense_1_csdStatusVar
 770              		.cfi_endproc
 771              	.LFE41:
 772              		.size	CapSense_1_ScanWidget, .-CapSense_1_ScanWidget
 773              		.section	.text.CapSense_1_ScanEnabledWidgets,"ax",%progbits
 774              		.align	2
 775              		.global	CapSense_1_ScanEnabledWidgets
 776              		.code	16
 777              		.thumb_func
 778              		.type	CapSense_1_ScanEnabledWidgets, %function
 779              	CapSense_1_ScanEnabledWidgets:
 780              	.LFB42:
ARM GAS  C:\Users\d4hhm\AppData\Local\Temp\ccLEMF4D.s 			page 26


 639:Generated_Source\PSoC4/CapSense_1.c **** #endif /* (0u != CapSense_1_CSHL_API_GENERATE) */
 640:Generated_Source\PSoC4/CapSense_1.c **** 
 641:Generated_Source\PSoC4/CapSense_1.c **** 
 642:Generated_Source\PSoC4/CapSense_1.c **** /*******************************************************************************
 643:Generated_Source\PSoC4/CapSense_1.c **** * Function Name: CapSense_1_ScanEnableWidgets
 644:Generated_Source\PSoC4/CapSense_1.c **** ********************************************************************************
 645:Generated_Source\PSoC4/CapSense_1.c **** *
 646:Generated_Source\PSoC4/CapSense_1.c **** * Summary:
 647:Generated_Source\PSoC4/CapSense_1.c **** *  This is the preferred method to scan all of the enabled widgets.
 648:Generated_Source\PSoC4/CapSense_1.c **** *  The API starts scanning a sensor within the enabled widgets.
 649:Generated_Source\PSoC4/CapSense_1.c **** *  The ISR continues scanning the sensors until all the enabled widgets are scanned.
 650:Generated_Source\PSoC4/CapSense_1.c **** *  Use of the ISR ensures this function is non-blocking.
 651:Generated_Source\PSoC4/CapSense_1.c **** *  All the widgets are enabled by default except proximity widgets.
 652:Generated_Source\PSoC4/CapSense_1.c **** *  The proximity widgets must be manually enabled as their long scan time
 653:Generated_Source\PSoC4/CapSense_1.c **** *  is incompatible with a fast response required of other widget types.
 654:Generated_Source\PSoC4/CapSense_1.c **** *
 655:Generated_Source\PSoC4/CapSense_1.c **** * Parameters:
 656:Generated_Source\PSoC4/CapSense_1.c **** *  None
 657:Generated_Source\PSoC4/CapSense_1.c **** *
 658:Generated_Source\PSoC4/CapSense_1.c **** * Return:
 659:Generated_Source\PSoC4/CapSense_1.c **** *  None
 660:Generated_Source\PSoC4/CapSense_1.c **** *
 661:Generated_Source\PSoC4/CapSense_1.c **** * Global Variables:
 662:Generated_Source\PSoC4/CapSense_1.c **** *  CapSense_1_csdStatusVar - used to provide the status and mode of the scanning process.
 663:Generated_Source\PSoC4/CapSense_1.c **** *  Sets the busy status(scan in progress) and clears the single scan mode.
 664:Generated_Source\PSoC4/CapSense_1.c **** *  CapSense_1_sensorIndex - used to store a sensor scanning sensor number.
 665:Generated_Source\PSoC4/CapSense_1.c **** *  Sets to 0xFF and provided to function CapSense_1_FindNextSensor or
 666:Generated_Source\PSoC4/CapSense_1.c **** *
 667:Generated_Source\PSoC4/CapSense_1.c **** * Side Effects:
 668:Generated_Source\PSoC4/CapSense_1.c **** *  None
 669:Generated_Source\PSoC4/CapSense_1.c **** *
 670:Generated_Source\PSoC4/CapSense_1.c **** *******************************************************************************/
 671:Generated_Source\PSoC4/CapSense_1.c **** void CapSense_1_ScanEnabledWidgets(void)
 672:Generated_Source\PSoC4/CapSense_1.c **** {
 781              		.loc 1 672 0
 782              		.cfi_startproc
 783              		@ args = 0, pretend = 0, frame = 0
 784              		@ frame_needed = 1, uses_anonymous_args = 0
 785 0000 80B5     		push	{r7, lr}
 786              		.cfi_def_cfa_offset 8
 787              		.cfi_offset 7, -8
 788              		.cfi_offset 14, -4
 789 0002 00AF     		add	r7, sp, #0
 790              		.cfi_def_cfa_register 7
 673:Generated_Source\PSoC4/CapSense_1.c ****     /* Clears status/control variable and set sensorIndex */
 674:Generated_Source\PSoC4/CapSense_1.c ****     CapSense_1_csdStatusVar = 0u;
 791              		.loc 1 674 0
 792 0004 124B     		ldr	r3, .L43
 793 0006 0022     		movs	r2, #0
 794 0008 1A70     		strb	r2, [r3]
 675:Generated_Source\PSoC4/CapSense_1.c ****     CapSense_1_sensorIndex = 0xFFu;
 795              		.loc 1 675 0
 796 000a 124B     		ldr	r3, .L43+4
 797 000c FF22     		movs	r2, #255
 798 000e 1A70     		strb	r2, [r3]
 676:Generated_Source\PSoC4/CapSense_1.c **** 
 677:Generated_Source\PSoC4/CapSense_1.c ****     /* Find next sensor */
ARM GAS  C:\Users\d4hhm\AppData\Local\Temp\ccLEMF4D.s 			page 27


 678:Generated_Source\PSoC4/CapSense_1.c ****     CapSense_1_sensorIndex = (uint8)CapSense_1_FindNextSensor(CapSense_1_sensorIndex);
 799              		.loc 1 678 0
 800 0010 104B     		ldr	r3, .L43+4
 801 0012 1B78     		ldrb	r3, [r3]
 802 0014 DBB2     		uxtb	r3, r3
 803 0016 1800     		movs	r0, r3
 804 0018 FFF7FEFF 		bl	CapSense_1_FindNextSensor
 805 001c 0300     		movs	r3, r0
 806 001e 1A00     		movs	r2, r3
 807 0020 0C4B     		ldr	r3, .L43+4
 808 0022 1A70     		strb	r2, [r3]
 679:Generated_Source\PSoC4/CapSense_1.c **** 
 680:Generated_Source\PSoC4/CapSense_1.c ****     /* Check end of scan condition */
 681:Generated_Source\PSoC4/CapSense_1.c ****     if(CapSense_1_sensorIndex < CapSense_1_TOTAL_SENSOR_COUNT)
 809              		.loc 1 681 0
 810 0024 0B4B     		ldr	r3, .L43+4
 811 0026 1B78     		ldrb	r3, [r3]
 812 0028 DBB2     		uxtb	r3, r3
 813 002a 002B     		cmp	r3, #0
 814 002c 0DD1     		bne	.L42
 682:Generated_Source\PSoC4/CapSense_1.c ****     {
 683:Generated_Source\PSoC4/CapSense_1.c ****         CapSense_1_csdStatusVar |= CapSense_1_SW_STS_BUSY;
 815              		.loc 1 683 0
 816 002e 084B     		ldr	r3, .L43
 817 0030 1B78     		ldrb	r3, [r3]
 818 0032 DBB2     		uxtb	r3, r3
 819 0034 0122     		movs	r2, #1
 820 0036 1343     		orrs	r3, r2
 821 0038 DAB2     		uxtb	r2, r3
 822 003a 054B     		ldr	r3, .L43
 823 003c 1A70     		strb	r2, [r3]
 684:Generated_Source\PSoC4/CapSense_1.c ****         CapSense_1_PreScan((uint32)CapSense_1_sensorIndex);
 824              		.loc 1 684 0
 825 003e 054B     		ldr	r3, .L43+4
 826 0040 1B78     		ldrb	r3, [r3]
 827 0042 DBB2     		uxtb	r3, r3
 828 0044 1800     		movs	r0, r3
 829 0046 FFF7FEFF 		bl	CapSense_1_PreScan
 830              	.L42:
 685:Generated_Source\PSoC4/CapSense_1.c ****     }
 686:Generated_Source\PSoC4/CapSense_1.c **** }
 831              		.loc 1 686 0
 832 004a C046     		nop
 833 004c BD46     		mov	sp, r7
 834              		@ sp needed
 835 004e 80BD     		pop	{r7, pc}
 836              	.L44:
 837              		.align	2
 838              	.L43:
 839 0050 00000000 		.word	CapSense_1_csdStatusVar
 840 0054 00000000 		.word	CapSense_1_sensorIndex
 841              		.cfi_endproc
 842              	.LFE42:
 843              		.size	CapSense_1_ScanEnabledWidgets, .-CapSense_1_ScanEnabledWidgets
 844              		.section	.text.CapSense_1_IsBusy,"ax",%progbits
 845              		.align	2
 846              		.global	CapSense_1_IsBusy
ARM GAS  C:\Users\d4hhm\AppData\Local\Temp\ccLEMF4D.s 			page 28


 847              		.code	16
 848              		.thumb_func
 849              		.type	CapSense_1_IsBusy, %function
 850              	CapSense_1_IsBusy:
 851              	.LFB43:
 687:Generated_Source\PSoC4/CapSense_1.c **** 
 688:Generated_Source\PSoC4/CapSense_1.c **** 
 689:Generated_Source\PSoC4/CapSense_1.c **** /*******************************************************************************
 690:Generated_Source\PSoC4/CapSense_1.c **** * Function Name: CapSense_1_IsBusy
 691:Generated_Source\PSoC4/CapSense_1.c **** ********************************************************************************
 692:Generated_Source\PSoC4/CapSense_1.c **** *
 693:Generated_Source\PSoC4/CapSense_1.c **** * Summary:
 694:Generated_Source\PSoC4/CapSense_1.c **** *  Returns the state of the CapSense component. 1 means that scanning in
 695:Generated_Source\PSoC4/CapSense_1.c **** *  progress and 0 means that scanning is complete.
 696:Generated_Source\PSoC4/CapSense_1.c **** *
 697:Generated_Source\PSoC4/CapSense_1.c **** * Parameters:
 698:Generated_Source\PSoC4/CapSense_1.c **** *  None
 699:Generated_Source\PSoC4/CapSense_1.c **** *
 700:Generated_Source\PSoC4/CapSense_1.c **** * Return:
 701:Generated_Source\PSoC4/CapSense_1.c **** *  Returns the state of scanning. 1 - scanning in progress, 0 - scanning
 702:Generated_Source\PSoC4/CapSense_1.c **** *  completed.
 703:Generated_Source\PSoC4/CapSense_1.c **** *
 704:Generated_Source\PSoC4/CapSense_1.c **** * Global Variables:
 705:Generated_Source\PSoC4/CapSense_1.c **** *  CapSense_1_csdStatusVar - used to provide the status and mode of the scanning process.
 706:Generated_Source\PSoC4/CapSense_1.c **** *  Checks the busy status.
 707:Generated_Source\PSoC4/CapSense_1.c **** *
 708:Generated_Source\PSoC4/CapSense_1.c **** * Side Effects:
 709:Generated_Source\PSoC4/CapSense_1.c **** *  None
 710:Generated_Source\PSoC4/CapSense_1.c **** *
 711:Generated_Source\PSoC4/CapSense_1.c **** *******************************************************************************/
 712:Generated_Source\PSoC4/CapSense_1.c **** uint32 CapSense_1_IsBusy(void)
 713:Generated_Source\PSoC4/CapSense_1.c **** {
 852              		.loc 1 713 0
 853              		.cfi_startproc
 854              		@ args = 0, pretend = 0, frame = 0
 855              		@ frame_needed = 1, uses_anonymous_args = 0
 856 0000 80B5     		push	{r7, lr}
 857              		.cfi_def_cfa_offset 8
 858              		.cfi_offset 7, -8
 859              		.cfi_offset 14, -4
 860 0002 00AF     		add	r7, sp, #0
 861              		.cfi_def_cfa_register 7
 714:Generated_Source\PSoC4/CapSense_1.c ****     return ((uint32)((0u != (CapSense_1_csdStatusVar & CapSense_1_SW_STS_BUSY)) ? 1u : 0u));
 862              		.loc 1 714 0
 863 0004 044B     		ldr	r3, .L47
 864 0006 1B78     		ldrb	r3, [r3]
 865 0008 DBB2     		uxtb	r3, r3
 866 000a 1A00     		movs	r2, r3
 867 000c 0123     		movs	r3, #1
 868 000e 1340     		ands	r3, r2
 715:Generated_Source\PSoC4/CapSense_1.c **** }
 869              		.loc 1 715 0
 870 0010 1800     		movs	r0, r3
 871 0012 BD46     		mov	sp, r7
 872              		@ sp needed
 873 0014 80BD     		pop	{r7, pc}
 874              	.L48:
ARM GAS  C:\Users\d4hhm\AppData\Local\Temp\ccLEMF4D.s 			page 29


 875 0016 C046     		.align	2
 876              	.L47:
 877 0018 00000000 		.word	CapSense_1_csdStatusVar
 878              		.cfi_endproc
 879              	.LFE43:
 880              		.size	CapSense_1_IsBusy, .-CapSense_1_IsBusy
 881              		.section	.text.CapSense_1_ReadSensorRaw,"ax",%progbits
 882              		.align	2
 883              		.global	CapSense_1_ReadSensorRaw
 884              		.code	16
 885              		.thumb_func
 886              		.type	CapSense_1_ReadSensorRaw, %function
 887              	CapSense_1_ReadSensorRaw:
 888              	.LFB44:
 716:Generated_Source\PSoC4/CapSense_1.c **** 
 717:Generated_Source\PSoC4/CapSense_1.c **** 
 718:Generated_Source\PSoC4/CapSense_1.c **** /*******************************************************************************
 719:Generated_Source\PSoC4/CapSense_1.c **** * Function Name: CapSense_1_ReadSensorRaw
 720:Generated_Source\PSoC4/CapSense_1.c **** ********************************************************************************
 721:Generated_Source\PSoC4/CapSense_1.c **** *
 722:Generated_Source\PSoC4/CapSense_1.c **** * Summary:
 723:Generated_Source\PSoC4/CapSense_1.c **** *  Returns sensor raw data from the global CapSense_sensorRaw[ ] array.
 724:Generated_Source\PSoC4/CapSense_1.c **** *  Each scan sensor has a unique number within the sensor array.
 725:Generated_Source\PSoC4/CapSense_1.c **** *  This number is assigned by the CapSense customizer in sequence.
 726:Generated_Source\PSoC4/CapSense_1.c **** *  Raw data can be used to perform calculations outside of the CapSense
 727:Generated_Source\PSoC4/CapSense_1.c **** *  provided framework.
 728:Generated_Source\PSoC4/CapSense_1.c **** *
 729:Generated_Source\PSoC4/CapSense_1.c **** * Parameters:
 730:Generated_Source\PSoC4/CapSense_1.c **** *  sensor:  Sensor number.
 731:Generated_Source\PSoC4/CapSense_1.c **** *
 732:Generated_Source\PSoC4/CapSense_1.c **** * Return:
 733:Generated_Source\PSoC4/CapSense_1.c **** *  Returns the current raw data value for a defined sensor number.
 734:Generated_Source\PSoC4/CapSense_1.c **** *
 735:Generated_Source\PSoC4/CapSense_1.c **** * Global Variables:
 736:Generated_Source\PSoC4/CapSense_1.c **** *  CapSense_1_sensorRaw[] - used to store sensors raw data.
 737:Generated_Source\PSoC4/CapSense_1.c **** *
 738:Generated_Source\PSoC4/CapSense_1.c **** * Side Effects:
 739:Generated_Source\PSoC4/CapSense_1.c **** *  None
 740:Generated_Source\PSoC4/CapSense_1.c **** *
 741:Generated_Source\PSoC4/CapSense_1.c **** *******************************************************************************/
 742:Generated_Source\PSoC4/CapSense_1.c **** uint16 CapSense_1_ReadSensorRaw(uint32 sensor)
 743:Generated_Source\PSoC4/CapSense_1.c **** {
 889              		.loc 1 743 0
 890              		.cfi_startproc
 891              		@ args = 0, pretend = 0, frame = 8
 892              		@ frame_needed = 1, uses_anonymous_args = 0
 893 0000 80B5     		push	{r7, lr}
 894              		.cfi_def_cfa_offset 8
 895              		.cfi_offset 7, -8
 896              		.cfi_offset 14, -4
 897 0002 82B0     		sub	sp, sp, #8
 898              		.cfi_def_cfa_offset 16
 899 0004 00AF     		add	r7, sp, #0
 900              		.cfi_def_cfa_register 7
 901 0006 7860     		str	r0, [r7, #4]
 744:Generated_Source\PSoC4/CapSense_1.c ****     return CapSense_1_sensorRaw[sensor];
 902              		.loc 1 744 0
ARM GAS  C:\Users\d4hhm\AppData\Local\Temp\ccLEMF4D.s 			page 30


 903 0008 034B     		ldr	r3, .L51
 904 000a 7A68     		ldr	r2, [r7, #4]
 905 000c 5200     		lsls	r2, r2, #1
 906 000e D35A     		ldrh	r3, [r2, r3]
 745:Generated_Source\PSoC4/CapSense_1.c **** }
 907              		.loc 1 745 0
 908 0010 1800     		movs	r0, r3
 909 0012 BD46     		mov	sp, r7
 910 0014 02B0     		add	sp, sp, #8
 911              		@ sp needed
 912 0016 80BD     		pop	{r7, pc}
 913              	.L52:
 914              		.align	2
 915              	.L51:
 916 0018 00000000 		.word	CapSense_1_sensorRaw
 917              		.cfi_endproc
 918              	.LFE44:
 919              		.size	CapSense_1_ReadSensorRaw, .-CapSense_1_ReadSensorRaw
 920              		.section	.text.CapSense_1_WriteSensorRaw,"ax",%progbits
 921              		.align	2
 922              		.global	CapSense_1_WriteSensorRaw
 923              		.code	16
 924              		.thumb_func
 925              		.type	CapSense_1_WriteSensorRaw, %function
 926              	CapSense_1_WriteSensorRaw:
 927              	.LFB45:
 746:Generated_Source\PSoC4/CapSense_1.c **** 
 747:Generated_Source\PSoC4/CapSense_1.c **** 
 748:Generated_Source\PSoC4/CapSense_1.c **** /*******************************************************************************
 749:Generated_Source\PSoC4/CapSense_1.c **** * Function Name: CapSense_1_WriteSensorRaw
 750:Generated_Source\PSoC4/CapSense_1.c **** ********************************************************************************
 751:Generated_Source\PSoC4/CapSense_1.c **** *
 752:Generated_Source\PSoC4/CapSense_1.c **** * Summary:
 753:Generated_Source\PSoC4/CapSense_1.c **** *  This API writes the raw count value passed as an argument to the sensor Raw count array.
 754:Generated_Source\PSoC4/CapSense_1.c **** *
 755:Generated_Source\PSoC4/CapSense_1.c **** * Parameters:
 756:Generated_Source\PSoC4/CapSense_1.c **** *  sensor:  Sensor number.
 757:Generated_Source\PSoC4/CapSense_1.c **** *  value: Raw count value.
 758:Generated_Source\PSoC4/CapSense_1.c **** *
 759:Generated_Source\PSoC4/CapSense_1.c **** * Global Variables:
 760:Generated_Source\PSoC4/CapSense_1.c **** *  CapSense_1_sensorRaw[] - used to store sensors raw data.
 761:Generated_Source\PSoC4/CapSense_1.c **** *
 762:Generated_Source\PSoC4/CapSense_1.c **** * Return:
 763:Generated_Source\PSoC4/CapSense_1.c **** *  None
 764:Generated_Source\PSoC4/CapSense_1.c **** *
 765:Generated_Source\PSoC4/CapSense_1.c **** * Side Effects:
 766:Generated_Source\PSoC4/CapSense_1.c **** *  None
 767:Generated_Source\PSoC4/CapSense_1.c **** *
 768:Generated_Source\PSoC4/CapSense_1.c **** *******************************************************************************/
 769:Generated_Source\PSoC4/CapSense_1.c **** void CapSense_1_WriteSensorRaw(uint32 sensor, uint16 value)
 770:Generated_Source\PSoC4/CapSense_1.c **** {
 928              		.loc 1 770 0
 929              		.cfi_startproc
 930              		@ args = 0, pretend = 0, frame = 8
 931              		@ frame_needed = 1, uses_anonymous_args = 0
 932 0000 80B5     		push	{r7, lr}
 933              		.cfi_def_cfa_offset 8
ARM GAS  C:\Users\d4hhm\AppData\Local\Temp\ccLEMF4D.s 			page 31


 934              		.cfi_offset 7, -8
 935              		.cfi_offset 14, -4
 936 0002 82B0     		sub	sp, sp, #8
 937              		.cfi_def_cfa_offset 16
 938 0004 00AF     		add	r7, sp, #0
 939              		.cfi_def_cfa_register 7
 940 0006 7860     		str	r0, [r7, #4]
 941 0008 0A00     		movs	r2, r1
 942 000a BB1C     		adds	r3, r7, #2
 943 000c 1A80     		strh	r2, [r3]
 771:Generated_Source\PSoC4/CapSense_1.c ****     CapSense_1_sensorRaw[sensor] = value;
 944              		.loc 1 771 0
 945 000e 054B     		ldr	r3, .L54
 946 0010 7A68     		ldr	r2, [r7, #4]
 947 0012 5200     		lsls	r2, r2, #1
 948 0014 B91C     		adds	r1, r7, #2
 949 0016 0988     		ldrh	r1, [r1]
 950 0018 D152     		strh	r1, [r2, r3]
 772:Generated_Source\PSoC4/CapSense_1.c **** }
 951              		.loc 1 772 0
 952 001a C046     		nop
 953 001c BD46     		mov	sp, r7
 954 001e 02B0     		add	sp, sp, #8
 955              		@ sp needed
 956 0020 80BD     		pop	{r7, pc}
 957              	.L55:
 958 0022 C046     		.align	2
 959              	.L54:
 960 0024 00000000 		.word	CapSense_1_sensorRaw
 961              		.cfi_endproc
 962              	.LFE45:
 963              		.size	CapSense_1_WriteSensorRaw, .-CapSense_1_WriteSensorRaw
 964              		.section	.text.CapSense_1_GetScanResolution,"ax",%progbits
 965              		.align	2
 966              		.global	CapSense_1_GetScanResolution
 967              		.code	16
 968              		.thumb_func
 969              		.type	CapSense_1_GetScanResolution, %function
 970              	CapSense_1_GetScanResolution:
 971              	.LFB46:
 773:Generated_Source\PSoC4/CapSense_1.c **** 
 774:Generated_Source\PSoC4/CapSense_1.c **** 
 775:Generated_Source\PSoC4/CapSense_1.c **** #if (CapSense_1_TUNING_METHOD != CapSense_1__TUNING_NONE)
 776:Generated_Source\PSoC4/CapSense_1.c ****     /*******************************************************************************
 777:Generated_Source\PSoC4/CapSense_1.c ****     * Function Name: CapSense_1_SetScanResolution
 778:Generated_Source\PSoC4/CapSense_1.c ****     ********************************************************************************
 779:Generated_Source\PSoC4/CapSense_1.c ****     *
 780:Generated_Source\PSoC4/CapSense_1.c ****     * Summary:
 781:Generated_Source\PSoC4/CapSense_1.c ****     *  Sets a value of the sensor scan resolution for a widget.
 782:Generated_Source\PSoC4/CapSense_1.c ****     *  The MIN resolution can be set 8-bit. The MAX Resolution can be set 16 bit.
 783:Generated_Source\PSoC4/CapSense_1.c ****     *  This function is not available for the tuning mode "None".
 784:Generated_Source\PSoC4/CapSense_1.c ****     *
 785:Generated_Source\PSoC4/CapSense_1.c ****     * Parameters:
 786:Generated_Source\PSoC4/CapSense_1.c ****     *  widget:     Widget index.
 787:Generated_Source\PSoC4/CapSense_1.c ****     *  resolution: Represents the resolution value. The following defines which are available in th
 788:Generated_Source\PSoC4/CapSense_1.c ****     *              CapSense_1.h file should be used:
 789:Generated_Source\PSoC4/CapSense_1.c ****     *              CapSense_1_RESOLUTION_6_BITS
ARM GAS  C:\Users\d4hhm\AppData\Local\Temp\ccLEMF4D.s 			page 32


 790:Generated_Source\PSoC4/CapSense_1.c ****     *              CapSense_1_RESOLUTION_7_BITS
 791:Generated_Source\PSoC4/CapSense_1.c ****     *              CapSense_1_RESOLUTION_8_BITS
 792:Generated_Source\PSoC4/CapSense_1.c ****     *              CapSense_1_RESOLUTION_9_BITS
 793:Generated_Source\PSoC4/CapSense_1.c ****     *              CapSense_1_RESOLUTION_10_BITS
 794:Generated_Source\PSoC4/CapSense_1.c ****     *              CapSense_1_RESOLUTION_11_BITS
 795:Generated_Source\PSoC4/CapSense_1.c ****     *              CapSense_1_RESOLUTION_12_BITS
 796:Generated_Source\PSoC4/CapSense_1.c ****     *              CapSense_1_RESOLUTION_13_BITS
 797:Generated_Source\PSoC4/CapSense_1.c ****     *              CapSense_1_RESOLUTION_14_BITS
 798:Generated_Source\PSoC4/CapSense_1.c ****     *              CapSense_1_RESOLUTION_15_BITS
 799:Generated_Source\PSoC4/CapSense_1.c ****     *              CapSense_1_RESOLUTION_16_BITS
 800:Generated_Source\PSoC4/CapSense_1.c ****     *
 801:Generated_Source\PSoC4/CapSense_1.c ****     * Return:
 802:Generated_Source\PSoC4/CapSense_1.c ****     *  None
 803:Generated_Source\PSoC4/CapSense_1.c ****     *
 804:Generated_Source\PSoC4/CapSense_1.c ****     * Global Variables:
 805:Generated_Source\PSoC4/CapSense_1.c ****     *  CapSense_1_widgetResolution[] - used to store scan resolution of each widget.
 806:Generated_Source\PSoC4/CapSense_1.c ****     *
 807:Generated_Source\PSoC4/CapSense_1.c ****     * Side Effects:
 808:Generated_Source\PSoC4/CapSense_1.c ****     *  None
 809:Generated_Source\PSoC4/CapSense_1.c ****     *
 810:Generated_Source\PSoC4/CapSense_1.c ****     *******************************************************************************/
 811:Generated_Source\PSoC4/CapSense_1.c ****     void CapSense_1_SetScanResolution(uint32 widget, uint32 resolution)
 812:Generated_Source\PSoC4/CapSense_1.c ****     {
 813:Generated_Source\PSoC4/CapSense_1.c ****         CapSense_1_widgetResolution[widget] = resolution;
 814:Generated_Source\PSoC4/CapSense_1.c ****     }
 815:Generated_Source\PSoC4/CapSense_1.c **** #endif /* (CapSense_1_TUNING_METHOD != CapSense_1__TUNING_NONE) */
 816:Generated_Source\PSoC4/CapSense_1.c **** 
 817:Generated_Source\PSoC4/CapSense_1.c **** 
 818:Generated_Source\PSoC4/CapSense_1.c **** /*******************************************************************************
 819:Generated_Source\PSoC4/CapSense_1.c **** * Function Name: CapSense_1_GetScanResolution
 820:Generated_Source\PSoC4/CapSense_1.c **** ********************************************************************************
 821:Generated_Source\PSoC4/CapSense_1.c **** *
 822:Generated_Source\PSoC4/CapSense_1.c **** * Summary:
 823:Generated_Source\PSoC4/CapSense_1.c **** *  Returns the resolution value for the appropriate sensor.
 824:Generated_Source\PSoC4/CapSense_1.c **** *  This function is not available for tuning mode "None".
 825:Generated_Source\PSoC4/CapSense_1.c **** *
 826:Generated_Source\PSoC4/CapSense_1.c **** * Parameters:
 827:Generated_Source\PSoC4/CapSense_1.c **** *  widget:     Widget index.
 828:Generated_Source\PSoC4/CapSense_1.c **** *
 829:Generated_Source\PSoC4/CapSense_1.c **** * Return:
 830:Generated_Source\PSoC4/CapSense_1.c **** *  resolution: Returns the resolution value for the appropriate sensor.
 831:Generated_Source\PSoC4/CapSense_1.c **** *              The resolution values are defined in the CapSense_1.h file
 832:Generated_Source\PSoC4/CapSense_1.c **** *              The defines are encountered below:
 833:Generated_Source\PSoC4/CapSense_1.c **** *              CapSense_1_RESOLUTION_6_BITS
 834:Generated_Source\PSoC4/CapSense_1.c **** *              CapSense_1_RESOLUTION_7_BITS
 835:Generated_Source\PSoC4/CapSense_1.c **** *              CapSense_1_RESOLUTION_8_BITS
 836:Generated_Source\PSoC4/CapSense_1.c **** *              CapSense_1_RESOLUTION_9_BITS
 837:Generated_Source\PSoC4/CapSense_1.c **** *              CapSense_1_RESOLUTION_10_BITS
 838:Generated_Source\PSoC4/CapSense_1.c **** *              CapSense_1_RESOLUTION_11_BITS
 839:Generated_Source\PSoC4/CapSense_1.c **** *              CapSense_1_RESOLUTION_12_BITS
 840:Generated_Source\PSoC4/CapSense_1.c **** *              CapSense_1_RESOLUTION_13_BITS
 841:Generated_Source\PSoC4/CapSense_1.c **** *              CapSense_1_RESOLUTION_14_BITS
 842:Generated_Source\PSoC4/CapSense_1.c **** *              CapSense_1_RESOLUTION_15_BITS
 843:Generated_Source\PSoC4/CapSense_1.c **** *              CapSense_1_RESOLUTION_16_BITS
 844:Generated_Source\PSoC4/CapSense_1.c **** *
 845:Generated_Source\PSoC4/CapSense_1.c **** * Global Variables:
 846:Generated_Source\PSoC4/CapSense_1.c **** *  CapSense_1_widgetResolution[] - used to store scan resolution of every widget.
ARM GAS  C:\Users\d4hhm\AppData\Local\Temp\ccLEMF4D.s 			page 33


 847:Generated_Source\PSoC4/CapSense_1.c **** *
 848:Generated_Source\PSoC4/CapSense_1.c **** * Side Effects:
 849:Generated_Source\PSoC4/CapSense_1.c **** *  None
 850:Generated_Source\PSoC4/CapSense_1.c **** *
 851:Generated_Source\PSoC4/CapSense_1.c **** *******************************************************************************/
 852:Generated_Source\PSoC4/CapSense_1.c **** uint32 CapSense_1_GetScanResolution(uint32 widget)
 853:Generated_Source\PSoC4/CapSense_1.c **** {
 972              		.loc 1 853 0
 973              		.cfi_startproc
 974              		@ args = 0, pretend = 0, frame = 8
 975              		@ frame_needed = 1, uses_anonymous_args = 0
 976 0000 80B5     		push	{r7, lr}
 977              		.cfi_def_cfa_offset 8
 978              		.cfi_offset 7, -8
 979              		.cfi_offset 14, -4
 980 0002 82B0     		sub	sp, sp, #8
 981              		.cfi_def_cfa_offset 16
 982 0004 00AF     		add	r7, sp, #0
 983              		.cfi_def_cfa_register 7
 984 0006 7860     		str	r0, [r7, #4]
 854:Generated_Source\PSoC4/CapSense_1.c ****     return(CapSense_1_widgetResolution[widget]);
 985              		.loc 1 854 0
 986 0008 024B     		ldr	r3, .L58
 855:Generated_Source\PSoC4/CapSense_1.c **** }
 987              		.loc 1 855 0
 988 000a 1800     		movs	r0, r3
 989 000c BD46     		mov	sp, r7
 990 000e 02B0     		add	sp, sp, #8
 991              		@ sp needed
 992 0010 80BD     		pop	{r7, pc}
 993              	.L59:
 994 0012 C046     		.align	2
 995              	.L58:
 996 0014 0000FF03 		.word	67043328
 997              		.cfi_endproc
 998              	.LFE46:
 999              		.size	CapSense_1_GetScanResolution, .-CapSense_1_GetScanResolution
 1000              		.section	.text.CapSense_1_ClearSensors,"ax",%progbits
 1001              		.align	2
 1002              		.global	CapSense_1_ClearSensors
 1003              		.code	16
 1004              		.thumb_func
 1005              		.type	CapSense_1_ClearSensors, %function
 1006              	CapSense_1_ClearSensors:
 1007              	.LFB47:
 856:Generated_Source\PSoC4/CapSense_1.c **** 
 857:Generated_Source\PSoC4/CapSense_1.c **** 
 858:Generated_Source\PSoC4/CapSense_1.c **** /*******************************************************************************
 859:Generated_Source\PSoC4/CapSense_1.c **** * Function Name: CapSense_1_ClearSensors
 860:Generated_Source\PSoC4/CapSense_1.c **** ********************************************************************************
 861:Generated_Source\PSoC4/CapSense_1.c **** *
 862:Generated_Source\PSoC4/CapSense_1.c **** * Summary:
 863:Generated_Source\PSoC4/CapSense_1.c **** *  Resets all the sensors to the non-sampling state by sequentially disconnecting
 864:Generated_Source\PSoC4/CapSense_1.c **** *  all the sensors from Analog MUX Bus and putting them to an inactive state.
 865:Generated_Source\PSoC4/CapSense_1.c **** *
 866:Generated_Source\PSoC4/CapSense_1.c **** * Parameters:
 867:Generated_Source\PSoC4/CapSense_1.c **** *  None
ARM GAS  C:\Users\d4hhm\AppData\Local\Temp\ccLEMF4D.s 			page 34


 868:Generated_Source\PSoC4/CapSense_1.c **** *
 869:Generated_Source\PSoC4/CapSense_1.c **** * Return:
 870:Generated_Source\PSoC4/CapSense_1.c **** *  None
 871:Generated_Source\PSoC4/CapSense_1.c **** *
 872:Generated_Source\PSoC4/CapSense_1.c **** * Global Variables:
 873:Generated_Source\PSoC4/CapSense_1.c **** *  None
 874:Generated_Source\PSoC4/CapSense_1.c **** *
 875:Generated_Source\PSoC4/CapSense_1.c **** * Side Effects:
 876:Generated_Source\PSoC4/CapSense_1.c **** *  None
 877:Generated_Source\PSoC4/CapSense_1.c **** *
 878:Generated_Source\PSoC4/CapSense_1.c **** *******************************************************************************/
 879:Generated_Source\PSoC4/CapSense_1.c **** void CapSense_1_ClearSensors(void)
 880:Generated_Source\PSoC4/CapSense_1.c **** {
 1008              		.loc 1 880 0
 1009              		.cfi_startproc
 1010              		@ args = 0, pretend = 0, frame = 8
 1011              		@ frame_needed = 1, uses_anonymous_args = 0
 1012 0000 80B5     		push	{r7, lr}
 1013              		.cfi_def_cfa_offset 8
 1014              		.cfi_offset 7, -8
 1015              		.cfi_offset 14, -4
 1016 0002 82B0     		sub	sp, sp, #8
 1017              		.cfi_def_cfa_offset 16
 1018 0004 00AF     		add	r7, sp, #0
 1019              		.cfi_def_cfa_register 7
 881:Generated_Source\PSoC4/CapSense_1.c ****     uint32 snsIndex;
 882:Generated_Source\PSoC4/CapSense_1.c **** 
 883:Generated_Source\PSoC4/CapSense_1.c ****     for (snsIndex = 0u; snsIndex < CapSense_1_TOTAL_SENSOR_COUNT; snsIndex++)
 1020              		.loc 1 883 0
 1021 0006 0023     		movs	r3, #0
 1022 0008 7B60     		str	r3, [r7, #4]
 1023 000a 06E0     		b	.L61
 1024              	.L62:
 884:Generated_Source\PSoC4/CapSense_1.c ****     {
 885:Generated_Source\PSoC4/CapSense_1.c ****         CapSense_1_DisableScanSlot(snsIndex);
 1025              		.loc 1 885 0 discriminator 3
 1026 000c 7B68     		ldr	r3, [r7, #4]
 1027 000e 1800     		movs	r0, r3
 1028 0010 FFF7FEFF 		bl	CapSense_1_DisableSensor
 883:Generated_Source\PSoC4/CapSense_1.c ****     {
 1029              		.loc 1 883 0 discriminator 3
 1030 0014 7B68     		ldr	r3, [r7, #4]
 1031 0016 0133     		adds	r3, r3, #1
 1032 0018 7B60     		str	r3, [r7, #4]
 1033              	.L61:
 883:Generated_Source\PSoC4/CapSense_1.c ****     {
 1034              		.loc 1 883 0 is_stmt 0 discriminator 1
 1035 001a 7B68     		ldr	r3, [r7, #4]
 1036 001c 002B     		cmp	r3, #0
 1037 001e F5D0     		beq	.L62
 886:Generated_Source\PSoC4/CapSense_1.c ****     }
 887:Generated_Source\PSoC4/CapSense_1.c **** }
 1038              		.loc 1 887 0 is_stmt 1
 1039 0020 C046     		nop
 1040 0022 BD46     		mov	sp, r7
 1041 0024 02B0     		add	sp, sp, #8
 1042              		@ sp needed
ARM GAS  C:\Users\d4hhm\AppData\Local\Temp\ccLEMF4D.s 			page 35


 1043 0026 80BD     		pop	{r7, pc}
 1044              		.cfi_endproc
 1045              	.LFE47:
 1046              		.size	CapSense_1_ClearSensors, .-CapSense_1_ClearSensors
 1047              		.section	.text.CapSense_1_EnableSensor,"ax",%progbits
 1048              		.align	2
 1049              		.global	CapSense_1_EnableSensor
 1050              		.code	16
 1051              		.thumb_func
 1052              		.type	CapSense_1_EnableSensor, %function
 1053              	CapSense_1_EnableSensor:
 1054              	.LFB48:
 888:Generated_Source\PSoC4/CapSense_1.c **** 
 889:Generated_Source\PSoC4/CapSense_1.c **** 
 890:Generated_Source\PSoC4/CapSense_1.c **** #if (CapSense_1_IS_COMPLEX_SCANSLOTS)
 891:Generated_Source\PSoC4/CapSense_1.c ****     /*******************************************************************************
 892:Generated_Source\PSoC4/CapSense_1.c ****     * Function Name: CapSense_1_EnableScanSlot
 893:Generated_Source\PSoC4/CapSense_1.c ****     ********************************************************************************
 894:Generated_Source\PSoC4/CapSense_1.c ****     *
 895:Generated_Source\PSoC4/CapSense_1.c ****     * Summary:
 896:Generated_Source\PSoC4/CapSense_1.c ****     *  Configures the selected slot to measure during the next measurement
 897:Generated_Source\PSoC4/CapSense_1.c ****     *  cycle. The corresponding pin/pins are set to Analog High-Z mode and
 898:Generated_Source\PSoC4/CapSense_1.c ****     *  connected to the Analog Mux Bus. This also enables the comparator function.
 899:Generated_Source\PSoC4/CapSense_1.c ****     *
 900:Generated_Source\PSoC4/CapSense_1.c ****     * Parameters:
 901:Generated_Source\PSoC4/CapSense_1.c ****     *  slot:  Slot number.
 902:Generated_Source\PSoC4/CapSense_1.c ****     *
 903:Generated_Source\PSoC4/CapSense_1.c ****     * Return:
 904:Generated_Source\PSoC4/CapSense_1.c ****     *  None
 905:Generated_Source\PSoC4/CapSense_1.c ****     *
 906:Generated_Source\PSoC4/CapSense_1.c ****     * Global Constants:
 907:Generated_Source\PSoC4/CapSense_1.c ****     *  CapSense_1_portTable[]  - used to store the port number that pin
 908:Generated_Source\PSoC4/CapSense_1.c ****     *  belongs to for each sensor.
 909:Generated_Source\PSoC4/CapSense_1.c ****     *  CapSense_1_maskTable[]  - used to store the pin within the port for
 910:Generated_Source\PSoC4/CapSense_1.c ****     *  each sensor.
 911:Generated_Source\PSoC4/CapSense_1.c ****     *  CapSense_1_indexTable[] - used to store indexes of complex sensors.
 912:Generated_Source\PSoC4/CapSense_1.c ****     *  The offset and position in this array are stored in a port and mask table for
 913:Generated_Source\PSoC4/CapSense_1.c ****     *  complex sensors.
 914:Generated_Source\PSoC4/CapSense_1.c ****     *  Bit 7 (msb) is used to define the sensor type: single or complex.
 915:Generated_Source\PSoC4/CapSense_1.c ****     *
 916:Generated_Source\PSoC4/CapSense_1.c ****     * Side Effects:
 917:Generated_Source\PSoC4/CapSense_1.c ****     *  None
 918:Generated_Source\PSoC4/CapSense_1.c ****     *
 919:Generated_Source\PSoC4/CapSense_1.c ****     *******************************************************************************/
 920:Generated_Source\PSoC4/CapSense_1.c ****     void CapSense_1_EnableScanSlot(uint32 slot)
 921:Generated_Source\PSoC4/CapSense_1.c ****     {
 922:Generated_Source\PSoC4/CapSense_1.c ****         uint8 j;
 923:Generated_Source\PSoC4/CapSense_1.c ****         uint8 snsNumber;
 924:Generated_Source\PSoC4/CapSense_1.c ****         const uint8 *index;
 925:Generated_Source\PSoC4/CapSense_1.c ****         /* Read sensor type: single or complex */
 926:Generated_Source\PSoC4/CapSense_1.c ****         uint8 snsType = CapSense_1_portTable[slot];
 927:Generated_Source\PSoC4/CapSense_1.c **** 
 928:Generated_Source\PSoC4/CapSense_1.c ****         /* Check if sensor is complex */
 929:Generated_Source\PSoC4/CapSense_1.c ****         if ((snsType & CapSense_1_COMPLEX_SS_FLAG) == 0u)
 930:Generated_Source\PSoC4/CapSense_1.c ****         {
 931:Generated_Source\PSoC4/CapSense_1.c ****             /* Enable sensor (single) */
 932:Generated_Source\PSoC4/CapSense_1.c ****             CapSense_1_EnableSensor(slot);
ARM GAS  C:\Users\d4hhm\AppData\Local\Temp\ccLEMF4D.s 			page 36


 933:Generated_Source\PSoC4/CapSense_1.c ****         }
 934:Generated_Source\PSoC4/CapSense_1.c ****         else
 935:Generated_Source\PSoC4/CapSense_1.c ****         {
 936:Generated_Source\PSoC4/CapSense_1.c ****             /* Enable complex sensor */
 937:Generated_Source\PSoC4/CapSense_1.c ****             snsType &= ~CapSense_1_COMPLEX_SS_FLAG;
 938:Generated_Source\PSoC4/CapSense_1.c ****             index = &CapSense_1_indexTable[snsType];
 939:Generated_Source\PSoC4/CapSense_1.c ****             snsNumber = CapSense_1_maskTable[slot];
 940:Generated_Source\PSoC4/CapSense_1.c **** 
 941:Generated_Source\PSoC4/CapSense_1.c ****             for (j = 0u; j < snsNumber; j++)
 942:Generated_Source\PSoC4/CapSense_1.c ****             {
 943:Generated_Source\PSoC4/CapSense_1.c ****                 CapSense_1_EnableSensor(index[j]);
 944:Generated_Source\PSoC4/CapSense_1.c ****             }
 945:Generated_Source\PSoC4/CapSense_1.c ****         }
 946:Generated_Source\PSoC4/CapSense_1.c ****     }
 947:Generated_Source\PSoC4/CapSense_1.c **** 
 948:Generated_Source\PSoC4/CapSense_1.c **** 
 949:Generated_Source\PSoC4/CapSense_1.c ****     /*******************************************************************************
 950:Generated_Source\PSoC4/CapSense_1.c ****     * Function Name: CapSense_1_DisableScanSlot
 951:Generated_Source\PSoC4/CapSense_1.c ****     ********************************************************************************
 952:Generated_Source\PSoC4/CapSense_1.c ****     *
 953:Generated_Source\PSoC4/CapSense_1.c ****     * Summary:
 954:Generated_Source\PSoC4/CapSense_1.c ****     *  Disables the selected slot. The corresponding pin/pins is/are disconnected
 955:Generated_Source\PSoC4/CapSense_1.c ****     *  from the Analog Mux Bus and connected to GND, High_Z or Shield electrode.
 956:Generated_Source\PSoC4/CapSense_1.c ****     *
 957:Generated_Source\PSoC4/CapSense_1.c ****     * Parameters:
 958:Generated_Source\PSoC4/CapSense_1.c ****     *  slot:  Slot number.
 959:Generated_Source\PSoC4/CapSense_1.c ****     *
 960:Generated_Source\PSoC4/CapSense_1.c ****     * Return:
 961:Generated_Source\PSoC4/CapSense_1.c ****     *  None
 962:Generated_Source\PSoC4/CapSense_1.c ****     *
 963:Generated_Source\PSoC4/CapSense_1.c ****     * Global Variables:
 964:Generated_Source\PSoC4/CapSense_1.c ****     *  CapSense_1_portTable[]  - used to store the port number that pin
 965:Generated_Source\PSoC4/CapSense_1.c ****     *  belongs to for each sensor.
 966:Generated_Source\PSoC4/CapSense_1.c ****     *  CapSense_1_maskTable[]  - used to store the pin within the port for
 967:Generated_Source\PSoC4/CapSense_1.c ****     *  each sensor.
 968:Generated_Source\PSoC4/CapSense_1.c ****     *  CapSense_1_indexTable[] - used to store indexes of complex sensors.
 969:Generated_Source\PSoC4/CapSense_1.c ****     *  The offset and position in this array are stored in a port and mask table for
 970:Generated_Source\PSoC4/CapSense_1.c ****     *  complex sensors.
 971:Generated_Source\PSoC4/CapSense_1.c ****     *  7bit(msb) is used to define the sensor type: single or complex.
 972:Generated_Source\PSoC4/CapSense_1.c ****     *
 973:Generated_Source\PSoC4/CapSense_1.c ****     * Side Effects:
 974:Generated_Source\PSoC4/CapSense_1.c ****     *  None
 975:Generated_Source\PSoC4/CapSense_1.c ****     *
 976:Generated_Source\PSoC4/CapSense_1.c ****     *******************************************************************************/
 977:Generated_Source\PSoC4/CapSense_1.c ****     void CapSense_1_DisableScanSlot(uint32 slot)
 978:Generated_Source\PSoC4/CapSense_1.c ****     {
 979:Generated_Source\PSoC4/CapSense_1.c ****         uint8 j;
 980:Generated_Source\PSoC4/CapSense_1.c ****         uint8 snsNumber;
 981:Generated_Source\PSoC4/CapSense_1.c ****         const uint8 *index;
 982:Generated_Source\PSoC4/CapSense_1.c **** 
 983:Generated_Source\PSoC4/CapSense_1.c ****         /* Read sensor type: single or complex */
 984:Generated_Source\PSoC4/CapSense_1.c ****         uint8 snsType = CapSense_1_portTable[slot];
 985:Generated_Source\PSoC4/CapSense_1.c **** 
 986:Generated_Source\PSoC4/CapSense_1.c ****         /* Check if sensor is complex */
 987:Generated_Source\PSoC4/CapSense_1.c ****         if ((snsType & CapSense_1_COMPLEX_SS_FLAG) == 0u)
 988:Generated_Source\PSoC4/CapSense_1.c ****         {
 989:Generated_Source\PSoC4/CapSense_1.c ****             /* Disable sensor (single) */
ARM GAS  C:\Users\d4hhm\AppData\Local\Temp\ccLEMF4D.s 			page 37


 990:Generated_Source\PSoC4/CapSense_1.c ****             CapSense_1_DisableSensor(slot);
 991:Generated_Source\PSoC4/CapSense_1.c ****         }
 992:Generated_Source\PSoC4/CapSense_1.c ****         else
 993:Generated_Source\PSoC4/CapSense_1.c ****         {
 994:Generated_Source\PSoC4/CapSense_1.c ****             /* Disable complex sensor */
 995:Generated_Source\PSoC4/CapSense_1.c ****             snsType &= ~CapSense_1_COMPLEX_SS_FLAG;
 996:Generated_Source\PSoC4/CapSense_1.c ****             index = &CapSense_1_indexTable[snsType];
 997:Generated_Source\PSoC4/CapSense_1.c ****             snsNumber = CapSense_1_maskTable[slot];
 998:Generated_Source\PSoC4/CapSense_1.c **** 
 999:Generated_Source\PSoC4/CapSense_1.c ****             for (j=0; j < snsNumber; j++)
1000:Generated_Source\PSoC4/CapSense_1.c ****             {
1001:Generated_Source\PSoC4/CapSense_1.c ****                 CapSense_1_DisableSensor(index[j]);
1002:Generated_Source\PSoC4/CapSense_1.c ****             }
1003:Generated_Source\PSoC4/CapSense_1.c ****         }
1004:Generated_Source\PSoC4/CapSense_1.c ****     }
1005:Generated_Source\PSoC4/CapSense_1.c **** #endif  /* CapSense_1_IS_COMPLEX_SCANSLOTS */
1006:Generated_Source\PSoC4/CapSense_1.c **** 
1007:Generated_Source\PSoC4/CapSense_1.c **** 
1008:Generated_Source\PSoC4/CapSense_1.c **** /*******************************************************************************
1009:Generated_Source\PSoC4/CapSense_1.c **** * Function Name: CapSense_1_EnableSensor
1010:Generated_Source\PSoC4/CapSense_1.c **** ********************************************************************************
1011:Generated_Source\PSoC4/CapSense_1.c **** *
1012:Generated_Source\PSoC4/CapSense_1.c **** * Summary:
1013:Generated_Source\PSoC4/CapSense_1.c **** *  Configures the selected sensor to measure during the next measurement cycle.
1014:Generated_Source\PSoC4/CapSense_1.c **** *  The corresponding pins are set to Analog High-Z mode and connected to the
1015:Generated_Source\PSoC4/CapSense_1.c **** *  Analog Mux Bus. This also enables the comparator function.
1016:Generated_Source\PSoC4/CapSense_1.c **** *
1017:Generated_Source\PSoC4/CapSense_1.c **** * Parameters:
1018:Generated_Source\PSoC4/CapSense_1.c **** *  sensor:  Sensor number.
1019:Generated_Source\PSoC4/CapSense_1.c **** *
1020:Generated_Source\PSoC4/CapSense_1.c **** * Return:
1021:Generated_Source\PSoC4/CapSense_1.c **** *  None
1022:Generated_Source\PSoC4/CapSense_1.c **** *
1023:Generated_Source\PSoC4/CapSense_1.c **** * Global Variables:
1024:Generated_Source\PSoC4/CapSense_1.c **** *  CapSense_1_portTable[] - used to store the port number that pin
1025:Generated_Source\PSoC4/CapSense_1.c **** *  belongs to for each sensor.
1026:Generated_Source\PSoC4/CapSense_1.c **** *  CapSense_1_pinShiftTbl[] - used to store position of pin that
1027:Generated_Source\PSoC4/CapSense_1.c **** *  configured as sensor in port.
1028:Generated_Source\PSoC4/CapSense_1.c **** *  CapSense_1_prtSelTbl[] - Contains pointers to the HSIOM
1029:Generated_Source\PSoC4/CapSense_1.c **** *  registers for each port.
1030:Generated_Source\PSoC4/CapSense_1.c **** *  CapSense_1_PrtCfgTb[] - Contains pointers to the port config
1031:Generated_Source\PSoC4/CapSense_1.c **** *  registers for each port.
1032:Generated_Source\PSoC4/CapSense_1.c **** *
1033:Generated_Source\PSoC4/CapSense_1.c **** * Side Effects:
1034:Generated_Source\PSoC4/CapSense_1.c **** *  None
1035:Generated_Source\PSoC4/CapSense_1.c **** *
1036:Generated_Source\PSoC4/CapSense_1.c **** *******************************************************************************/
1037:Generated_Source\PSoC4/CapSense_1.c **** void CapSense_1_EnableSensor(uint32 sensor)
1038:Generated_Source\PSoC4/CapSense_1.c **** {
 1055              		.loc 1 1038 0
 1056              		.cfi_startproc
 1057              		@ args = 0, pretend = 0, frame = 24
 1058              		@ frame_needed = 1, uses_anonymous_args = 0
 1059 0000 90B5     		push	{r4, r7, lr}
 1060              		.cfi_def_cfa_offset 12
 1061              		.cfi_offset 4, -12
 1062              		.cfi_offset 7, -8
ARM GAS  C:\Users\d4hhm\AppData\Local\Temp\ccLEMF4D.s 			page 38


 1063              		.cfi_offset 14, -4
 1064 0002 87B0     		sub	sp, sp, #28
 1065              		.cfi_def_cfa_offset 40
 1066 0004 00AF     		add	r7, sp, #0
 1067              		.cfi_def_cfa_register 7
 1068 0006 7860     		str	r0, [r7, #4]
1039:Generated_Source\PSoC4/CapSense_1.c ****     uint8  pinModeShift;
1040:Generated_Source\PSoC4/CapSense_1.c ****     uint8  pinHSIOMShift;
1041:Generated_Source\PSoC4/CapSense_1.c ****     uint8 interruptState;
1042:Generated_Source\PSoC4/CapSense_1.c ****     uint32 newRegisterValue;
1043:Generated_Source\PSoC4/CapSense_1.c ****     uint32 port;
1044:Generated_Source\PSoC4/CapSense_1.c **** 
1045:Generated_Source\PSoC4/CapSense_1.c ****     port = (uint32) CapSense_1_portTable[sensor];
 1069              		.loc 1 1045 0
 1070 0008 0323     		movs	r3, #3
 1071 000a 7B61     		str	r3, [r7, #20]
1046:Generated_Source\PSoC4/CapSense_1.c ****     pinModeShift = CapSense_1_pinShiftTbl[sensor]  * CapSense_1_PC_PIN_CFG_SIZE;
 1072              		.loc 1 1046 0
 1073 000c 0423     		movs	r3, #4
 1074 000e 1322     		movs	r2, #19
 1075 0010 BA18     		adds	r2, r7, r2
 1076 0012 191C     		adds	r1, r3, #0
 1077 0014 0B1C     		adds	r3, r1, #0
 1078 0016 DB18     		adds	r3, r3, r3
 1079 0018 5B18     		adds	r3, r3, r1
 1080 001a 1370     		strb	r3, [r2]
1047:Generated_Source\PSoC4/CapSense_1.c ****     pinHSIOMShift = CapSense_1_pinShiftTbl[sensor] * CapSense_1_HSIOM_PIN_CFG_SIZE;
 1081              		.loc 1 1047 0
 1082 001c 0422     		movs	r2, #4
 1083 001e 1223     		movs	r3, #18
 1084 0020 FB18     		adds	r3, r7, r3
 1085 0022 9200     		lsls	r2, r2, #2
 1086 0024 1A70     		strb	r2, [r3]
1048:Generated_Source\PSoC4/CapSense_1.c **** 
1049:Generated_Source\PSoC4/CapSense_1.c ****     interruptState = CyEnterCriticalSection();
 1087              		.loc 1 1049 0
 1088 0026 1123     		movs	r3, #17
 1089 0028 FC18     		adds	r4, r7, r3
 1090 002a FFF7FEFF 		bl	CyEnterCriticalSection
 1091 002e 0300     		movs	r3, r0
 1092 0030 2370     		strb	r3, [r4]
1050:Generated_Source\PSoC4/CapSense_1.c **** 
1051:Generated_Source\PSoC4/CapSense_1.c ****     newRegisterValue = *CapSense_1_prtSelTbl[port];
 1093              		.loc 1 1051 0
 1094 0032 1D4B     		ldr	r3, .L64
 1095 0034 7A69     		ldr	r2, [r7, #20]
 1096 0036 9200     		lsls	r2, r2, #2
 1097 0038 D358     		ldr	r3, [r2, r3]
 1098 003a 1B68     		ldr	r3, [r3]
 1099 003c FB60     		str	r3, [r7, #12]
1052:Generated_Source\PSoC4/CapSense_1.c ****     newRegisterValue &= ~(CapSense_1_CSD_HSIOM_MASK << pinHSIOMShift);
 1100              		.loc 1 1052 0
 1101 003e 1223     		movs	r3, #18
 1102 0040 FB18     		adds	r3, r7, r3
 1103 0042 1B78     		ldrb	r3, [r3]
 1104 0044 0F22     		movs	r2, #15
 1105 0046 9A40     		lsls	r2, r2, r3
ARM GAS  C:\Users\d4hhm\AppData\Local\Temp\ccLEMF4D.s 			page 39


 1106 0048 1300     		movs	r3, r2
 1107 004a DA43     		mvns	r2, r3
 1108 004c FB68     		ldr	r3, [r7, #12]
 1109 004e 1340     		ands	r3, r2
 1110 0050 FB60     		str	r3, [r7, #12]
1053:Generated_Source\PSoC4/CapSense_1.c ****     newRegisterValue |= (uint32)((uint32)CapSense_1_CSD_SENSE_PORT_MODE << pinHSIOMShift);
 1111              		.loc 1 1053 0
 1112 0052 1223     		movs	r3, #18
 1113 0054 FB18     		adds	r3, r7, r3
 1114 0056 1B78     		ldrb	r3, [r3]
 1115 0058 0422     		movs	r2, #4
 1116 005a 9A40     		lsls	r2, r2, r3
 1117 005c 1300     		movs	r3, r2
 1118 005e FA68     		ldr	r2, [r7, #12]
 1119 0060 1343     		orrs	r3, r2
 1120 0062 FB60     		str	r3, [r7, #12]
1054:Generated_Source\PSoC4/CapSense_1.c **** 
1055:Generated_Source\PSoC4/CapSense_1.c ****     *CapSense_1_prtCfgTbl[port] &= (uint32)~((uint32)CapSense_1_CSD_PIN_MODE_MASK << pinModeShift);
 1121              		.loc 1 1055 0
 1122 0064 114B     		ldr	r3, .L64+4
 1123 0066 7A69     		ldr	r2, [r7, #20]
 1124 0068 9200     		lsls	r2, r2, #2
 1125 006a D358     		ldr	r3, [r2, r3]
 1126 006c 0F4A     		ldr	r2, .L64+4
 1127 006e 7969     		ldr	r1, [r7, #20]
 1128 0070 8900     		lsls	r1, r1, #2
 1129 0072 8A58     		ldr	r2, [r1, r2]
 1130 0074 1268     		ldr	r2, [r2]
 1131 0076 1321     		movs	r1, #19
 1132 0078 7918     		adds	r1, r7, r1
 1133 007a 0978     		ldrb	r1, [r1]
 1134 007c 0720     		movs	r0, #7
 1135 007e 8840     		lsls	r0, r0, r1
 1136 0080 0100     		movs	r1, r0
 1137 0082 C943     		mvns	r1, r1
 1138 0084 0A40     		ands	r2, r1
 1139 0086 1A60     		str	r2, [r3]
1056:Generated_Source\PSoC4/CapSense_1.c ****     *CapSense_1_prtSelTbl[port] = newRegisterValue;
 1140              		.loc 1 1056 0
 1141 0088 074B     		ldr	r3, .L64
 1142 008a 7A69     		ldr	r2, [r7, #20]
 1143 008c 9200     		lsls	r2, r2, #2
 1144 008e D358     		ldr	r3, [r2, r3]
 1145 0090 FA68     		ldr	r2, [r7, #12]
 1146 0092 1A60     		str	r2, [r3]
1057:Generated_Source\PSoC4/CapSense_1.c **** 
1058:Generated_Source\PSoC4/CapSense_1.c ****     CyExitCriticalSection(interruptState);
 1147              		.loc 1 1058 0
 1148 0094 1123     		movs	r3, #17
 1149 0096 FB18     		adds	r3, r7, r3
 1150 0098 1B78     		ldrb	r3, [r3]
 1151 009a 1800     		movs	r0, r3
 1152 009c FFF7FEFF 		bl	CyExitCriticalSection
1059:Generated_Source\PSoC4/CapSense_1.c **** }
 1153              		.loc 1 1059 0
 1154 00a0 C046     		nop
 1155 00a2 BD46     		mov	sp, r7
ARM GAS  C:\Users\d4hhm\AppData\Local\Temp\ccLEMF4D.s 			page 40


 1156 00a4 07B0     		add	sp, sp, #28
 1157              		@ sp needed
 1158 00a6 90BD     		pop	{r4, r7, pc}
 1159              	.L65:
 1160              		.align	2
 1161              	.L64:
 1162 00a8 00000000 		.word	CapSense_1_prtSelTbl
 1163 00ac 00000000 		.word	CapSense_1_prtCfgTbl
 1164              		.cfi_endproc
 1165              	.LFE48:
 1166              		.size	CapSense_1_EnableSensor, .-CapSense_1_EnableSensor
 1167              		.section	.text.CapSense_1_DisableSensor,"ax",%progbits
 1168              		.align	2
 1169              		.global	CapSense_1_DisableSensor
 1170              		.code	16
 1171              		.thumb_func
 1172              		.type	CapSense_1_DisableSensor, %function
 1173              	CapSense_1_DisableSensor:
 1174              	.LFB49:
1060:Generated_Source\PSoC4/CapSense_1.c **** 
1061:Generated_Source\PSoC4/CapSense_1.c **** 
1062:Generated_Source\PSoC4/CapSense_1.c **** /*******************************************************************************
1063:Generated_Source\PSoC4/CapSense_1.c **** * Function Name: CapSense_1_DisableSensor
1064:Generated_Source\PSoC4/CapSense_1.c **** ********************************************************************************
1065:Generated_Source\PSoC4/CapSense_1.c **** *
1066:Generated_Source\PSoC4/CapSense_1.c **** * Summary:
1067:Generated_Source\PSoC4/CapSense_1.c **** *  Disables the selected sensor. The corresponding pin is disconnected from the
1068:Generated_Source\PSoC4/CapSense_1.c **** *  Analog Mux Bus and connected to GND, High_Z or Shield electrode.
1069:Generated_Source\PSoC4/CapSense_1.c **** *
1070:Generated_Source\PSoC4/CapSense_1.c **** * Parameters:
1071:Generated_Source\PSoC4/CapSense_1.c **** *  sensor:  Sensor number
1072:Generated_Source\PSoC4/CapSense_1.c **** *
1073:Generated_Source\PSoC4/CapSense_1.c **** * Return:
1074:Generated_Source\PSoC4/CapSense_1.c **** *  None
1075:Generated_Source\PSoC4/CapSense_1.c **** *
1076:Generated_Source\PSoC4/CapSense_1.c **** * Global Variables:
1077:Generated_Source\PSoC4/CapSense_1.c **** *  CapSense_1_portTable[] - used to store the port number that pin
1078:Generated_Source\PSoC4/CapSense_1.c **** *  belongs to for each sensor.
1079:Generated_Source\PSoC4/CapSense_1.c **** *  CapSense_1_pinShiftTbl[] - used to store position of pin that
1080:Generated_Source\PSoC4/CapSense_1.c **** *  configured as a sensor in the port.
1081:Generated_Source\PSoC4/CapSense_1.c **** *  CapSense_1_prtSelTbl[] - Contains pointers to the HSIOM
1082:Generated_Source\PSoC4/CapSense_1.c **** *  registers for each port.
1083:Generated_Source\PSoC4/CapSense_1.c **** *  CapSense_1_PrtCfgTb[] - Contains pointers to the port config
1084:Generated_Source\PSoC4/CapSense_1.c **** *  registers for each port.
1085:Generated_Source\PSoC4/CapSense_1.c **** *
1086:Generated_Source\PSoC4/CapSense_1.c **** * Side Effects:
1087:Generated_Source\PSoC4/CapSense_1.c **** *  None
1088:Generated_Source\PSoC4/CapSense_1.c **** *
1089:Generated_Source\PSoC4/CapSense_1.c **** *******************************************************************************/
1090:Generated_Source\PSoC4/CapSense_1.c **** void CapSense_1_DisableSensor(uint32 sensor)
1091:Generated_Source\PSoC4/CapSense_1.c **** {
 1175              		.loc 1 1091 0
 1176              		.cfi_startproc
 1177              		@ args = 0, pretend = 0, frame = 32
 1178              		@ frame_needed = 1, uses_anonymous_args = 0
 1179 0000 90B5     		push	{r4, r7, lr}
 1180              		.cfi_def_cfa_offset 12
ARM GAS  C:\Users\d4hhm\AppData\Local\Temp\ccLEMF4D.s 			page 41


 1181              		.cfi_offset 4, -12
 1182              		.cfi_offset 7, -8
 1183              		.cfi_offset 14, -4
 1184 0002 89B0     		sub	sp, sp, #36
 1185              		.cfi_def_cfa_offset 48
 1186 0004 00AF     		add	r7, sp, #0
 1187              		.cfi_def_cfa_register 7
 1188 0006 7860     		str	r0, [r7, #4]
1092:Generated_Source\PSoC4/CapSense_1.c ****     uint8 interruptState;
1093:Generated_Source\PSoC4/CapSense_1.c ****     uint32 newRegisterValue;
1094:Generated_Source\PSoC4/CapSense_1.c **** 
1095:Generated_Source\PSoC4/CapSense_1.c ****     uint32 port = (uint32) CapSense_1_portTable[sensor];
 1189              		.loc 1 1095 0
 1190 0008 0323     		movs	r3, #3
 1191 000a BB61     		str	r3, [r7, #24]
1096:Generated_Source\PSoC4/CapSense_1.c ****     uint8  pinHSIOMShift = CapSense_1_pinShiftTbl[sensor] * CapSense_1_HSIOM_PIN_CFG_SIZE;
 1192              		.loc 1 1096 0
 1193 000c 0422     		movs	r2, #4
 1194 000e 1723     		movs	r3, #23
 1195 0010 FB18     		adds	r3, r7, r3
 1196 0012 9200     		lsls	r2, r2, #2
 1197 0014 1A70     		strb	r2, [r3]
1097:Generated_Source\PSoC4/CapSense_1.c ****     uint8  pinModeShift = CapSense_1_pinShiftTbl[sensor]  * CapSense_1_PC_PIN_CFG_SIZE;
 1198              		.loc 1 1097 0
 1199 0016 0423     		movs	r3, #4
 1200 0018 1622     		movs	r2, #22
 1201 001a BA18     		adds	r2, r7, r2
 1202 001c 191C     		adds	r1, r3, #0
 1203 001e 0B1C     		adds	r3, r1, #0
 1204 0020 DB18     		adds	r3, r3, r3
 1205 0022 5B18     		adds	r3, r3, r1
 1206 0024 1370     		strb	r3, [r2]
1098:Generated_Source\PSoC4/CapSense_1.c **** 
1099:Generated_Source\PSoC4/CapSense_1.c ****     uint32 inactiveConnect = CapSense_1_SNS_HIZANALOG_CONNECT;
 1207              		.loc 1 1099 0
 1208 0026 0023     		movs	r3, #0
 1209 0028 FB61     		str	r3, [r7, #28]
1100:Generated_Source\PSoC4/CapSense_1.c ****     uint32 sensorState = CapSense_1_unscannedSnsDriveMode[sensor];
 1210              		.loc 1 1100 0
 1211 002a 384A     		ldr	r2, .L71
 1212 002c 7B68     		ldr	r3, [r7, #4]
 1213 002e D318     		adds	r3, r2, r3
 1214 0030 1B78     		ldrb	r3, [r3]
 1215 0032 3B61     		str	r3, [r7, #16]
1101:Generated_Source\PSoC4/CapSense_1.c **** 
1102:Generated_Source\PSoC4/CapSense_1.c ****     *CapSense_1_prtSelTbl[port] &= ~(CapSense_1_CSD_HSIOM_MASK << pinHSIOMShift);
 1216              		.loc 1 1102 0
 1217 0034 364B     		ldr	r3, .L71+4
 1218 0036 BA69     		ldr	r2, [r7, #24]
 1219 0038 9200     		lsls	r2, r2, #2
 1220 003a D358     		ldr	r3, [r2, r3]
 1221 003c 344A     		ldr	r2, .L71+4
 1222 003e B969     		ldr	r1, [r7, #24]
 1223 0040 8900     		lsls	r1, r1, #2
 1224 0042 8A58     		ldr	r2, [r1, r2]
 1225 0044 1268     		ldr	r2, [r2]
 1226 0046 1721     		movs	r1, #23
ARM GAS  C:\Users\d4hhm\AppData\Local\Temp\ccLEMF4D.s 			page 42


 1227 0048 7918     		adds	r1, r7, r1
 1228 004a 0978     		ldrb	r1, [r1]
 1229 004c 0F20     		movs	r0, #15
 1230 004e 8840     		lsls	r0, r0, r1
 1231 0050 0100     		movs	r1, r0
 1232 0052 C943     		mvns	r1, r1
 1233 0054 0A40     		ands	r2, r1
 1234 0056 1A60     		str	r2, [r3]
1103:Generated_Source\PSoC4/CapSense_1.c **** 
1104:Generated_Source\PSoC4/CapSense_1.c ****     #if(CapSense_1_IS_SHIELD_ENABLE != 0)
1105:Generated_Source\PSoC4/CapSense_1.c ****     if(sensorState != (uint32)CapSense_1__SHIELD)
 1235              		.loc 1 1105 0
 1236 0058 3B69     		ldr	r3, [r7, #16]
 1237 005a 022B     		cmp	r3, #2
 1238 005c 40D0     		beq	.L67
1106:Generated_Source\PSoC4/CapSense_1.c ****     {
1107:Generated_Source\PSoC4/CapSense_1.c ****     #else
1108:Generated_Source\PSoC4/CapSense_1.c ****         /* Connected to Ground if shield is disabled */
1109:Generated_Source\PSoC4/CapSense_1.c ****         if(sensorState == (uint32)CapSense_1__SHIELD)
1110:Generated_Source\PSoC4/CapSense_1.c ****         {
1111:Generated_Source\PSoC4/CapSense_1.c ****             sensorState = (uint32)CapSense_1__GROUND;
1112:Generated_Source\PSoC4/CapSense_1.c ****         }
1113:Generated_Source\PSoC4/CapSense_1.c ****     #endif /* (CapSense_1_IS_SHIELD_ENABLE) */
1114:Generated_Source\PSoC4/CapSense_1.c ****         if(sensorState != (uint32)CapSense_1__HIZ_ANALOG)
 1239              		.loc 1 1114 0
 1240 005e 3B69     		ldr	r3, [r7, #16]
 1241 0060 012B     		cmp	r3, #1
 1242 0062 01D0     		beq	.L68
1115:Generated_Source\PSoC4/CapSense_1.c ****         {
1116:Generated_Source\PSoC4/CapSense_1.c ****             /* Connected to Ground */
1117:Generated_Source\PSoC4/CapSense_1.c ****             inactiveConnect = (uint32)CapSense_1_SNS_GROUND_CONNECT;
 1243              		.loc 1 1117 0
 1244 0064 0623     		movs	r3, #6
 1245 0066 FB61     		str	r3, [r7, #28]
 1246              	.L68:
1118:Generated_Source\PSoC4/CapSense_1.c ****         }
1119:Generated_Source\PSoC4/CapSense_1.c **** 
1120:Generated_Source\PSoC4/CapSense_1.c ****         interruptState = CyEnterCriticalSection();
 1247              		.loc 1 1120 0
 1248 0068 0F23     		movs	r3, #15
 1249 006a FC18     		adds	r4, r7, r3
 1250 006c FFF7FEFF 		bl	CyEnterCriticalSection
 1251 0070 0300     		movs	r3, r0
 1252 0072 2370     		strb	r3, [r4]
1121:Generated_Source\PSoC4/CapSense_1.c **** 
1122:Generated_Source\PSoC4/CapSense_1.c ****         /* Set drive mode */
1123:Generated_Source\PSoC4/CapSense_1.c ****         newRegisterValue = *CapSense_1_prtCfgTbl[port];
 1253              		.loc 1 1123 0
 1254 0074 274B     		ldr	r3, .L71+8
 1255 0076 BA69     		ldr	r2, [r7, #24]
 1256 0078 9200     		lsls	r2, r2, #2
 1257 007a D358     		ldr	r3, [r2, r3]
 1258 007c 1B68     		ldr	r3, [r3]
 1259 007e BB60     		str	r3, [r7, #8]
1124:Generated_Source\PSoC4/CapSense_1.c ****         newRegisterValue &= ~(CapSense_1_CSD_PIN_MODE_MASK << pinModeShift);
 1260              		.loc 1 1124 0
 1261 0080 1623     		movs	r3, #22
ARM GAS  C:\Users\d4hhm\AppData\Local\Temp\ccLEMF4D.s 			page 43


 1262 0082 FB18     		adds	r3, r7, r3
 1263 0084 1B78     		ldrb	r3, [r3]
 1264 0086 0722     		movs	r2, #7
 1265 0088 9A40     		lsls	r2, r2, r3
 1266 008a 1300     		movs	r3, r2
 1267 008c DA43     		mvns	r2, r3
 1268 008e BB68     		ldr	r3, [r7, #8]
 1269 0090 1340     		ands	r3, r2
 1270 0092 BB60     		str	r3, [r7, #8]
1125:Generated_Source\PSoC4/CapSense_1.c ****         newRegisterValue |=  (uint32)(inactiveConnect << pinModeShift);
 1271              		.loc 1 1125 0
 1272 0094 1623     		movs	r3, #22
 1273 0096 FB18     		adds	r3, r7, r3
 1274 0098 1B78     		ldrb	r3, [r3]
 1275 009a FA69     		ldr	r2, [r7, #28]
 1276 009c 9A40     		lsls	r2, r2, r3
 1277 009e 1300     		movs	r3, r2
 1278 00a0 BA68     		ldr	r2, [r7, #8]
 1279 00a2 1343     		orrs	r3, r2
 1280 00a4 BB60     		str	r3, [r7, #8]
1126:Generated_Source\PSoC4/CapSense_1.c ****         *CapSense_1_prtCfgTbl[port] =  newRegisterValue;
 1281              		.loc 1 1126 0
 1282 00a6 1B4B     		ldr	r3, .L71+8
 1283 00a8 BA69     		ldr	r2, [r7, #24]
 1284 00aa 9200     		lsls	r2, r2, #2
 1285 00ac D358     		ldr	r3, [r2, r3]
 1286 00ae BA68     		ldr	r2, [r7, #8]
 1287 00b0 1A60     		str	r2, [r3]
1127:Generated_Source\PSoC4/CapSense_1.c **** 
1128:Generated_Source\PSoC4/CapSense_1.c ****         CyExitCriticalSection(interruptState);
 1288              		.loc 1 1128 0
 1289 00b2 0F23     		movs	r3, #15
 1290 00b4 FB18     		adds	r3, r7, r3
 1291 00b6 1B78     		ldrb	r3, [r3]
 1292 00b8 1800     		movs	r0, r3
 1293 00ba FFF7FEFF 		bl	CyExitCriticalSection
1129:Generated_Source\PSoC4/CapSense_1.c **** 
1130:Generated_Source\PSoC4/CapSense_1.c ****         *CapSense_1_prtDRTbl[port]  &=  (uint32)~(uint32)((uint32)1u << CapSense_1_pinShiftTbl[sens
 1294              		.loc 1 1130 0
 1295 00be 164B     		ldr	r3, .L71+12
 1296 00c0 BA69     		ldr	r2, [r7, #24]
 1297 00c2 9200     		lsls	r2, r2, #2
 1298 00c4 D358     		ldr	r3, [r2, r3]
 1299 00c6 144A     		ldr	r2, .L71+12
 1300 00c8 B969     		ldr	r1, [r7, #24]
 1301 00ca 8900     		lsls	r1, r1, #2
 1302 00cc 8A58     		ldr	r2, [r1, r2]
 1303 00ce 1268     		ldr	r2, [r2]
 1304 00d0 0421     		movs	r1, #4
 1305 00d2 0800     		movs	r0, r1
 1306 00d4 0121     		movs	r1, #1
 1307 00d6 8140     		lsls	r1, r1, r0
 1308 00d8 C943     		mvns	r1, r1
 1309 00da 0A40     		ands	r2, r1
 1310 00dc 1A60     		str	r2, [r3]
1131:Generated_Source\PSoC4/CapSense_1.c ****     #if(CapSense_1_IS_SHIELD_ENABLE != 0)
1132:Generated_Source\PSoC4/CapSense_1.c ****     }
ARM GAS  C:\Users\d4hhm\AppData\Local\Temp\ccLEMF4D.s 			page 44


1133:Generated_Source\PSoC4/CapSense_1.c ****     else
1134:Generated_Source\PSoC4/CapSense_1.c ****     {
1135:Generated_Source\PSoC4/CapSense_1.c ****         /* Connect to Shield */
1136:Generated_Source\PSoC4/CapSense_1.c ****         *CapSense_1_prtSelTbl[port] |= (CapSense_1_CSD_SHIELD_PORT_MODE << pinHSIOMShift);
1137:Generated_Source\PSoC4/CapSense_1.c ****     }
1138:Generated_Source\PSoC4/CapSense_1.c ****     #endif /* (CapSense_1_IS_SHIELD_ENABLE) */
1139:Generated_Source\PSoC4/CapSense_1.c **** }
 1311              		.loc 1 1139 0
 1312 00de 10E0     		b	.L70
 1313              	.L67:
1136:Generated_Source\PSoC4/CapSense_1.c ****     }
 1314              		.loc 1 1136 0
 1315 00e0 0B4B     		ldr	r3, .L71+4
 1316 00e2 BA69     		ldr	r2, [r7, #24]
 1317 00e4 9200     		lsls	r2, r2, #2
 1318 00e6 D358     		ldr	r3, [r2, r3]
 1319 00e8 094A     		ldr	r2, .L71+4
 1320 00ea B969     		ldr	r1, [r7, #24]
 1321 00ec 8900     		lsls	r1, r1, #2
 1322 00ee 8A58     		ldr	r2, [r1, r2]
 1323 00f0 1168     		ldr	r1, [r2]
 1324 00f2 1722     		movs	r2, #23
 1325 00f4 BA18     		adds	r2, r7, r2
 1326 00f6 1278     		ldrb	r2, [r2]
 1327 00f8 0520     		movs	r0, #5
 1328 00fa 9040     		lsls	r0, r0, r2
 1329 00fc 0200     		movs	r2, r0
 1330 00fe 0A43     		orrs	r2, r1
 1331 0100 1A60     		str	r2, [r3]
 1332              	.L70:
 1333              		.loc 1 1139 0
 1334 0102 C046     		nop
 1335 0104 BD46     		mov	sp, r7
 1336 0106 09B0     		add	sp, sp, #36
 1337              		@ sp needed
 1338 0108 90BD     		pop	{r4, r7, pc}
 1339              	.L72:
 1340 010a C046     		.align	2
 1341              	.L71:
 1342 010c 00000000 		.word	CapSense_1_unscannedSnsDriveMode
 1343 0110 00000000 		.word	CapSense_1_prtSelTbl
 1344 0114 00000000 		.word	CapSense_1_prtCfgTbl
 1345 0118 00000000 		.word	CapSense_1_prtDRTbl
 1346              		.cfi_endproc
 1347              	.LFE49:
 1348              		.size	CapSense_1_DisableSensor, .-CapSense_1_DisableSensor
 1349              		.section	.text.CapSense_1_SetDriveModeAllPins,"ax",%progbits
 1350              		.align	2
 1351              		.global	CapSense_1_SetDriveModeAllPins
 1352              		.code	16
 1353              		.thumb_func
 1354              		.type	CapSense_1_SetDriveModeAllPins, %function
 1355              	CapSense_1_SetDriveModeAllPins:
 1356              	.LFB50:
1140:Generated_Source\PSoC4/CapSense_1.c **** 
1141:Generated_Source\PSoC4/CapSense_1.c **** 
1142:Generated_Source\PSoC4/CapSense_1.c **** /*******************************************************************************
ARM GAS  C:\Users\d4hhm\AppData\Local\Temp\ccLEMF4D.s 			page 45


1143:Generated_Source\PSoC4/CapSense_1.c **** * Function Name: CapSense_1_SetDriveModeAllPins
1144:Generated_Source\PSoC4/CapSense_1.c **** ********************************************************************************
1145:Generated_Source\PSoC4/CapSense_1.c **** *
1146:Generated_Source\PSoC4/CapSense_1.c **** * Summary:
1147:Generated_Source\PSoC4/CapSense_1.c **** * This API sets the drive mode of port pins used by the CapSense
1148:Generated_Source\PSoC4/CapSense_1.c **** * component (sensors, guard, shield, shield tank and Cmod) to drive the
1149:Generated_Source\PSoC4/CapSense_1.c **** * mode specified by the argument.
1150:Generated_Source\PSoC4/CapSense_1.c **** *
1151:Generated_Source\PSoC4/CapSense_1.c **** * Parameters:
1152:Generated_Source\PSoC4/CapSense_1.c **** *  driveMode:  Drive mode definition.
1153:Generated_Source\PSoC4/CapSense_1.c **** *
1154:Generated_Source\PSoC4/CapSense_1.c **** * Return:
1155:Generated_Source\PSoC4/CapSense_1.c **** *  None
1156:Generated_Source\PSoC4/CapSense_1.c **** *
1157:Generated_Source\PSoC4/CapSense_1.c **** * Global Variables:
1158:Generated_Source\PSoC4/CapSense_1.c **** *  CapSense_1_portTable[] - used to store the port number that pin
1159:Generated_Source\PSoC4/CapSense_1.c **** *  belongs to for each sensor.
1160:Generated_Source\PSoC4/CapSense_1.c **** *  CapSense_1_pinShiftTbl[] - used to store position of pin that
1161:Generated_Source\PSoC4/CapSense_1.c **** *  configured as a sensor in the port.
1162:Generated_Source\PSoC4/CapSense_1.c **** *
1163:Generated_Source\PSoC4/CapSense_1.c **** * Side Effects:
1164:Generated_Source\PSoC4/CapSense_1.c **** *  This API shall be called only after CapSense component is stopped.
1165:Generated_Source\PSoC4/CapSense_1.c **** *
1166:Generated_Source\PSoC4/CapSense_1.c **** *******************************************************************************/
1167:Generated_Source\PSoC4/CapSense_1.c **** void CapSense_1_SetDriveModeAllPins(uint32 driveMode)
1168:Generated_Source\PSoC4/CapSense_1.c **** {
 1357              		.loc 1 1168 0
 1358              		.cfi_startproc
 1359              		@ args = 0, pretend = 0, frame = 24
 1360              		@ frame_needed = 1, uses_anonymous_args = 0
 1361 0000 80B5     		push	{r7, lr}
 1362              		.cfi_def_cfa_offset 8
 1363              		.cfi_offset 7, -8
 1364              		.cfi_offset 14, -4
 1365 0002 86B0     		sub	sp, sp, #24
 1366              		.cfi_def_cfa_offset 32
 1367 0004 00AF     		add	r7, sp, #0
 1368              		.cfi_def_cfa_register 7
 1369 0006 7860     		str	r0, [r7, #4]
1169:Generated_Source\PSoC4/CapSense_1.c ****     uint8 curSensor;
1170:Generated_Source\PSoC4/CapSense_1.c ****     #if (CapSense_1_IS_COMPLEX_SCANSLOTS)
1171:Generated_Source\PSoC4/CapSense_1.c ****         uint8 snsNumber;
1172:Generated_Source\PSoC4/CapSense_1.c ****         uint8 snsType;
1173:Generated_Source\PSoC4/CapSense_1.c ****     #endif  /* CapSense_1_IS_COMPLEX_SCANSLOTS */
1174:Generated_Source\PSoC4/CapSense_1.c ****     uint32 prtNumberTmp;
1175:Generated_Source\PSoC4/CapSense_1.c ****     uint32 pinNumberTmp;
1176:Generated_Source\PSoC4/CapSense_1.c **** 
1177:Generated_Source\PSoC4/CapSense_1.c ****     for(curSensor = 0u; curSensor < CapSense_1_TOTAL_SENSOR_COUNT; curSensor++)
 1370              		.loc 1 1177 0
 1371 0008 1723     		movs	r3, #23
 1372 000a FB18     		adds	r3, r7, r3
 1373 000c 0022     		movs	r2, #0
 1374 000e 1A70     		strb	r2, [r3]
 1375 0010 10E0     		b	.L74
 1376              	.L75:
1178:Generated_Source\PSoC4/CapSense_1.c ****     {
1179:Generated_Source\PSoC4/CapSense_1.c ****         #if (CapSense_1_IS_COMPLEX_SCANSLOTS)
ARM GAS  C:\Users\d4hhm\AppData\Local\Temp\ccLEMF4D.s 			page 46


1180:Generated_Source\PSoC4/CapSense_1.c ****             /* Read sensor type: single or complex */
1181:Generated_Source\PSoC4/CapSense_1.c ****             snsType = CapSense_1_portTable[curSensor];
1182:Generated_Source\PSoC4/CapSense_1.c **** 
1183:Generated_Source\PSoC4/CapSense_1.c ****             /* Check if sensor is complex */
1184:Generated_Source\PSoC4/CapSense_1.c ****             if ((snsType & CapSense_1_COMPLEX_SS_FLAG) == 0u)
1185:Generated_Source\PSoC4/CapSense_1.c ****             {
1186:Generated_Source\PSoC4/CapSense_1.c ****                 /* The sensor is not complex */
1187:Generated_Source\PSoC4/CapSense_1.c ****                 snsNumber = curSensor;
1188:Generated_Source\PSoC4/CapSense_1.c ****             }
1189:Generated_Source\PSoC4/CapSense_1.c ****             else
1190:Generated_Source\PSoC4/CapSense_1.c ****             {
1191:Generated_Source\PSoC4/CapSense_1.c ****                 /* Get dedicated sensor ID of the complex sensor */
1192:Generated_Source\PSoC4/CapSense_1.c ****                 snsType &= ~CapSense_1_COMPLEX_SS_FLAG;
1193:Generated_Source\PSoC4/CapSense_1.c ****                 snsNumber = CapSense_1_indexTable[snsType];
1194:Generated_Source\PSoC4/CapSense_1.c ****             }
1195:Generated_Source\PSoC4/CapSense_1.c **** 
1196:Generated_Source\PSoC4/CapSense_1.c ****             prtNumberTmp = CapSense_1_portTable[snsNumber];
1197:Generated_Source\PSoC4/CapSense_1.c ****             pinNumberTmp = CapSense_1_pinShiftTbl[snsNumber];
1198:Generated_Source\PSoC4/CapSense_1.c ****         #else
1199:Generated_Source\PSoC4/CapSense_1.c ****             prtNumberTmp = CapSense_1_portTable[curSensor];
 1377              		.loc 1 1199 0 discriminator 3
 1378 0012 0323     		movs	r3, #3
 1379 0014 3B61     		str	r3, [r7, #16]
1200:Generated_Source\PSoC4/CapSense_1.c ****             pinNumberTmp = CapSense_1_pinShiftTbl[curSensor];
 1380              		.loc 1 1200 0 discriminator 3
 1381 0016 0423     		movs	r3, #4
 1382 0018 FB60     		str	r3, [r7, #12]
1201:Generated_Source\PSoC4/CapSense_1.c ****         #endif  /* CapSense_1_IS_COMPLEX_SCANSLOTS */
1202:Generated_Source\PSoC4/CapSense_1.c **** 
1203:Generated_Source\PSoC4/CapSense_1.c ****         CapSense_1_SetPinDriveMode(driveMode, pinNumberTmp, prtNumberTmp);
 1383              		.loc 1 1203 0 discriminator 3
 1384 001a 3A69     		ldr	r2, [r7, #16]
 1385 001c F968     		ldr	r1, [r7, #12]
 1386 001e 7B68     		ldr	r3, [r7, #4]
 1387 0020 1800     		movs	r0, r3
 1388 0022 FFF7FEFF 		bl	CapSense_1_SetPinDriveMode
1177:Generated_Source\PSoC4/CapSense_1.c ****     {
 1389              		.loc 1 1177 0 discriminator 3
 1390 0026 1723     		movs	r3, #23
 1391 0028 FB18     		adds	r3, r7, r3
 1392 002a 1A78     		ldrb	r2, [r3]
 1393 002c 1723     		movs	r3, #23
 1394 002e FB18     		adds	r3, r7, r3
 1395 0030 0132     		adds	r2, r2, #1
 1396 0032 1A70     		strb	r2, [r3]
 1397              	.L74:
1177:Generated_Source\PSoC4/CapSense_1.c ****     {
 1398              		.loc 1 1177 0 is_stmt 0 discriminator 1
 1399 0034 1723     		movs	r3, #23
 1400 0036 FB18     		adds	r3, r7, r3
 1401 0038 1B78     		ldrb	r3, [r3]
 1402 003a 002B     		cmp	r3, #0
 1403 003c E9D0     		beq	.L75
1204:Generated_Source\PSoC4/CapSense_1.c ****     }
1205:Generated_Source\PSoC4/CapSense_1.c **** 
1206:Generated_Source\PSoC4/CapSense_1.c ****     CapSense_1_SetPinDriveMode(driveMode, (uint32)CapSense_1_CMOD_PIN_NUMBER, (uint32)CapSense_1_CM
 1404              		.loc 1 1206 0 is_stmt 1
ARM GAS  C:\Users\d4hhm\AppData\Local\Temp\ccLEMF4D.s 			page 47


 1405 003e 7B68     		ldr	r3, [r7, #4]
 1406 0040 0422     		movs	r2, #4
 1407 0042 0021     		movs	r1, #0
 1408 0044 1800     		movs	r0, r3
 1409 0046 FFF7FEFF 		bl	CapSense_1_SetPinDriveMode
1207:Generated_Source\PSoC4/CapSense_1.c **** 
1208:Generated_Source\PSoC4/CapSense_1.c ****     #if(0u != CapSense_1_CSH_TANK_ENABLE)
1209:Generated_Source\PSoC4/CapSense_1.c ****         CapSense_1_SetPinDriveMode(driveMode, (uint32)CapSense_1_CTANK_PIN_NUMBER, (uint32)CapSense
1210:Generated_Source\PSoC4/CapSense_1.c ****     #endif /* (0u != CapSense_1_CSH_TANK_ENABLE) */
1211:Generated_Source\PSoC4/CapSense_1.c **** 
1212:Generated_Source\PSoC4/CapSense_1.c ****     #if(0u != CapSense_1_IS_SHIELD_ENABLE)
1213:Generated_Source\PSoC4/CapSense_1.c ****         CapSense_1_SetPinDriveMode(driveMode, (uint32)CapSense_1_SHIELD_PIN_NUMBER, (uint32)CapSens
 1410              		.loc 1 1213 0
 1411 004a 7B68     		ldr	r3, [r7, #4]
 1412 004c 0322     		movs	r2, #3
 1413 004e 0721     		movs	r1, #7
 1414 0050 1800     		movs	r0, r3
 1415 0052 FFF7FEFF 		bl	CapSense_1_SetPinDriveMode
1214:Generated_Source\PSoC4/CapSense_1.c ****     #endif /* (0u != CapSense_1_IS_SHIELD_ENABLE) */
1215:Generated_Source\PSoC4/CapSense_1.c **** }
 1416              		.loc 1 1215 0
 1417 0056 C046     		nop
 1418 0058 BD46     		mov	sp, r7
 1419 005a 06B0     		add	sp, sp, #24
 1420              		@ sp needed
 1421 005c 80BD     		pop	{r7, pc}
 1422              		.cfi_endproc
 1423              	.LFE50:
 1424              		.size	CapSense_1_SetDriveModeAllPins, .-CapSense_1_SetDriveModeAllPins
 1425              		.section	.text.CapSense_1_RestoreDriveModeAllPins,"ax",%progbits
 1426              		.align	2
 1427              		.global	CapSense_1_RestoreDriveModeAllPins
 1428              		.code	16
 1429              		.thumb_func
 1430              		.type	CapSense_1_RestoreDriveModeAllPins, %function
 1431              	CapSense_1_RestoreDriveModeAllPins:
 1432              	.LFB51:
1216:Generated_Source\PSoC4/CapSense_1.c **** 
1217:Generated_Source\PSoC4/CapSense_1.c **** 
1218:Generated_Source\PSoC4/CapSense_1.c **** /*******************************************************************************
1219:Generated_Source\PSoC4/CapSense_1.c **** * Function Name: CapSense_1_RestoreDriveModeAllPins
1220:Generated_Source\PSoC4/CapSense_1.c **** ********************************************************************************
1221:Generated_Source\PSoC4/CapSense_1.c **** *
1222:Generated_Source\PSoC4/CapSense_1.c **** * Summary:
1223:Generated_Source\PSoC4/CapSense_1.c **** *  This API restores the drive for all the CapSense port pins to the original
1224:Generated_Source\PSoC4/CapSense_1.c **** *  state.
1225:Generated_Source\PSoC4/CapSense_1.c **** *
1226:Generated_Source\PSoC4/CapSense_1.c **** * Parameters:
1227:Generated_Source\PSoC4/CapSense_1.c **** *  None
1228:Generated_Source\PSoC4/CapSense_1.c **** *
1229:Generated_Source\PSoC4/CapSense_1.c **** * Return:
1230:Generated_Source\PSoC4/CapSense_1.c **** *  None
1231:Generated_Source\PSoC4/CapSense_1.c **** *
1232:Generated_Source\PSoC4/CapSense_1.c **** * Global Variables:
1233:Generated_Source\PSoC4/CapSense_1.c **** *  CapSense_1_prtSelTbl[] - Contains pointers to the HSIOM
1234:Generated_Source\PSoC4/CapSense_1.c **** *  registers for each port.
1235:Generated_Source\PSoC4/CapSense_1.c **** *
ARM GAS  C:\Users\d4hhm\AppData\Local\Temp\ccLEMF4D.s 			page 48


1236:Generated_Source\PSoC4/CapSense_1.c **** * Side Effects:
1237:Generated_Source\PSoC4/CapSense_1.c **** *  This API is called only after the CapSense component is stopped.
1238:Generated_Source\PSoC4/CapSense_1.c **** *
1239:Generated_Source\PSoC4/CapSense_1.c **** *******************************************************************************/
1240:Generated_Source\PSoC4/CapSense_1.c **** void CapSense_1_RestoreDriveModeAllPins(void)
1241:Generated_Source\PSoC4/CapSense_1.c **** {
 1433              		.loc 1 1241 0
 1434              		.cfi_startproc
 1435              		@ args = 0, pretend = 0, frame = 8
 1436              		@ frame_needed = 1, uses_anonymous_args = 0
 1437 0000 80B5     		push	{r7, lr}
 1438              		.cfi_def_cfa_offset 8
 1439              		.cfi_offset 7, -8
 1440              		.cfi_offset 14, -4
 1441 0002 82B0     		sub	sp, sp, #8
 1442              		.cfi_def_cfa_offset 16
 1443 0004 00AF     		add	r7, sp, #0
 1444              		.cfi_def_cfa_register 7
1242:Generated_Source\PSoC4/CapSense_1.c ****     uint32 newRegisterValue;
1243:Generated_Source\PSoC4/CapSense_1.c **** 
1244:Generated_Source\PSoC4/CapSense_1.c ****     CapSense_1_SetDriveModeAllPins(CY_SYS_PINS_DM_ALG_HIZ);
 1445              		.loc 1 1244 0
 1446 0006 0020     		movs	r0, #0
 1447 0008 FFF7FEFF 		bl	CapSense_1_SetDriveModeAllPins
1245:Generated_Source\PSoC4/CapSense_1.c **** 
1246:Generated_Source\PSoC4/CapSense_1.c ****     newRegisterValue = CapSense_1_CMOD_CONNECTION_REG;
 1448              		.loc 1 1246 0
 1449 000c 104B     		ldr	r3, .L77
 1450 000e 1B68     		ldr	r3, [r3]
 1451 0010 7B60     		str	r3, [r7, #4]
1247:Generated_Source\PSoC4/CapSense_1.c ****     newRegisterValue &= ~(CapSense_1_CSD_CMOD_CONNECTION_MASK);
 1452              		.loc 1 1247 0
 1453 0012 7B68     		ldr	r3, [r7, #4]
 1454 0014 0F22     		movs	r2, #15
 1455 0016 9343     		bics	r3, r2
 1456 0018 7B60     		str	r3, [r7, #4]
1248:Generated_Source\PSoC4/CapSense_1.c ****     newRegisterValue |= CapSense_1_CSD_CMOD_TO_AMUXBUS_A;
 1457              		.loc 1 1248 0
 1458 001a 7B68     		ldr	r3, [r7, #4]
 1459 001c 0622     		movs	r2, #6
 1460 001e 1343     		orrs	r3, r2
 1461 0020 7B60     		str	r3, [r7, #4]
1249:Generated_Source\PSoC4/CapSense_1.c ****     CapSense_1_CMOD_CONNECTION_REG = newRegisterValue;
 1462              		.loc 1 1249 0
 1463 0022 0B4B     		ldr	r3, .L77
 1464 0024 7A68     		ldr	r2, [r7, #4]
 1465 0026 1A60     		str	r2, [r3]
1250:Generated_Source\PSoC4/CapSense_1.c **** 
1251:Generated_Source\PSoC4/CapSense_1.c ****     #if(0u != CapSense_1_CSH_TANK_ENABLE)
1252:Generated_Source\PSoC4/CapSense_1.c ****         newRegisterValue = CapSense_1_CTANK_CONNECTION_REG;
1253:Generated_Source\PSoC4/CapSense_1.c ****         newRegisterValue &= ~(CapSense_1_CSD_CTANK_CONNECTION_MASK);
1254:Generated_Source\PSoC4/CapSense_1.c ****         newRegisterValue |= CapSense_1_CSD_CTANK_TO_AMUXBUS_B;
1255:Generated_Source\PSoC4/CapSense_1.c ****         CapSense_1_CTANK_CONNECTION_REG = newRegisterValue;
1256:Generated_Source\PSoC4/CapSense_1.c ****     #endif/* (0u != CapSense_1_CSH_TANK_ENABLE) */
1257:Generated_Source\PSoC4/CapSense_1.c **** 
1258:Generated_Source\PSoC4/CapSense_1.c ****     #if(0u != CapSense_1_IS_SHIELD_ENABLE)
1259:Generated_Source\PSoC4/CapSense_1.c ****         newRegisterValue = *CapSense_1_prtSelTbl[CapSense_1_SHIELD_PORT_NUMBER];
ARM GAS  C:\Users\d4hhm\AppData\Local\Temp\ccLEMF4D.s 			page 49


 1466              		.loc 1 1259 0
 1467 0028 0A4B     		ldr	r3, .L77+4
 1468 002a 1B68     		ldr	r3, [r3]
 1469 002c 7B60     		str	r3, [r7, #4]
1260:Generated_Source\PSoC4/CapSense_1.c ****         newRegisterValue &= ~(CapSense_1_CSD_HSIOM_MASK << ((uint32)CapSense_1_SHIELD_PIN_NUMBER * 
 1470              		.loc 1 1260 0
 1471 002e 7B68     		ldr	r3, [r7, #4]
 1472 0030 1B01     		lsls	r3, r3, #4
 1473 0032 1B09     		lsrs	r3, r3, #4
 1474 0034 7B60     		str	r3, [r7, #4]
1261:Generated_Source\PSoC4/CapSense_1.c ****         newRegisterValue |= (CapSense_1_CSD_SHIELD_PORT_MODE << ((uint32)CapSense_1_SHIELD_PIN_NUMB
 1475              		.loc 1 1261 0
 1476 0036 7B68     		ldr	r3, [r7, #4]
 1477 0038 A022     		movs	r2, #160
 1478 003a D205     		lsls	r2, r2, #23
 1479 003c 1343     		orrs	r3, r2
 1480 003e 7B60     		str	r3, [r7, #4]
1262:Generated_Source\PSoC4/CapSense_1.c ****         *CapSense_1_prtSelTbl[CapSense_1_SHIELD_PORT_NUMBER] = newRegisterValue;
 1481              		.loc 1 1262 0
 1482 0040 044B     		ldr	r3, .L77+4
 1483 0042 7A68     		ldr	r2, [r7, #4]
 1484 0044 1A60     		str	r2, [r3]
1263:Generated_Source\PSoC4/CapSense_1.c ****     #endif /* (0u != CapSense_1_IS_SHIELD_ENABLE) */
1264:Generated_Source\PSoC4/CapSense_1.c **** }
 1485              		.loc 1 1264 0
 1486 0046 C046     		nop
 1487 0048 BD46     		mov	sp, r7
 1488 004a 02B0     		add	sp, sp, #8
 1489              		@ sp needed
 1490 004c 80BD     		pop	{r7, pc}
 1491              	.L78:
 1492 004e C046     		.align	2
 1493              	.L77:
 1494 0050 00040240 		.word	1073873920
 1495 0054 00030240 		.word	1073873664
 1496              		.cfi_endproc
 1497              	.LFE51:
 1498              		.size	CapSense_1_RestoreDriveModeAllPins, .-CapSense_1_RestoreDriveModeAllPins
 1499              		.section	.text.CapSense_1_SetPinDriveMode,"ax",%progbits
 1500              		.align	2
 1501              		.global	CapSense_1_SetPinDriveMode
 1502              		.code	16
 1503              		.thumb_func
 1504              		.type	CapSense_1_SetPinDriveMode, %function
 1505              	CapSense_1_SetPinDriveMode:
 1506              	.LFB52:
1265:Generated_Source\PSoC4/CapSense_1.c **** 
1266:Generated_Source\PSoC4/CapSense_1.c **** 
1267:Generated_Source\PSoC4/CapSense_1.c **** /*******************************************************************************
1268:Generated_Source\PSoC4/CapSense_1.c **** * Function Name: CapSense_1_SetPinDriveMode
1269:Generated_Source\PSoC4/CapSense_1.c **** ********************************************************************************
1270:Generated_Source\PSoC4/CapSense_1.c **** *
1271:Generated_Source\PSoC4/CapSense_1.c **** * Summary:
1272:Generated_Source\PSoC4/CapSense_1.c **** * This API sets the drive mode for the appropriate port/pin.
1273:Generated_Source\PSoC4/CapSense_1.c **** *
1274:Generated_Source\PSoC4/CapSense_1.c **** * Parameters:
1275:Generated_Source\PSoC4/CapSense_1.c **** *  driveMode:  Drive mode definition.
ARM GAS  C:\Users\d4hhm\AppData\Local\Temp\ccLEMF4D.s 			page 50


1276:Generated_Source\PSoC4/CapSense_1.c **** *  portNumber: contains port number (0, 1, 2).
1277:Generated_Source\PSoC4/CapSense_1.c **** *  pinNumber: contains pin number (0, 1, 2, ... , 7).
1278:Generated_Source\PSoC4/CapSense_1.c **** *
1279:Generated_Source\PSoC4/CapSense_1.c **** * Return:
1280:Generated_Source\PSoC4/CapSense_1.c **** *  None
1281:Generated_Source\PSoC4/CapSense_1.c **** *
1282:Generated_Source\PSoC4/CapSense_1.c **** * Global Variables:
1283:Generated_Source\PSoC4/CapSense_1.c **** *  CapSense_1_prtSelTbl[] - Contains pointers to the HSIOM
1284:Generated_Source\PSoC4/CapSense_1.c **** *  registers for each port.
1285:Generated_Source\PSoC4/CapSense_1.c **** *  CapSense_1_prtCfgTb[] - Contains pointers to the port config
1286:Generated_Source\PSoC4/CapSense_1.c **** *  registers for each port.
1287:Generated_Source\PSoC4/CapSense_1.c **** *
1288:Generated_Source\PSoC4/CapSense_1.c **** * Side Effects:
1289:Generated_Source\PSoC4/CapSense_1.c **** *  This API is called only after CapSense component is stopped.
1290:Generated_Source\PSoC4/CapSense_1.c **** *
1291:Generated_Source\PSoC4/CapSense_1.c **** *******************************************************************************/
1292:Generated_Source\PSoC4/CapSense_1.c **** void CapSense_1_SetPinDriveMode(uint32 driveMode, uint32 pinNumber, uint32 portNumber)
1293:Generated_Source\PSoC4/CapSense_1.c **** {
 1507              		.loc 1 1293 0
 1508              		.cfi_startproc
 1509              		@ args = 0, pretend = 0, frame = 24
 1510              		@ frame_needed = 1, uses_anonymous_args = 0
 1511 0000 80B5     		push	{r7, lr}
 1512              		.cfi_def_cfa_offset 8
 1513              		.cfi_offset 7, -8
 1514              		.cfi_offset 14, -4
 1515 0002 86B0     		sub	sp, sp, #24
 1516              		.cfi_def_cfa_offset 32
 1517 0004 00AF     		add	r7, sp, #0
 1518              		.cfi_def_cfa_register 7
 1519 0006 F860     		str	r0, [r7, #12]
 1520 0008 B960     		str	r1, [r7, #8]
 1521 000a 7A60     		str	r2, [r7, #4]
1294:Generated_Source\PSoC4/CapSense_1.c ****     uint32  pinModeShift;
1295:Generated_Source\PSoC4/CapSense_1.c ****     uint32 newRegisterValue;
1296:Generated_Source\PSoC4/CapSense_1.c **** 
1297:Generated_Source\PSoC4/CapSense_1.c ****     pinModeShift  = pinNumber * CapSense_1_PC_PIN_CFG_SIZE;
 1522              		.loc 1 1297 0
 1523 000c BA68     		ldr	r2, [r7, #8]
 1524 000e 1300     		movs	r3, r2
 1525 0010 5B00     		lsls	r3, r3, #1
 1526 0012 9B18     		adds	r3, r3, r2
 1527 0014 7B61     		str	r3, [r7, #20]
1298:Generated_Source\PSoC4/CapSense_1.c **** 
1299:Generated_Source\PSoC4/CapSense_1.c ****     newRegisterValue = *CapSense_1_prtCfgTbl[portNumber];
 1528              		.loc 1 1299 0
 1529 0016 0F4B     		ldr	r3, .L80
 1530 0018 7A68     		ldr	r2, [r7, #4]
 1531 001a 9200     		lsls	r2, r2, #2
 1532 001c D358     		ldr	r3, [r2, r3]
 1533 001e 1B68     		ldr	r3, [r3]
 1534 0020 3B61     		str	r3, [r7, #16]
1300:Generated_Source\PSoC4/CapSense_1.c ****     newRegisterValue &= ~(CapSense_1_CSD_PIN_MODE_MASK << pinModeShift);
 1535              		.loc 1 1300 0
 1536 0022 0722     		movs	r2, #7
 1537 0024 7B69     		ldr	r3, [r7, #20]
 1538 0026 9A40     		lsls	r2, r2, r3
ARM GAS  C:\Users\d4hhm\AppData\Local\Temp\ccLEMF4D.s 			page 51


 1539 0028 1300     		movs	r3, r2
 1540 002a DA43     		mvns	r2, r3
 1541 002c 3B69     		ldr	r3, [r7, #16]
 1542 002e 1340     		ands	r3, r2
 1543 0030 3B61     		str	r3, [r7, #16]
1301:Generated_Source\PSoC4/CapSense_1.c ****     newRegisterValue |=  (uint32)((uint32)driveMode << pinModeShift);
 1544              		.loc 1 1301 0
 1545 0032 FA68     		ldr	r2, [r7, #12]
 1546 0034 7B69     		ldr	r3, [r7, #20]
 1547 0036 9A40     		lsls	r2, r2, r3
 1548 0038 1300     		movs	r3, r2
 1549 003a 3A69     		ldr	r2, [r7, #16]
 1550 003c 1343     		orrs	r3, r2
 1551 003e 3B61     		str	r3, [r7, #16]
1302:Generated_Source\PSoC4/CapSense_1.c ****     *CapSense_1_prtCfgTbl[portNumber] =  newRegisterValue;
 1552              		.loc 1 1302 0
 1553 0040 044B     		ldr	r3, .L80
 1554 0042 7A68     		ldr	r2, [r7, #4]
 1555 0044 9200     		lsls	r2, r2, #2
 1556 0046 D358     		ldr	r3, [r2, r3]
 1557 0048 3A69     		ldr	r2, [r7, #16]
 1558 004a 1A60     		str	r2, [r3]
1303:Generated_Source\PSoC4/CapSense_1.c **** }
 1559              		.loc 1 1303 0
 1560 004c C046     		nop
 1561 004e BD46     		mov	sp, r7
 1562 0050 06B0     		add	sp, sp, #24
 1563              		@ sp needed
 1564 0052 80BD     		pop	{r7, pc}
 1565              	.L81:
 1566              		.align	2
 1567              	.L80:
 1568 0054 00000000 		.word	CapSense_1_prtCfgTbl
 1569              		.cfi_endproc
 1570              	.LFE52:
 1571              		.size	CapSense_1_SetPinDriveMode, .-CapSense_1_SetPinDriveMode
 1572              		.section	.text.CapSense_1_PreScan,"ax",%progbits
 1573              		.align	2
 1574              		.global	CapSense_1_PreScan
 1575              		.code	16
 1576              		.thumb_func
 1577              		.type	CapSense_1_PreScan, %function
 1578              	CapSense_1_PreScan:
 1579              	.LFB53:
1304:Generated_Source\PSoC4/CapSense_1.c **** 
1305:Generated_Source\PSoC4/CapSense_1.c **** 
1306:Generated_Source\PSoC4/CapSense_1.c **** /*******************************************************************************
1307:Generated_Source\PSoC4/CapSense_1.c **** * Function Name: CapSense_1_PreScan
1308:Generated_Source\PSoC4/CapSense_1.c **** ********************************************************************************
1309:Generated_Source\PSoC4/CapSense_1.c **** *
1310:Generated_Source\PSoC4/CapSense_1.c **** * Summary:
1311:Generated_Source\PSoC4/CapSense_1.c **** *  Sets required settings, enables a sensor, removes Vref from AMUX and starts the
1312:Generated_Source\PSoC4/CapSense_1.c **** *  scanning process of the sensor.
1313:Generated_Source\PSoC4/CapSense_1.c **** *
1314:Generated_Source\PSoC4/CapSense_1.c **** * Parameters:
1315:Generated_Source\PSoC4/CapSense_1.c **** *  sensor:  Sensor number.
1316:Generated_Source\PSoC4/CapSense_1.c **** *
ARM GAS  C:\Users\d4hhm\AppData\Local\Temp\ccLEMF4D.s 			page 52


1317:Generated_Source\PSoC4/CapSense_1.c **** * Return:
1318:Generated_Source\PSoC4/CapSense_1.c **** *  None
1319:Generated_Source\PSoC4/CapSense_1.c **** *
1320:Generated_Source\PSoC4/CapSense_1.c **** * Global Variables:
1321:Generated_Source\PSoC4/CapSense_1.c **** * CapSense_1_widgetNumber[] - This array contains numbers of widgets for each sensor.
1322:Generated_Source\PSoC4/CapSense_1.c **** * CapSense_1_widgetResolution[] - Contains the widget resolution.
1323:Generated_Source\PSoC4/CapSense_1.c **** *
1324:Generated_Source\PSoC4/CapSense_1.c **** * Side Effects:
1325:Generated_Source\PSoC4/CapSense_1.c **** *  None
1326:Generated_Source\PSoC4/CapSense_1.c **** *
1327:Generated_Source\PSoC4/CapSense_1.c **** *******************************************************************************/
1328:Generated_Source\PSoC4/CapSense_1.c **** void CapSense_1_PreScan(uint32 sensor)
1329:Generated_Source\PSoC4/CapSense_1.c **** {
 1580              		.loc 1 1329 0
 1581              		.cfi_startproc
 1582              		@ args = 0, pretend = 0, frame = 24
 1583              		@ frame_needed = 1, uses_anonymous_args = 0
 1584 0000 90B5     		push	{r4, r7, lr}
 1585              		.cfi_def_cfa_offset 12
 1586              		.cfi_offset 4, -12
 1587              		.cfi_offset 7, -8
 1588              		.cfi_offset 14, -4
 1589 0002 87B0     		sub	sp, sp, #28
 1590              		.cfi_def_cfa_offset 40
 1591 0004 00AF     		add	r7, sp, #0
 1592              		.cfi_def_cfa_register 7
 1593 0006 7860     		str	r0, [r7, #4]
1330:Generated_Source\PSoC4/CapSense_1.c ****     uint8 widget;
1331:Generated_Source\PSoC4/CapSense_1.c ****     uint8 interruptState;
1332:Generated_Source\PSoC4/CapSense_1.c ****     uint32 newRegValue;
1333:Generated_Source\PSoC4/CapSense_1.c ****     uint32 counterResolution;
1334:Generated_Source\PSoC4/CapSense_1.c **** 
1335:Generated_Source\PSoC4/CapSense_1.c ****     #if(CapSense_1_PRS_OPTIONS == CapSense_1__PRS_AUTO)
1336:Generated_Source\PSoC4/CapSense_1.c ****         uint8 senseClkDivMath;
1337:Generated_Source\PSoC4/CapSense_1.c ****         uint8 sampleClkDivMath;
1338:Generated_Source\PSoC4/CapSense_1.c ****     #endif /* (CapSense_1_PRS_OPTIONS == CapSense_1__PRS_AUTO) */
1339:Generated_Source\PSoC4/CapSense_1.c **** 
1340:Generated_Source\PSoC4/CapSense_1.c ****     #if ((CapSense_1_TUNING_METHOD == CapSense_1__TUNING_AUTO) &&\
1341:Generated_Source\PSoC4/CapSense_1.c ****          (0 != CapSense_1_IS_OVERSAMPLING_EN))
1342:Generated_Source\PSoC4/CapSense_1.c ****         uint32 oversamplingFactor;
1343:Generated_Source\PSoC4/CapSense_1.c ****     #endif /* ((CapSense_1_TUNING_METHOD == CapSense_1__TUNING_AUTO) &&\
1344:Generated_Source\PSoC4/CapSense_1.c ****                (0 != CapSense_1_IS_OVERSAMPLING_EN)) */
1345:Generated_Source\PSoC4/CapSense_1.c **** 
1346:Generated_Source\PSoC4/CapSense_1.c ****     /* Define widget sensor belongs to */
1347:Generated_Source\PSoC4/CapSense_1.c ****     widget = CapSense_1_widgetNumber[sensor];
 1594              		.loc 1 1347 0
 1595 0008 1723     		movs	r3, #23
 1596 000a FB18     		adds	r3, r7, r3
 1597 000c 0022     		movs	r2, #0
 1598 000e 1A70     		strb	r2, [r3]
1348:Generated_Source\PSoC4/CapSense_1.c **** 
1349:Generated_Source\PSoC4/CapSense_1.c ****     /* Recalculate Counter Resolution to MSB 16 bits */
1350:Generated_Source\PSoC4/CapSense_1.c ****     counterResolution = CapSense_1_widgetResolution[widget];
 1599              		.loc 1 1350 0
 1600 0010 384B     		ldr	r3, .L84
 1601 0012 3B61     		str	r3, [r7, #16]
1351:Generated_Source\PSoC4/CapSense_1.c **** 
ARM GAS  C:\Users\d4hhm\AppData\Local\Temp\ccLEMF4D.s 			page 53


1352:Generated_Source\PSoC4/CapSense_1.c ****     #if ((CapSense_1_TUNING_METHOD == CapSense_1__TUNING_AUTO) &&\
1353:Generated_Source\PSoC4/CapSense_1.c ****          (0 != CapSense_1_IS_OVERSAMPLING_EN))
1354:Generated_Source\PSoC4/CapSense_1.c ****         oversamplingFactor = CapSense_1_GetBitValue(CapSense_1_scanSpeedTbl, sensor);
1355:Generated_Source\PSoC4/CapSense_1.c **** 
1356:Generated_Source\PSoC4/CapSense_1.c ****         if(counterResolution < CapSense_1_RESOLUTION_16_BITS)
1357:Generated_Source\PSoC4/CapSense_1.c ****         {
1358:Generated_Source\PSoC4/CapSense_1.c ****             counterResolution <<= oversamplingFactor;
1359:Generated_Source\PSoC4/CapSense_1.c ****             counterResolution |= (uint32)(CapSense_1_RESOLUTION_8_BITS);
1360:Generated_Source\PSoC4/CapSense_1.c ****         }
1361:Generated_Source\PSoC4/CapSense_1.c ****     #endif /* ((CapSense_1_TUNING_METHOD == CapSense_1__TUNING_AUTO) &&\
1362:Generated_Source\PSoC4/CapSense_1.c ****                (0 != CapSense_1_IS_OVERSAMPLING_EN)) */
1363:Generated_Source\PSoC4/CapSense_1.c **** 
1364:Generated_Source\PSoC4/CapSense_1.c ****     #if (0u != CapSense_1_IS_M0S8PERI_BLOCK)
1365:Generated_Source\PSoC4/CapSense_1.c ****         CapSense_1_SenseClk_Stop();
 1602              		.loc 1 1365 0
 1603 0014 FFF7FEFF 		bl	CapSense_1_SenseClk_Stop
1366:Generated_Source\PSoC4/CapSense_1.c ****         CapSense_1_SampleClk_Stop();
 1604              		.loc 1 1366 0
 1605 0018 FFF7FEFF 		bl	CapSense_1_SampleClk_Stop
1367:Generated_Source\PSoC4/CapSense_1.c ****     #endif /* (0u != CapSense_1_IS_M0S8PERI_BLOCK) */
1368:Generated_Source\PSoC4/CapSense_1.c **** 
1369:Generated_Source\PSoC4/CapSense_1.c ****     #if (0u != CapSense_1_MULTIPLE_FREQUENCY_SET)
1370:Generated_Source\PSoC4/CapSense_1.c ****         CapSense_1_SampleClk_SetDividerValue((uint16)CapSense_1_sampleClkDividerVal[sensor]);
 1606              		.loc 1 1370 0
 1607 001c 0223     		movs	r3, #2
 1608 001e 9BB2     		uxth	r3, r3
 1609 0020 013B     		subs	r3, r3, #1
 1610 0022 9BB2     		uxth	r3, r3
 1611 0024 0021     		movs	r1, #0
 1612 0026 1800     		movs	r0, r3
 1613 0028 FFF7FEFF 		bl	CapSense_1_SampleClk_SetFractionalDividerRegister
1371:Generated_Source\PSoC4/CapSense_1.c ****         CapSense_1_SenseClk_SetDividerValue((uint16)CapSense_1_senseClkDividerVal[sensor]);
 1614              		.loc 1 1371 0
 1615 002c 0223     		movs	r3, #2
 1616 002e 9BB2     		uxth	r3, r3
 1617 0030 013B     		subs	r3, r3, #1
 1618 0032 9BB2     		uxth	r3, r3
 1619 0034 0021     		movs	r1, #0
 1620 0036 1800     		movs	r0, r3
 1621 0038 FFF7FEFF 		bl	CapSense_1_SenseClk_SetFractionalDividerRegister
1372:Generated_Source\PSoC4/CapSense_1.c ****     #else
1373:Generated_Source\PSoC4/CapSense_1.c ****         CapSense_1_SampleClk_SetDividerValue((uint16)CapSense_1_sampleClkDividerVal);
1374:Generated_Source\PSoC4/CapSense_1.c ****         CapSense_1_SenseClk_SetDividerValue((uint16)CapSense_1_senseClkDividerVal);
1375:Generated_Source\PSoC4/CapSense_1.c ****     #endif /* (0u != CapSense_1_MULTIPLE_FREQUENCY_SET) */
1376:Generated_Source\PSoC4/CapSense_1.c **** 
1377:Generated_Source\PSoC4/CapSense_1.c ****     #if (0u != CapSense_1_IS_M0S8PERI_BLOCK)
1378:Generated_Source\PSoC4/CapSense_1.c ****         CapSense_1_SampleClk_Start();
 1622              		.loc 1 1378 0
 1623 003c FF20     		movs	r0, #255
 1624 003e FFF7FEFF 		bl	CapSense_1_SampleClk_StartEx
1379:Generated_Source\PSoC4/CapSense_1.c ****         CapSense_1_SenseClk_StartEx(CapSense_1_SampleClk__DIV_ID);
 1625              		.loc 1 1379 0
 1626 0042 4020     		movs	r0, #64
 1627 0044 FFF7FEFF 		bl	CapSense_1_SenseClk_StartEx
1380:Generated_Source\PSoC4/CapSense_1.c **** 
1381:Generated_Source\PSoC4/CapSense_1.c ****         #if(CapSense_1_PRS_OPTIONS == CapSense_1__PRS_NONE)
1382:Generated_Source\PSoC4/CapSense_1.c ****             CyIntDisable(CapSense_1_ISR_NUMBER);
ARM GAS  C:\Users\d4hhm\AppData\Local\Temp\ccLEMF4D.s 			page 54


 1628              		.loc 1 1382 0
 1629 0048 1020     		movs	r0, #16
 1630 004a FFF7FEFF 		bl	CyIntDisable
1383:Generated_Source\PSoC4/CapSense_1.c ****             CapSense_1_CSD_CNT_REG = CapSense_1_ONE_CYCLE;
 1631              		.loc 1 1383 0
 1632 004e 2A4B     		ldr	r3, .L84+4
 1633 0050 8022     		movs	r2, #128
 1634 0052 5202     		lsls	r2, r2, #9
 1635 0054 1A60     		str	r2, [r3]
1384:Generated_Source\PSoC4/CapSense_1.c ****             while(0u != (CapSense_1_CSD_CNT_REG & CapSense_1_RESOLUTION_16_BITS))
 1636              		.loc 1 1384 0
 1637 0056 C046     		nop
 1638              	.L83:
 1639              		.loc 1 1384 0 is_stmt 0 discriminator 1
 1640 0058 274B     		ldr	r3, .L84+4
 1641 005a 1B68     		ldr	r3, [r3]
 1642 005c 1B0C     		lsrs	r3, r3, #16
 1643 005e 1B04     		lsls	r3, r3, #16
 1644 0060 FAD1     		bne	.L83
1385:Generated_Source\PSoC4/CapSense_1.c ****             {
1386:Generated_Source\PSoC4/CapSense_1.c ****             /* Wait until scanning is complete */
1387:Generated_Source\PSoC4/CapSense_1.c ****             }
1388:Generated_Source\PSoC4/CapSense_1.c ****             CapSense_1_CSD_INTR_REG = 1u;
 1645              		.loc 1 1388 0 is_stmt 1
 1646 0062 264B     		ldr	r3, .L84+8
 1647 0064 0122     		movs	r2, #1
 1648 0066 1A60     		str	r2, [r3]
1389:Generated_Source\PSoC4/CapSense_1.c ****             CyIntClearPending(CapSense_1_ISR_NUMBER);
 1649              		.loc 1 1389 0
 1650 0068 1020     		movs	r0, #16
 1651 006a FFF7FEFF 		bl	CyIntClearPending
1390:Generated_Source\PSoC4/CapSense_1.c ****             CyIntEnable(CapSense_1_ISR_NUMBER);
 1652              		.loc 1 1390 0
 1653 006e 1020     		movs	r0, #16
 1654 0070 FFF7FEFF 		bl	CyIntEnable
1391:Generated_Source\PSoC4/CapSense_1.c ****         #endif /* CapSense_1_PRS_OPTIONS == CapSense_1__PRS_NONE */
1392:Generated_Source\PSoC4/CapSense_1.c ****     #endif /* (0u != CapSense_1_IS_M0S8PERI_BLOCK) */
1393:Generated_Source\PSoC4/CapSense_1.c **** 
1394:Generated_Source\PSoC4/CapSense_1.c **** #if(CapSense_1_PRS_OPTIONS != CapSense_1__PRS_NONE)
1395:Generated_Source\PSoC4/CapSense_1.c **** 
1396:Generated_Source\PSoC4/CapSense_1.c ****     #if(CapSense_1_TUNING_METHOD == CapSense_1__TUNING_AUTO)
1397:Generated_Source\PSoC4/CapSense_1.c ****         if(CapSense_1_prescalersTuningDone != 0u)
1398:Generated_Source\PSoC4/CapSense_1.c ****         {
1399:Generated_Source\PSoC4/CapSense_1.c ****     #endif /* (CapSense_1_TUNING_METHOD == CapSense_1__TUNING_AUTO) */
1400:Generated_Source\PSoC4/CapSense_1.c **** 
1401:Generated_Source\PSoC4/CapSense_1.c ****             CyIntDisable(CapSense_1_ISR_NUMBER);
1402:Generated_Source\PSoC4/CapSense_1.c **** 
1403:Generated_Source\PSoC4/CapSense_1.c ****             newRegValue = CapSense_1_CSD_CFG_REG;
1404:Generated_Source\PSoC4/CapSense_1.c ****             newRegValue |= CapSense_1_CSD_CFG_PRS_SELECT;
1405:Generated_Source\PSoC4/CapSense_1.c **** 
1406:Generated_Source\PSoC4/CapSense_1.c ****             #if(CapSense_1_PRS_OPTIONS == CapSense_1__PRS_AUTO)
1407:Generated_Source\PSoC4/CapSense_1.c **** 
1408:Generated_Source\PSoC4/CapSense_1.c ****                 newRegValue &= ~(CapSense_1_PRS_MODE_MASK);
1409:Generated_Source\PSoC4/CapSense_1.c **** 
1410:Generated_Source\PSoC4/CapSense_1.c ****                 #if (0u != CapSense_1_MULTIPLE_FREQUENCY_SET)
1411:Generated_Source\PSoC4/CapSense_1.c ****                     senseClkDivMath = CapSense_1_senseClkDividerVal[sensor];
1412:Generated_Source\PSoC4/CapSense_1.c ****                     sampleClkDivMath = CapSense_1_sampleClkDividerVal[sensor];
ARM GAS  C:\Users\d4hhm\AppData\Local\Temp\ccLEMF4D.s 			page 55


1413:Generated_Source\PSoC4/CapSense_1.c ****                 #else
1414:Generated_Source\PSoC4/CapSense_1.c ****                     senseClkDivMath = CapSense_1_senseClkDividerVal;
1415:Generated_Source\PSoC4/CapSense_1.c ****                     sampleClkDivMath = CapSense_1_sampleClkDividerVal;
1416:Generated_Source\PSoC4/CapSense_1.c ****                 #endif /* ( CapSense_1_MULTIPLE_FREQUENCY_SET) */
1417:Generated_Source\PSoC4/CapSense_1.c **** 
1418:Generated_Source\PSoC4/CapSense_1.c ****                 #if(0u == CapSense_1_IS_M0S8PERI_BLOCK)
1419:Generated_Source\PSoC4/CapSense_1.c ****                     senseClkDivMath *= sampleClkDivMath;
1420:Generated_Source\PSoC4/CapSense_1.c ****                 #endif /* (0u == CapSense_1_IS_M0S8PERI_BLOCK) */
1421:Generated_Source\PSoC4/CapSense_1.c **** 
1422:Generated_Source\PSoC4/CapSense_1.c ****                 if((senseClkDivMath * CapSense_1_RESOLUTION_12_BITS) <
1423:Generated_Source\PSoC4/CapSense_1.c ****                    (sampleClkDivMath * CapSense_1_widgetResolution[widget]))
1424:Generated_Source\PSoC4/CapSense_1.c ****                 {
1425:Generated_Source\PSoC4/CapSense_1.c ****                     newRegValue |= CapSense_1_CSD_PRS_12_BIT;
1426:Generated_Source\PSoC4/CapSense_1.c ****                 }
1427:Generated_Source\PSoC4/CapSense_1.c ****             #endif /* (CapSense_1_PRS_OPTIONS == CapSense_1__PRS_AUTO) */
1428:Generated_Source\PSoC4/CapSense_1.c **** 
1429:Generated_Source\PSoC4/CapSense_1.c ****             CapSense_1_CSD_CFG_REG = newRegValue;
1430:Generated_Source\PSoC4/CapSense_1.c **** 
1431:Generated_Source\PSoC4/CapSense_1.c ****             CyIntEnable(CapSense_1_ISR_NUMBER);
1432:Generated_Source\PSoC4/CapSense_1.c **** 
1433:Generated_Source\PSoC4/CapSense_1.c ****     #if(CapSense_1_TUNING_METHOD == CapSense_1__TUNING_AUTO)
1434:Generated_Source\PSoC4/CapSense_1.c ****         }
1435:Generated_Source\PSoC4/CapSense_1.c ****     #endif /* (CapSense_1_PRS_OPTIONS != CapSense_1__PRS_NONE) */
1436:Generated_Source\PSoC4/CapSense_1.c **** 
1437:Generated_Source\PSoC4/CapSense_1.c **** #endif /* (CapSense_1_PRS_OPTIONS == CapSense_1__PRS_NONE) */
1438:Generated_Source\PSoC4/CapSense_1.c **** 
1439:Generated_Source\PSoC4/CapSense_1.c ****     /* Set Idac Value */
1440:Generated_Source\PSoC4/CapSense_1.c ****     CyIntDisable(CapSense_1_ISR_NUMBER);
 1655              		.loc 1 1440 0
 1656 0074 1020     		movs	r0, #16
 1657 0076 FFF7FEFF 		bl	CyIntDisable
1441:Generated_Source\PSoC4/CapSense_1.c ****     newRegValue = CapSense_1_CSD_IDAC_REG;
 1658              		.loc 1 1441 0
 1659 007a 214B     		ldr	r3, .L84+12
 1660 007c 1B68     		ldr	r3, [r3]
 1661 007e FB60     		str	r3, [r7, #12]
1442:Generated_Source\PSoC4/CapSense_1.c **** 
1443:Generated_Source\PSoC4/CapSense_1.c **** #if (CapSense_1_IDAC_CNT == 1u)
1444:Generated_Source\PSoC4/CapSense_1.c ****     newRegValue &= ~(CapSense_1_CSD_IDAC1_DATA_MASK);
1445:Generated_Source\PSoC4/CapSense_1.c ****     newRegValue |= CapSense_1_modulationIDAC[sensor];
1446:Generated_Source\PSoC4/CapSense_1.c **** #else
1447:Generated_Source\PSoC4/CapSense_1.c ****     newRegValue &= ~(CapSense_1_CSD_IDAC1_DATA_MASK | CapSense_1_CSD_IDAC2_DATA_MASK);
 1662              		.loc 1 1447 0
 1663 0080 FB68     		ldr	r3, [r7, #12]
 1664 0082 204A     		ldr	r2, .L84+16
 1665 0084 1340     		ands	r3, r2
 1666 0086 FB60     		str	r3, [r7, #12]
1448:Generated_Source\PSoC4/CapSense_1.c ****     newRegValue |= (CapSense_1_modulationIDAC[sensor] |
 1667              		.loc 1 1448 0
 1668 0088 5023     		movs	r3, #80
 1669 008a 1A00     		movs	r2, r3
1449:Generated_Source\PSoC4/CapSense_1.c ****                             (uint32)((uint32)CapSense_1_compensationIDAC[sensor] <<
 1670              		.loc 1 1449 0
 1671 008c 5023     		movs	r3, #80
 1672 008e 1B04     		lsls	r3, r3, #16
1448:Generated_Source\PSoC4/CapSense_1.c ****     newRegValue |= (CapSense_1_modulationIDAC[sensor] |
 1673              		.loc 1 1448 0
ARM GAS  C:\Users\d4hhm\AppData\Local\Temp\ccLEMF4D.s 			page 56


 1674 0090 1343     		orrs	r3, r2
 1675 0092 FA68     		ldr	r2, [r7, #12]
 1676 0094 1343     		orrs	r3, r2
 1677 0096 FB60     		str	r3, [r7, #12]
1450:Generated_Source\PSoC4/CapSense_1.c ****                             CapSense_1_CSD_IDAC2_DATA_OFFSET));
1451:Generated_Source\PSoC4/CapSense_1.c **** #endif /* (CapSense_1_IDAC_CNT == 1u) */
1452:Generated_Source\PSoC4/CapSense_1.c **** 
1453:Generated_Source\PSoC4/CapSense_1.c ****     CapSense_1_CSD_IDAC_REG = newRegValue;
 1678              		.loc 1 1453 0
 1679 0098 194B     		ldr	r3, .L84+12
 1680 009a FA68     		ldr	r2, [r7, #12]
 1681 009c 1A60     		str	r2, [r3]
1454:Generated_Source\PSoC4/CapSense_1.c **** 
1455:Generated_Source\PSoC4/CapSense_1.c **** #if(CapSense_1_CMOD_PREGARGE_OPTION == CapSense_1__CAPPRIOBUF)
1456:Generated_Source\PSoC4/CapSense_1.c ****     newRegValue = CapSense_1_CMOD_CONNECTION_REG;
1457:Generated_Source\PSoC4/CapSense_1.c ****     newRegValue &= ~(CapSense_1_CSD_CMOD_CONNECTION_MASK);
1458:Generated_Source\PSoC4/CapSense_1.c ****     newRegValue |= CapSense_1_CSD_CMOD_TO_AMUXBUS_A;
1459:Generated_Source\PSoC4/CapSense_1.c ****     CapSense_1_CMOD_CONNECTION_REG = newRegValue;
1460:Generated_Source\PSoC4/CapSense_1.c **** 
1461:Generated_Source\PSoC4/CapSense_1.c ****     newRegValue = CapSense_1_CMOD_PORT_PC_REG;
1462:Generated_Source\PSoC4/CapSense_1.c ****     newRegValue &= ~(CapSense_1_CSD_CMOD_PC_MASK);
1463:Generated_Source\PSoC4/CapSense_1.c ****     newRegValue |= CapSense_1_CMOD_PC_HIGH_Z_MODE;
1464:Generated_Source\PSoC4/CapSense_1.c ****     CapSense_1_CMOD_PORT_PC_REG = newRegValue;
1465:Generated_Source\PSoC4/CapSense_1.c **** #endif /* (CapSense_1_CMOD_PREGARGE_OPTION == CapSense_1__CAPPRIOBUF) */
1466:Generated_Source\PSoC4/CapSense_1.c **** 
1467:Generated_Source\PSoC4/CapSense_1.c ****     /* Disconnect Vref Buffer from AMUX */
1468:Generated_Source\PSoC4/CapSense_1.c ****     newRegValue = CapSense_1_CSD_CFG_REG;
 1682              		.loc 1 1468 0
 1683 009e 1A4B     		ldr	r3, .L84+20
 1684 00a0 1B68     		ldr	r3, [r3]
 1685 00a2 FB60     		str	r3, [r7, #12]
1469:Generated_Source\PSoC4/CapSense_1.c ****     newRegValue &= ~(CapSense_1_PRECHARGE_CONFIG_MASK);
 1686              		.loc 1 1469 0
 1687 00a4 FB68     		ldr	r3, [r7, #12]
 1688 00a6 194A     		ldr	r2, .L84+24
 1689 00a8 1340     		ands	r3, r2
 1690 00aa FB60     		str	r3, [r7, #12]
1470:Generated_Source\PSoC4/CapSense_1.c ****     newRegValue |= CapSense_1_CTANK_PRECHARGE_CONFIG;
 1691              		.loc 1 1470 0
 1692 00ac FB68     		ldr	r3, [r7, #12]
 1693 00ae 184A     		ldr	r2, .L84+28
 1694 00b0 1343     		orrs	r3, r2
 1695 00b2 FB60     		str	r3, [r7, #12]
1471:Generated_Source\PSoC4/CapSense_1.c **** 
1472:Generated_Source\PSoC4/CapSense_1.c ****     CyIntEnable(CapSense_1_ISR_NUMBER);
 1696              		.loc 1 1472 0
 1697 00b4 1020     		movs	r0, #16
 1698 00b6 FFF7FEFF 		bl	CyIntEnable
1473:Generated_Source\PSoC4/CapSense_1.c **** 
1474:Generated_Source\PSoC4/CapSense_1.c ****     /* Enable Sensor */
1475:Generated_Source\PSoC4/CapSense_1.c ****     CapSense_1_EnableScanSlot(sensor);
 1699              		.loc 1 1475 0
 1700 00ba 7B68     		ldr	r3, [r7, #4]
 1701 00bc 1800     		movs	r0, r3
 1702 00be FFF7FEFF 		bl	CapSense_1_EnableSensor
1476:Generated_Source\PSoC4/CapSense_1.c **** 
1477:Generated_Source\PSoC4/CapSense_1.c ****     interruptState = CyEnterCriticalSection();
ARM GAS  C:\Users\d4hhm\AppData\Local\Temp\ccLEMF4D.s 			page 57


 1703              		.loc 1 1477 0
 1704 00c2 0B23     		movs	r3, #11
 1705 00c4 FC18     		adds	r4, r7, r3
 1706 00c6 FFF7FEFF 		bl	CyEnterCriticalSection
 1707 00ca 0300     		movs	r3, r0
 1708 00cc 2370     		strb	r3, [r4]
1478:Generated_Source\PSoC4/CapSense_1.c ****     CapSense_1_CSD_CFG_REG = newRegValue;
 1709              		.loc 1 1478 0
 1710 00ce 0E4B     		ldr	r3, .L84+20
 1711 00d0 FA68     		ldr	r2, [r7, #12]
 1712 00d2 1A60     		str	r2, [r3]
1479:Generated_Source\PSoC4/CapSense_1.c **** 
1480:Generated_Source\PSoC4/CapSense_1.c ****     /* `#START CapSense_1_PreSettlingDelay_Debug` */
1481:Generated_Source\PSoC4/CapSense_1.c **** 
1482:Generated_Source\PSoC4/CapSense_1.c ****     /* `#END` */
1483:Generated_Source\PSoC4/CapSense_1.c **** 
1484:Generated_Source\PSoC4/CapSense_1.c **** #ifdef CapSense_1_PRE_SCAN_PRE_SETTLING_DELAY_DEBUG_CALLBACK
1485:Generated_Source\PSoC4/CapSense_1.c ****     CapSense_1_PreScan_Pre_SettlingDelay_Debug_Callback();
1486:Generated_Source\PSoC4/CapSense_1.c **** #endif /* CapSense_1_PRE_SCAN_PRE_SETTLING_DELAY_DEBUG_CALLBACK */
1487:Generated_Source\PSoC4/CapSense_1.c **** 
1488:Generated_Source\PSoC4/CapSense_1.c ****     CyDelayCycles(CapSense_1_GLITCH_ELIMINATION_CYCLES);
 1713              		.loc 1 1488 0
 1714 00d4 0020     		movs	r0, #0
 1715 00d6 FFF7FEFF 		bl	CyDelayCycles
1489:Generated_Source\PSoC4/CapSense_1.c **** 
1490:Generated_Source\PSoC4/CapSense_1.c ****     /* `#START CapSense_1_PreScan_Debug` */
1491:Generated_Source\PSoC4/CapSense_1.c **** 
1492:Generated_Source\PSoC4/CapSense_1.c ****     /* `#END` */
1493:Generated_Source\PSoC4/CapSense_1.c **** 
1494:Generated_Source\PSoC4/CapSense_1.c **** #ifdef CapSense_1_PRE_SCAN_DEBUG_CALLBACK
1495:Generated_Source\PSoC4/CapSense_1.c ****     CapSense_1_PreScan_Debug_Callback();
1496:Generated_Source\PSoC4/CapSense_1.c **** #endif /* CapSense_1_PRE_SCAN_DEBUG_CALLBACK */
1497:Generated_Source\PSoC4/CapSense_1.c **** 
1498:Generated_Source\PSoC4/CapSense_1.c ****     CapSense_1_CSD_CNT_REG = counterResolution;
 1716              		.loc 1 1498 0
 1717 00da 074B     		ldr	r3, .L84+4
 1718 00dc 3A69     		ldr	r2, [r7, #16]
 1719 00de 1A60     		str	r2, [r3]
1499:Generated_Source\PSoC4/CapSense_1.c ****     CyExitCriticalSection(interruptState);
 1720              		.loc 1 1499 0
 1721 00e0 0B23     		movs	r3, #11
 1722 00e2 FB18     		adds	r3, r7, r3
 1723 00e4 1B78     		ldrb	r3, [r3]
 1724 00e6 1800     		movs	r0, r3
 1725 00e8 FFF7FEFF 		bl	CyExitCriticalSection
1500:Generated_Source\PSoC4/CapSense_1.c **** }
 1726              		.loc 1 1500 0
 1727 00ec C046     		nop
 1728 00ee BD46     		mov	sp, r7
 1729 00f0 07B0     		add	sp, sp, #28
 1730              		@ sp needed
 1731 00f2 90BD     		pop	{r4, r7, pc}
 1732              	.L85:
 1733              		.align	2
 1734              	.L84:
 1735 00f4 0000FF03 		.word	67043328
 1736 00f8 0C002840 		.word	1076363276
ARM GAS  C:\Users\d4hhm\AppData\Local\Temp\ccLEMF4D.s 			page 58


 1737 00fc 14002840 		.word	1076363284
 1738 0100 08002840 		.word	1076363272
 1739 0104 00FF80FF 		.word	-8323328
 1740 0108 04002840 		.word	1076363268
 1741 010c FF1FDFFF 		.word	-2154497
 1742 0110 20202000 		.word	2105376
 1743              		.cfi_endproc
 1744              	.LFE53:
 1745              		.size	CapSense_1_PreScan, .-CapSense_1_PreScan
 1746              		.section	.text.CapSense_1_PostScan,"ax",%progbits
 1747              		.align	2
 1748              		.global	CapSense_1_PostScan
 1749              		.code	16
 1750              		.thumb_func
 1751              		.type	CapSense_1_PostScan, %function
 1752              	CapSense_1_PostScan:
 1753              	.LFB54:
1501:Generated_Source\PSoC4/CapSense_1.c **** 
1502:Generated_Source\PSoC4/CapSense_1.c **** 
1503:Generated_Source\PSoC4/CapSense_1.c **** /*******************************************************************************
1504:Generated_Source\PSoC4/CapSense_1.c **** * Function Name: CapSense_1_PostScan
1505:Generated_Source\PSoC4/CapSense_1.c **** ********************************************************************************
1506:Generated_Source\PSoC4/CapSense_1.c **** *
1507:Generated_Source\PSoC4/CapSense_1.c **** * Summary:
1508:Generated_Source\PSoC4/CapSense_1.c **** *  Stores the results of measurement in the CapSense_1_sensorRaw[] array,
1509:Generated_Source\PSoC4/CapSense_1.c **** *  sets the scanning sensor in the non-sampling state, turns off Idac(Current Source IDAC),
1510:Generated_Source\PSoC4/CapSense_1.c **** *  disconnects the IDAC(Sink mode), and applies Vref on AMUX.
1511:Generated_Source\PSoC4/CapSense_1.c **** *
1512:Generated_Source\PSoC4/CapSense_1.c **** * Parameters:
1513:Generated_Source\PSoC4/CapSense_1.c **** *  sensor:  Sensor number.
1514:Generated_Source\PSoC4/CapSense_1.c **** *
1515:Generated_Source\PSoC4/CapSense_1.c **** * Return:
1516:Generated_Source\PSoC4/CapSense_1.c **** *  None
1517:Generated_Source\PSoC4/CapSense_1.c **** *
1518:Generated_Source\PSoC4/CapSense_1.c **** * Global Variables:
1519:Generated_Source\PSoC4/CapSense_1.c **** *  CapSense_1_sensorRaw[] - used to store sensors raw data.
1520:Generated_Source\PSoC4/CapSense_1.c **** *
1521:Generated_Source\PSoC4/CapSense_1.c **** * Side Effects:
1522:Generated_Source\PSoC4/CapSense_1.c **** *  None
1523:Generated_Source\PSoC4/CapSense_1.c **** *
1524:Generated_Source\PSoC4/CapSense_1.c **** *******************************************************************************/
1525:Generated_Source\PSoC4/CapSense_1.c **** void CapSense_1_PostScan(uint32 sensor)
1526:Generated_Source\PSoC4/CapSense_1.c **** {
 1754              		.loc 1 1526 0
 1755              		.cfi_startproc
 1756              		@ args = 0, pretend = 0, frame = 16
 1757              		@ frame_needed = 1, uses_anonymous_args = 0
 1758 0000 80B5     		push	{r7, lr}
 1759              		.cfi_def_cfa_offset 8
 1760              		.cfi_offset 7, -8
 1761              		.cfi_offset 14, -4
 1762 0002 84B0     		sub	sp, sp, #16
 1763              		.cfi_def_cfa_offset 24
 1764 0004 00AF     		add	r7, sp, #0
 1765              		.cfi_def_cfa_register 7
 1766 0006 7860     		str	r0, [r7, #4]
1527:Generated_Source\PSoC4/CapSense_1.c ****     uint32 newRegValue;
ARM GAS  C:\Users\d4hhm\AppData\Local\Temp\ccLEMF4D.s 			page 59


1528:Generated_Source\PSoC4/CapSense_1.c **** #if ((CapSense_1_TUNING_METHOD == CapSense_1__TUNING_AUTO) &&\
1529:Generated_Source\PSoC4/CapSense_1.c ****      (0 != CapSense_1_IS_OVERSAMPLING_EN))
1530:Generated_Source\PSoC4/CapSense_1.c ****     uint32 oversamplingFactor;
1531:Generated_Source\PSoC4/CapSense_1.c ****     uint32 widget;
1532:Generated_Source\PSoC4/CapSense_1.c **** #endif /* ((CapSense_1_TUNING_METHOD == CapSense_1__TUNING_AUTO) &&\
1533:Generated_Source\PSoC4/CapSense_1.c ****            (0 != CapSense_1_IS_OVERSAMPLING_EN)) */
1534:Generated_Source\PSoC4/CapSense_1.c **** 
1535:Generated_Source\PSoC4/CapSense_1.c ****     /* `#START CapSense_1_PostScan_Debug` */
1536:Generated_Source\PSoC4/CapSense_1.c **** 
1537:Generated_Source\PSoC4/CapSense_1.c ****     /* `#END` */
1538:Generated_Source\PSoC4/CapSense_1.c **** 
1539:Generated_Source\PSoC4/CapSense_1.c **** #ifdef CapSense_1_POST_SCAN_DEBUG_CALLBACK
1540:Generated_Source\PSoC4/CapSense_1.c ****     CapSense_1_PostScan_Debug_Callback();
1541:Generated_Source\PSoC4/CapSense_1.c **** #endif /* CapSense_1_POST_SCAN_DEBUG_Callback */
1542:Generated_Source\PSoC4/CapSense_1.c **** 
1543:Generated_Source\PSoC4/CapSense_1.c ****     /* Read SlotResult from Raw Counter */
1544:Generated_Source\PSoC4/CapSense_1.c ****     CapSense_1_sensorRaw[sensor]  = (uint16)CapSense_1_CSD_CNT_REG;
 1767              		.loc 1 1544 0
 1768 0008 144B     		ldr	r3, .L87
 1769 000a 1B68     		ldr	r3, [r3]
 1770 000c 99B2     		uxth	r1, r3
 1771 000e 144B     		ldr	r3, .L87+4
 1772 0010 7A68     		ldr	r2, [r7, #4]
 1773 0012 5200     		lsls	r2, r2, #1
 1774 0014 D152     		strh	r1, [r2, r3]
1545:Generated_Source\PSoC4/CapSense_1.c **** 
1546:Generated_Source\PSoC4/CapSense_1.c **** #if ((CapSense_1_TUNING_METHOD == CapSense_1__TUNING_AUTO) &&\
1547:Generated_Source\PSoC4/CapSense_1.c ****      (0 != CapSense_1_IS_OVERSAMPLING_EN))
1548:Generated_Source\PSoC4/CapSense_1.c ****     widget = CapSense_1_widgetNumber[sensor];
1549:Generated_Source\PSoC4/CapSense_1.c ****     if(CapSense_1_widgetResolution[widget] < CapSense_1_RESOLUTION_16_BITS)
1550:Generated_Source\PSoC4/CapSense_1.c ****     {
1551:Generated_Source\PSoC4/CapSense_1.c ****         oversamplingFactor = CapSense_1_GetBitValue(CapSense_1_scanSpeedTbl, sensor);
1552:Generated_Source\PSoC4/CapSense_1.c ****         CapSense_1_sensorRaw[sensor] >>= oversamplingFactor;
1553:Generated_Source\PSoC4/CapSense_1.c ****     }
1554:Generated_Source\PSoC4/CapSense_1.c **** #endif /* ((CapSense_1_TUNING_METHOD == CapSense_1__TUNING_AUTO) &&\
1555:Generated_Source\PSoC4/CapSense_1.c ****            (0 != CapSense_1_IS_OVERSAMPLING_EN)) */
1556:Generated_Source\PSoC4/CapSense_1.c **** 
1557:Generated_Source\PSoC4/CapSense_1.c ****     /* Disable Sensor */
1558:Generated_Source\PSoC4/CapSense_1.c ****     CapSense_1_DisableScanSlot(sensor);
 1775              		.loc 1 1558 0
 1776 0016 7B68     		ldr	r3, [r7, #4]
 1777 0018 1800     		movs	r0, r3
 1778 001a FFF7FEFF 		bl	CapSense_1_DisableSensor
1559:Generated_Source\PSoC4/CapSense_1.c **** 
1560:Generated_Source\PSoC4/CapSense_1.c ****     CyIntDisable(CapSense_1_ISR_NUMBER);
 1779              		.loc 1 1560 0
 1780 001e 1020     		movs	r0, #16
 1781 0020 FFF7FEFF 		bl	CyIntDisable
1561:Generated_Source\PSoC4/CapSense_1.c **** 
1562:Generated_Source\PSoC4/CapSense_1.c **** #if(CapSense_1_CMOD_PREGARGE_OPTION == CapSense_1__CAPPRIOBUF)
1563:Generated_Source\PSoC4/CapSense_1.c ****     newRegValue = CapSense_1_CMOD_CONNECTION_REG;
1564:Generated_Source\PSoC4/CapSense_1.c ****     newRegValue &= ~(CapSense_1_CSD_CMOD_CONNECTION_MASK);
1565:Generated_Source\PSoC4/CapSense_1.c ****     newRegValue |= CapSense_1_CSD_CMOD_TO_AMUXBUS_B;
1566:Generated_Source\PSoC4/CapSense_1.c ****     CapSense_1_CMOD_CONNECTION_REG = newRegValue;
1567:Generated_Source\PSoC4/CapSense_1.c **** 
1568:Generated_Source\PSoC4/CapSense_1.c ****     newRegValue = CapSense_1_CMOD_PORT_PC_REG;
1569:Generated_Source\PSoC4/CapSense_1.c ****     newRegValue &= ~(CapSense_1_CSD_CMOD_PC_MASK);
ARM GAS  C:\Users\d4hhm\AppData\Local\Temp\ccLEMF4D.s 			page 60


1570:Generated_Source\PSoC4/CapSense_1.c ****     newRegValue |= CapSense_1_CMOD_PC_STRONG_MODE;
1571:Generated_Source\PSoC4/CapSense_1.c ****     CapSense_1_CMOD_PORT_PC_REG = newRegValue;
1572:Generated_Source\PSoC4/CapSense_1.c **** 
1573:Generated_Source\PSoC4/CapSense_1.c ****     newRegValue = CapSense_1_CMOD_PORT_DR_REG;
1574:Generated_Source\PSoC4/CapSense_1.c ****     newRegValue &= ~(CapSense_1_CMOD_DR_MASK);
1575:Generated_Source\PSoC4/CapSense_1.c ****     newRegValue |= CapSense_1_CMOD_DR_CONFIG;
1576:Generated_Source\PSoC4/CapSense_1.c ****     CapSense_1_CMOD_PORT_DR_REG = newRegValue;
1577:Generated_Source\PSoC4/CapSense_1.c **** #endif /* (CapSense_1_CMOD_PREGARGE_OPTION == CapSense_1__CAPPRIOBUF) */
1578:Generated_Source\PSoC4/CapSense_1.c **** 
1579:Generated_Source\PSoC4/CapSense_1.c ****     /* Connect Vref Buffer to AMUX bus  */
1580:Generated_Source\PSoC4/CapSense_1.c ****     newRegValue = CapSense_1_CSD_CFG_REG;
 1782              		.loc 1 1580 0
 1783 0024 0F4B     		ldr	r3, .L87+8
 1784 0026 1B68     		ldr	r3, [r3]
 1785 0028 FB60     		str	r3, [r7, #12]
1581:Generated_Source\PSoC4/CapSense_1.c ****     newRegValue &= ~(CapSense_1_PRECHARGE_CONFIG_MASK);
 1786              		.loc 1 1581 0
 1787 002a FB68     		ldr	r3, [r7, #12]
 1788 002c 0E4A     		ldr	r2, .L87+12
 1789 002e 1340     		ands	r3, r2
 1790 0030 FB60     		str	r3, [r7, #12]
1582:Generated_Source\PSoC4/CapSense_1.c ****     newRegValue |= CapSense_1_CMOD_PRECHARGE_CONFIG;
 1791              		.loc 1 1582 0
 1792 0032 FB68     		ldr	r3, [r7, #12]
 1793 0034 A022     		movs	r2, #160
 1794 0036 1202     		lsls	r2, r2, #8
 1795 0038 1343     		orrs	r3, r2
 1796 003a FB60     		str	r3, [r7, #12]
1583:Generated_Source\PSoC4/CapSense_1.c ****     CapSense_1_CSD_CFG_REG = newRegValue;
 1797              		.loc 1 1583 0
 1798 003c 094B     		ldr	r3, .L87+8
 1799 003e FA68     		ldr	r2, [r7, #12]
 1800 0040 1A60     		str	r2, [r3]
1584:Generated_Source\PSoC4/CapSense_1.c **** 
1585:Generated_Source\PSoC4/CapSense_1.c ****     /* Set Idac Value = 0 */
1586:Generated_Source\PSoC4/CapSense_1.c **** #if (CapSense_1_IDAC_CNT == 1u)
1587:Generated_Source\PSoC4/CapSense_1.c ****     CapSense_1_CSD_IDAC_REG &= ~(CapSense_1_CSD_IDAC1_DATA_MASK);
1588:Generated_Source\PSoC4/CapSense_1.c **** #else
1589:Generated_Source\PSoC4/CapSense_1.c ****     CapSense_1_CSD_IDAC_REG &= ~(CapSense_1_CSD_IDAC1_DATA_MASK | CapSense_1_CSD_IDAC2_DATA_MASK);
 1801              		.loc 1 1589 0
 1802 0042 0A4B     		ldr	r3, .L87+16
 1803 0044 094A     		ldr	r2, .L87+16
 1804 0046 1268     		ldr	r2, [r2]
 1805 0048 0949     		ldr	r1, .L87+20
 1806 004a 0A40     		ands	r2, r1
 1807 004c 1A60     		str	r2, [r3]
1590:Generated_Source\PSoC4/CapSense_1.c **** #endif /* (CapSense_1_IDAC_CNT == 1u) */
1591:Generated_Source\PSoC4/CapSense_1.c **** 
1592:Generated_Source\PSoC4/CapSense_1.c ****     CyIntEnable(CapSense_1_ISR_NUMBER);
 1808              		.loc 1 1592 0
 1809 004e 1020     		movs	r0, #16
 1810 0050 FFF7FEFF 		bl	CyIntEnable
1593:Generated_Source\PSoC4/CapSense_1.c **** }
 1811              		.loc 1 1593 0
 1812 0054 C046     		nop
 1813 0056 BD46     		mov	sp, r7
 1814 0058 04B0     		add	sp, sp, #16
ARM GAS  C:\Users\d4hhm\AppData\Local\Temp\ccLEMF4D.s 			page 61


 1815              		@ sp needed
 1816 005a 80BD     		pop	{r7, pc}
 1817              	.L88:
 1818              		.align	2
 1819              	.L87:
 1820 005c 0C002840 		.word	1076363276
 1821 0060 00000000 		.word	CapSense_1_sensorRaw
 1822 0064 04002840 		.word	1076363268
 1823 0068 FF1FDFFF 		.word	-2154497
 1824 006c 08002840 		.word	1076363272
 1825 0070 00FF80FF 		.word	-8323328
 1826              		.cfi_endproc
 1827              	.LFE54:
 1828              		.size	CapSense_1_PostScan, .-CapSense_1_PostScan
 1829              		.section	.text.CapSense_1_EnableShieldElectrode,"ax",%progbits
 1830              		.align	2
 1831              		.global	CapSense_1_EnableShieldElectrode
 1832              		.code	16
 1833              		.thumb_func
 1834              		.type	CapSense_1_EnableShieldElectrode, %function
 1835              	CapSense_1_EnableShieldElectrode:
 1836              	.LFB55:
1594:Generated_Source\PSoC4/CapSense_1.c **** 
1595:Generated_Source\PSoC4/CapSense_1.c **** 
1596:Generated_Source\PSoC4/CapSense_1.c **** /*******************************************************************************
1597:Generated_Source\PSoC4/CapSense_1.c **** * Function Name: CapSense_1_EnableShieldElectrode
1598:Generated_Source\PSoC4/CapSense_1.c **** ********************************************************************************
1599:Generated_Source\PSoC4/CapSense_1.c **** *
1600:Generated_Source\PSoC4/CapSense_1.c **** * Summary:
1601:Generated_Source\PSoC4/CapSense_1.c **** *  This API enables or disables the shield electrode on a specified port pin.
1602:Generated_Source\PSoC4/CapSense_1.c **** *
1603:Generated_Source\PSoC4/CapSense_1.c **** * Parameters:
1604:Generated_Source\PSoC4/CapSense_1.c **** *  portNumber: contains the shield electrode port number (0, 1, 2).
1605:Generated_Source\PSoC4/CapSense_1.c **** *  pinNumber: contains the shield electrode pin number (0, 1, 2, ... , 7).
1606:Generated_Source\PSoC4/CapSense_1.c **** *
1607:Generated_Source\PSoC4/CapSense_1.c **** * Return:
1608:Generated_Source\PSoC4/CapSense_1.c **** *  None
1609:Generated_Source\PSoC4/CapSense_1.c **** *
1610:Generated_Source\PSoC4/CapSense_1.c **** * Global Variables:
1611:Generated_Source\PSoC4/CapSense_1.c **** *  CapSense_1_prtCfgTbl[] - Contains pointers to the port config registers for each port.
1612:Generated_Source\PSoC4/CapSense_1.c **** *  CapSense_1_prtSelTbl[] - Contains pointers to the HSIOM registers for each port.
1613:Generated_Source\PSoC4/CapSense_1.c **** *
1614:Generated_Source\PSoC4/CapSense_1.c **** * Side Effects:
1615:Generated_Source\PSoC4/CapSense_1.c **** *  None
1616:Generated_Source\PSoC4/CapSense_1.c **** *
1617:Generated_Source\PSoC4/CapSense_1.c **** *******************************************************************************/
1618:Generated_Source\PSoC4/CapSense_1.c **** void CapSense_1_EnableShieldElectrode(uint32 pinNumber, uint32 portNumber)
1619:Generated_Source\PSoC4/CapSense_1.c **** {
 1837              		.loc 1 1619 0
 1838              		.cfi_startproc
 1839              		@ args = 0, pretend = 0, frame = 16
 1840              		@ frame_needed = 1, uses_anonymous_args = 0
 1841 0000 80B5     		push	{r7, lr}
 1842              		.cfi_def_cfa_offset 8
 1843              		.cfi_offset 7, -8
 1844              		.cfi_offset 14, -4
 1845 0002 84B0     		sub	sp, sp, #16
ARM GAS  C:\Users\d4hhm\AppData\Local\Temp\ccLEMF4D.s 			page 62


 1846              		.cfi_def_cfa_offset 24
 1847 0004 00AF     		add	r7, sp, #0
 1848              		.cfi_def_cfa_register 7
 1849 0006 7860     		str	r0, [r7, #4]
 1850 0008 3960     		str	r1, [r7]
1620:Generated_Source\PSoC4/CapSense_1.c ****     uint32 newRegValue;
1621:Generated_Source\PSoC4/CapSense_1.c **** 
1622:Generated_Source\PSoC4/CapSense_1.c ****     *CapSense_1_prtCfgTbl[portNumber] &= ~(CapSense_1_CSD_PIN_MODE_MASK << (pinNumber * CapSense_1_
 1851              		.loc 1 1622 0
 1852 000a 1A4B     		ldr	r3, .L90
 1853 000c 3A68     		ldr	r2, [r7]
 1854 000e 9200     		lsls	r2, r2, #2
 1855 0010 D258     		ldr	r2, [r2, r3]
 1856 0012 184B     		ldr	r3, .L90
 1857 0014 3968     		ldr	r1, [r7]
 1858 0016 8900     		lsls	r1, r1, #2
 1859 0018 CB58     		ldr	r3, [r1, r3]
 1860 001a 1868     		ldr	r0, [r3]
 1861 001c 7968     		ldr	r1, [r7, #4]
 1862 001e 0B00     		movs	r3, r1
 1863 0020 5B00     		lsls	r3, r3, #1
 1864 0022 5B18     		adds	r3, r3, r1
 1865 0024 0721     		movs	r1, #7
 1866 0026 9940     		lsls	r1, r1, r3
 1867 0028 0B00     		movs	r3, r1
 1868 002a DB43     		mvns	r3, r3
 1869 002c 0340     		ands	r3, r0
 1870 002e 1360     		str	r3, [r2]
1623:Generated_Source\PSoC4/CapSense_1.c ****     newRegValue = *CapSense_1_prtSelTbl[portNumber];
 1871              		.loc 1 1623 0
 1872 0030 114B     		ldr	r3, .L90+4
 1873 0032 3A68     		ldr	r2, [r7]
 1874 0034 9200     		lsls	r2, r2, #2
 1875 0036 D358     		ldr	r3, [r2, r3]
 1876 0038 1B68     		ldr	r3, [r3]
 1877 003a FB60     		str	r3, [r7, #12]
1624:Generated_Source\PSoC4/CapSense_1.c ****     newRegValue &= ~(CapSense_1_CSD_HSIOM_MASK << (pinNumber * CapSense_1_HSIOM_PIN_CFG_SIZE));
 1878              		.loc 1 1624 0
 1879 003c 7B68     		ldr	r3, [r7, #4]
 1880 003e 9B00     		lsls	r3, r3, #2
 1881 0040 0F22     		movs	r2, #15
 1882 0042 9A40     		lsls	r2, r2, r3
 1883 0044 1300     		movs	r3, r2
 1884 0046 DA43     		mvns	r2, r3
 1885 0048 FB68     		ldr	r3, [r7, #12]
 1886 004a 1340     		ands	r3, r2
 1887 004c FB60     		str	r3, [r7, #12]
1625:Generated_Source\PSoC4/CapSense_1.c ****     newRegValue |= (CapSense_1_CSD_SHIELD_PORT_MODE << (pinNumber * CapSense_1_HSIOM_PIN_CFG_SIZE))
 1888              		.loc 1 1625 0
 1889 004e 7B68     		ldr	r3, [r7, #4]
 1890 0050 9B00     		lsls	r3, r3, #2
 1891 0052 0522     		movs	r2, #5
 1892 0054 9A40     		lsls	r2, r2, r3
 1893 0056 1300     		movs	r3, r2
 1894 0058 FA68     		ldr	r2, [r7, #12]
 1895 005a 1343     		orrs	r3, r2
 1896 005c FB60     		str	r3, [r7, #12]
ARM GAS  C:\Users\d4hhm\AppData\Local\Temp\ccLEMF4D.s 			page 63


1626:Generated_Source\PSoC4/CapSense_1.c ****     *CapSense_1_prtSelTbl[portNumber] = newRegValue;
 1897              		.loc 1 1626 0
 1898 005e 064B     		ldr	r3, .L90+4
 1899 0060 3A68     		ldr	r2, [r7]
 1900 0062 9200     		lsls	r2, r2, #2
 1901 0064 D358     		ldr	r3, [r2, r3]
 1902 0066 FA68     		ldr	r2, [r7, #12]
 1903 0068 1A60     		str	r2, [r3]
1627:Generated_Source\PSoC4/CapSense_1.c **** }
 1904              		.loc 1 1627 0
 1905 006a C046     		nop
 1906 006c BD46     		mov	sp, r7
 1907 006e 04B0     		add	sp, sp, #16
 1908              		@ sp needed
 1909 0070 80BD     		pop	{r7, pc}
 1910              	.L91:
 1911 0072 C046     		.align	2
 1912              	.L90:
 1913 0074 00000000 		.word	CapSense_1_prtCfgTbl
 1914 0078 00000000 		.word	CapSense_1_prtSelTbl
 1915              		.cfi_endproc
 1916              	.LFE55:
 1917              		.size	CapSense_1_EnableShieldElectrode, .-CapSense_1_EnableShieldElectrode
 1918              		.section	.text.CapSense_1_SetShieldDelay,"ax",%progbits
 1919              		.align	2
 1920              		.global	CapSense_1_SetShieldDelay
 1921              		.code	16
 1922              		.thumb_func
 1923              		.type	CapSense_1_SetShieldDelay, %function
 1924              	CapSense_1_SetShieldDelay:
 1925              	.LFB56:
1628:Generated_Source\PSoC4/CapSense_1.c **** 
1629:Generated_Source\PSoC4/CapSense_1.c **** 
1630:Generated_Source\PSoC4/CapSense_1.c **** /*******************************************************************************
1631:Generated_Source\PSoC4/CapSense_1.c **** * Function Name: CapSense_1_SetShieldDelay
1632:Generated_Source\PSoC4/CapSense_1.c **** ********************************************************************************
1633:Generated_Source\PSoC4/CapSense_1.c **** *
1634:Generated_Source\PSoC4/CapSense_1.c **** * Summary:
1635:Generated_Source\PSoC4/CapSense_1.c **** *  This API sets a shield delay.
1636:Generated_Source\PSoC4/CapSense_1.c **** *
1637:Generated_Source\PSoC4/CapSense_1.c **** * Parameters:
1638:Generated_Source\PSoC4/CapSense_1.c **** *  delay:  shield delay value:
1639:Generated_Source\PSoC4/CapSense_1.c **** *                               0 - no delay
1640:Generated_Source\PSoC4/CapSense_1.c **** *                               1 - 1 cycle delay
1641:Generated_Source\PSoC4/CapSense_1.c **** *                               2 - 2 cycles delay
1642:Generated_Source\PSoC4/CapSense_1.c **** *
1643:Generated_Source\PSoC4/CapSense_1.c **** * Return:
1644:Generated_Source\PSoC4/CapSense_1.c **** *  None
1645:Generated_Source\PSoC4/CapSense_1.c **** *
1646:Generated_Source\PSoC4/CapSense_1.c **** * Global Variables:
1647:Generated_Source\PSoC4/CapSense_1.c **** *  None
1648:Generated_Source\PSoC4/CapSense_1.c **** *
1649:Generated_Source\PSoC4/CapSense_1.c **** * Side Effects:
1650:Generated_Source\PSoC4/CapSense_1.c **** *  None
1651:Generated_Source\PSoC4/CapSense_1.c **** *
1652:Generated_Source\PSoC4/CapSense_1.c **** *******************************************************************************/
1653:Generated_Source\PSoC4/CapSense_1.c **** void CapSense_1_SetShieldDelay(uint32 delay)
ARM GAS  C:\Users\d4hhm\AppData\Local\Temp\ccLEMF4D.s 			page 64


1654:Generated_Source\PSoC4/CapSense_1.c **** {
 1926              		.loc 1 1654 0
 1927              		.cfi_startproc
 1928              		@ args = 0, pretend = 0, frame = 16
 1929              		@ frame_needed = 1, uses_anonymous_args = 0
 1930 0000 80B5     		push	{r7, lr}
 1931              		.cfi_def_cfa_offset 8
 1932              		.cfi_offset 7, -8
 1933              		.cfi_offset 14, -4
 1934 0002 84B0     		sub	sp, sp, #16
 1935              		.cfi_def_cfa_offset 24
 1936 0004 00AF     		add	r7, sp, #0
 1937              		.cfi_def_cfa_register 7
 1938 0006 7860     		str	r0, [r7, #4]
1655:Generated_Source\PSoC4/CapSense_1.c ****     uint32 newRegValue;
1656:Generated_Source\PSoC4/CapSense_1.c **** 
1657:Generated_Source\PSoC4/CapSense_1.c ****     delay &= 0x03u;
 1939              		.loc 1 1657 0
 1940 0008 7B68     		ldr	r3, [r7, #4]
 1941 000a 0322     		movs	r2, #3
 1942 000c 1340     		ands	r3, r2
 1943 000e 7B60     		str	r3, [r7, #4]
1658:Generated_Source\PSoC4/CapSense_1.c **** 
1659:Generated_Source\PSoC4/CapSense_1.c ****     newRegValue = CapSense_1_CSD_CFG_REG;
 1944              		.loc 1 1659 0
 1945 0010 074B     		ldr	r3, .L93
 1946 0012 1B68     		ldr	r3, [r3]
 1947 0014 FB60     		str	r3, [r7, #12]
1660:Generated_Source\PSoC4/CapSense_1.c ****     newRegValue &= (uint32)(~(uint32)CapSense_1_SHIELD_DELAY);
1661:Generated_Source\PSoC4/CapSense_1.c ****     newRegValue |= (delay << CapSense_1_CSD_CFG_SHIELD_DELAY_POS);
 1948              		.loc 1 1661 0
 1949 0016 7B68     		ldr	r3, [r7, #4]
 1950 0018 5B02     		lsls	r3, r3, #9
 1951 001a FA68     		ldr	r2, [r7, #12]
 1952 001c 1343     		orrs	r3, r2
 1953 001e FB60     		str	r3, [r7, #12]
1662:Generated_Source\PSoC4/CapSense_1.c ****     CapSense_1_CSD_CFG_REG = newRegValue;
 1954              		.loc 1 1662 0
 1955 0020 034B     		ldr	r3, .L93
 1956 0022 FA68     		ldr	r2, [r7, #12]
 1957 0024 1A60     		str	r2, [r3]
1663:Generated_Source\PSoC4/CapSense_1.c **** }
 1958              		.loc 1 1663 0
 1959 0026 C046     		nop
 1960 0028 BD46     		mov	sp, r7
 1961 002a 04B0     		add	sp, sp, #16
 1962              		@ sp needed
 1963 002c 80BD     		pop	{r7, pc}
 1964              	.L94:
 1965 002e C046     		.align	2
 1966              	.L93:
 1967 0030 04002840 		.word	1076363268
 1968              		.cfi_endproc
 1969              	.LFE56:
 1970              		.size	CapSense_1_SetShieldDelay, .-CapSense_1_SetShieldDelay
 1971              		.section	.text.CapSense_1_ReadCurrentScanningSensor,"ax",%progbits
 1972              		.align	2
ARM GAS  C:\Users\d4hhm\AppData\Local\Temp\ccLEMF4D.s 			page 65


 1973              		.global	CapSense_1_ReadCurrentScanningSensor
 1974              		.code	16
 1975              		.thumb_func
 1976              		.type	CapSense_1_ReadCurrentScanningSensor, %function
 1977              	CapSense_1_ReadCurrentScanningSensor:
 1978              	.LFB57:
1664:Generated_Source\PSoC4/CapSense_1.c **** 
1665:Generated_Source\PSoC4/CapSense_1.c **** 
1666:Generated_Source\PSoC4/CapSense_1.c **** /*******************************************************************************
1667:Generated_Source\PSoC4/CapSense_1.c **** * Function Name: CapSense_1_ReadCurrentScanningSensor
1668:Generated_Source\PSoC4/CapSense_1.c **** ********************************************************************************
1669:Generated_Source\PSoC4/CapSense_1.c **** *
1670:Generated_Source\PSoC4/CapSense_1.c **** * Summary:
1671:Generated_Source\PSoC4/CapSense_1.c **** *  This API returns scanning sensor number when sensor scan is in progress.
1672:Generated_Source\PSoC4/CapSense_1.c **** *  When sensor scan is completed the API returns
1673:Generated_Source\PSoC4/CapSense_1.c **** *  $INSTANCE_NAME`_NOT_SENSOR (0xFFFFFFFF) (when no sensor is scanned).
1674:Generated_Source\PSoC4/CapSense_1.c **** *
1675:Generated_Source\PSoC4/CapSense_1.c **** * Parameters:
1676:Generated_Source\PSoC4/CapSense_1.c **** *   None.
1677:Generated_Source\PSoC4/CapSense_1.c **** *
1678:Generated_Source\PSoC4/CapSense_1.c **** * Return:
1679:Generated_Source\PSoC4/CapSense_1.c **** *  Returns Sensor number if sensor is being scanned and
1680:Generated_Source\PSoC4/CapSense_1.c **** *  $INSTANCE_NAME`_NOT_SENSOR (0xFFFFFFFF) if scanning is complete.
1681:Generated_Source\PSoC4/CapSense_1.c **** *
1682:Generated_Source\PSoC4/CapSense_1.c **** * Global Variables:
1683:Generated_Source\PSoC4/CapSense_1.c **** *  CapSense_1_sensorIndex - the sensor number is being scanned.
1684:Generated_Source\PSoC4/CapSense_1.c **** *
1685:Generated_Source\PSoC4/CapSense_1.c **** * Side Effects:
1686:Generated_Source\PSoC4/CapSense_1.c **** *  None
1687:Generated_Source\PSoC4/CapSense_1.c **** *
1688:Generated_Source\PSoC4/CapSense_1.c **** *******************************************************************************/
1689:Generated_Source\PSoC4/CapSense_1.c **** uint32 CapSense_1_ReadCurrentScanningSensor(void)
1690:Generated_Source\PSoC4/CapSense_1.c **** {
 1979              		.loc 1 1690 0
 1980              		.cfi_startproc
 1981              		@ args = 0, pretend = 0, frame = 0
 1982              		@ frame_needed = 1, uses_anonymous_args = 0
 1983 0000 80B5     		push	{r7, lr}
 1984              		.cfi_def_cfa_offset 8
 1985              		.cfi_offset 7, -8
 1986              		.cfi_offset 14, -4
 1987 0002 00AF     		add	r7, sp, #0
 1988              		.cfi_def_cfa_register 7
1691:Generated_Source\PSoC4/CapSense_1.c ****     return ((uint32)(( 0u != (CapSense_1_csdStatusVar & CapSense_1_SW_STS_BUSY)) ?
 1989              		.loc 1 1691 0
 1990 0004 074B     		ldr	r3, .L99
 1991 0006 1B78     		ldrb	r3, [r3]
 1992 0008 DBB2     		uxtb	r3, r3
 1993 000a 1A00     		movs	r2, r3
 1994 000c 0123     		movs	r3, #1
 1995 000e 1340     		ands	r3, r2
 1996 0010 03D0     		beq	.L96
 1997              		.loc 1 1691 0 is_stmt 0 discriminator 1
 1998 0012 054B     		ldr	r3, .L99+4
 1999 0014 1B78     		ldrb	r3, [r3]
 2000 0016 DBB2     		uxtb	r3, r3
 2001 0018 01E0     		b	.L98
ARM GAS  C:\Users\d4hhm\AppData\Local\Temp\ccLEMF4D.s 			page 66


 2002              	.L96:
 2003              		.loc 1 1691 0 discriminator 2
 2004 001a 0123     		movs	r3, #1
 2005 001c 5B42     		rsbs	r3, r3, #0
 2006              	.L98:
1692:Generated_Source\PSoC4/CapSense_1.c ****                      CapSense_1_sensorIndex : CapSense_1_NOT_SENSOR));
1693:Generated_Source\PSoC4/CapSense_1.c **** }
 2007              		.loc 1 1693 0 is_stmt 1 discriminator 5
 2008 001e 1800     		movs	r0, r3
 2009 0020 BD46     		mov	sp, r7
 2010              		@ sp needed
 2011 0022 80BD     		pop	{r7, pc}
 2012              	.L100:
 2013              		.align	2
 2014              	.L99:
 2015 0024 00000000 		.word	CapSense_1_csdStatusVar
 2016 0028 00000000 		.word	CapSense_1_sensorIndex
 2017              		.cfi_endproc
 2018              	.LFE57:
 2019              		.size	CapSense_1_ReadCurrentScanningSensor, .-CapSense_1_ReadCurrentScanningSensor
 2020              		.section	.text.CapSense_1_GetBitValue,"ax",%progbits
 2021              		.align	2
 2022              		.global	CapSense_1_GetBitValue
 2023              		.code	16
 2024              		.thumb_func
 2025              		.type	CapSense_1_GetBitValue, %function
 2026              	CapSense_1_GetBitValue:
 2027              	.LFB58:
1694:Generated_Source\PSoC4/CapSense_1.c **** 
1695:Generated_Source\PSoC4/CapSense_1.c **** 
1696:Generated_Source\PSoC4/CapSense_1.c **** /*******************************************************************************
1697:Generated_Source\PSoC4/CapSense_1.c **** * Function Name: CapSense_1_GetBitValue
1698:Generated_Source\PSoC4/CapSense_1.c **** ********************************************************************************
1699:Generated_Source\PSoC4/CapSense_1.c **** *
1700:Generated_Source\PSoC4/CapSense_1.c **** * Summary:
1701:Generated_Source\PSoC4/CapSense_1.c **** *  The API returns a bit status of the bit in the table array which contains the masks.
1702:Generated_Source\PSoC4/CapSense_1.c **** *
1703:Generated_Source\PSoC4/CapSense_1.c **** * Parameters:
1704:Generated_Source\PSoC4/CapSense_1.c **** *  table[] - array with bit masks.
1705:Generated_Source\PSoC4/CapSense_1.c **** *  position - position of bit in the table[] array.
1706:Generated_Source\PSoC4/CapSense_1.c **** *
1707:Generated_Source\PSoC4/CapSense_1.c **** * Return:
1708:Generated_Source\PSoC4/CapSense_1.c **** *  0 - bit is not set; 1 - bit is set.
1709:Generated_Source\PSoC4/CapSense_1.c **** *
1710:Generated_Source\PSoC4/CapSense_1.c **** * Global Variables:
1711:Generated_Source\PSoC4/CapSense_1.c **** *  None
1712:Generated_Source\PSoC4/CapSense_1.c **** *
1713:Generated_Source\PSoC4/CapSense_1.c **** * Side Effects:
1714:Generated_Source\PSoC4/CapSense_1.c **** *  None
1715:Generated_Source\PSoC4/CapSense_1.c **** *
1716:Generated_Source\PSoC4/CapSense_1.c **** *******************************************************************************/
1717:Generated_Source\PSoC4/CapSense_1.c **** uint32 CapSense_1_GetBitValue(const uint8 table[], uint32 position)
1718:Generated_Source\PSoC4/CapSense_1.c **** {
 2028              		.loc 1 1718 0
 2029              		.cfi_startproc
 2030              		@ args = 0, pretend = 0, frame = 16
 2031              		@ frame_needed = 1, uses_anonymous_args = 0
ARM GAS  C:\Users\d4hhm\AppData\Local\Temp\ccLEMF4D.s 			page 67


 2032 0000 80B5     		push	{r7, lr}
 2033              		.cfi_def_cfa_offset 8
 2034              		.cfi_offset 7, -8
 2035              		.cfi_offset 14, -4
 2036 0002 84B0     		sub	sp, sp, #16
 2037              		.cfi_def_cfa_offset 24
 2038 0004 00AF     		add	r7, sp, #0
 2039              		.cfi_def_cfa_register 7
 2040 0006 7860     		str	r0, [r7, #4]
 2041 0008 3960     		str	r1, [r7]
1719:Generated_Source\PSoC4/CapSense_1.c ****     uint32 offset;
1720:Generated_Source\PSoC4/CapSense_1.c ****     uint8 enMask;
1721:Generated_Source\PSoC4/CapSense_1.c **** 
1722:Generated_Source\PSoC4/CapSense_1.c ****     /* position is divided by 8 to calculate the element of the
1723:Generated_Source\PSoC4/CapSense_1.c ****        table[] array that contains the enable bit
1724:Generated_Source\PSoC4/CapSense_1.c ****        for an appropriate sensor.
1725:Generated_Source\PSoC4/CapSense_1.c ****     */
1726:Generated_Source\PSoC4/CapSense_1.c ****     offset = (position >> 3u);
 2042              		.loc 1 1726 0
 2043 000a 3B68     		ldr	r3, [r7]
 2044 000c DB08     		lsrs	r3, r3, #3
 2045 000e FB60     		str	r3, [r7, #12]
1727:Generated_Source\PSoC4/CapSense_1.c **** 
1728:Generated_Source\PSoC4/CapSense_1.c ****     /* The enMask calculation for the appropriate sensor. Operation (position & 0x07u)
1729:Generated_Source\PSoC4/CapSense_1.c ****        intends to calculate the enable bit offset for the 8-bit element of the
1730:Generated_Source\PSoC4/CapSense_1.c ****        table[] array.
1731:Generated_Source\PSoC4/CapSense_1.c ****     */
1732:Generated_Source\PSoC4/CapSense_1.c ****     enMask = 0x01u << (position & 0x07u);
 2046              		.loc 1 1732 0
 2047 0010 3B68     		ldr	r3, [r7]
 2048 0012 0722     		movs	r2, #7
 2049 0014 1340     		ands	r3, r2
 2050 0016 0122     		movs	r2, #1
 2051 0018 9A40     		lsls	r2, r2, r3
 2052 001a 0B23     		movs	r3, #11
 2053 001c FB18     		adds	r3, r7, r3
 2054 001e 1A70     		strb	r2, [r3]
1733:Generated_Source\PSoC4/CapSense_1.c **** 
1734:Generated_Source\PSoC4/CapSense_1.c ****     return ((0u !=(table[offset] & enMask)) ? 1Lu : 0Lu);
 2055              		.loc 1 1734 0
 2056 0020 7A68     		ldr	r2, [r7, #4]
 2057 0022 FB68     		ldr	r3, [r7, #12]
 2058 0024 D318     		adds	r3, r2, r3
 2059 0026 1B78     		ldrb	r3, [r3]
 2060 0028 0B22     		movs	r2, #11
 2061 002a BA18     		adds	r2, r7, r2
 2062 002c 1278     		ldrb	r2, [r2]
 2063 002e 1340     		ands	r3, r2
 2064 0030 DBB2     		uxtb	r3, r3
 2065 0032 002B     		cmp	r3, #0
 2066 0034 01D0     		beq	.L102
 2067              		.loc 1 1734 0 is_stmt 0 discriminator 1
 2068 0036 0123     		movs	r3, #1
 2069 0038 00E0     		b	.L104
 2070              	.L102:
 2071              		.loc 1 1734 0 discriminator 2
 2072 003a 0023     		movs	r3, #0
ARM GAS  C:\Users\d4hhm\AppData\Local\Temp\ccLEMF4D.s 			page 68


 2073              	.L104:
1735:Generated_Source\PSoC4/CapSense_1.c **** }
 2074              		.loc 1 1735 0 is_stmt 1 discriminator 5
 2075 003c 1800     		movs	r0, r3
 2076 003e BD46     		mov	sp, r7
 2077 0040 04B0     		add	sp, sp, #16
 2078              		@ sp needed
 2079 0042 80BD     		pop	{r7, pc}
 2080              		.cfi_endproc
 2081              	.LFE58:
 2082              		.size	CapSense_1_GetBitValue, .-CapSense_1_GetBitValue
 2083              		.section	.text.CapSense_1_SetBitValue,"ax",%progbits
 2084              		.align	2
 2085              		.global	CapSense_1_SetBitValue
 2086              		.code	16
 2087              		.thumb_func
 2088              		.type	CapSense_1_SetBitValue, %function
 2089              	CapSense_1_SetBitValue:
 2090              	.LFB59:
1736:Generated_Source\PSoC4/CapSense_1.c **** 
1737:Generated_Source\PSoC4/CapSense_1.c **** 
1738:Generated_Source\PSoC4/CapSense_1.c **** /*******************************************************************************
1739:Generated_Source\PSoC4/CapSense_1.c **** * Function Name: CapSense_1_SetBitValue
1740:Generated_Source\PSoC4/CapSense_1.c **** ********************************************************************************
1741:Generated_Source\PSoC4/CapSense_1.c **** *
1742:Generated_Source\PSoC4/CapSense_1.c **** * Summary:
1743:Generated_Source\PSoC4/CapSense_1.c **** *  The API sets a bit status of the bit in the table array which contains masks.
1744:Generated_Source\PSoC4/CapSense_1.c **** *
1745:Generated_Source\PSoC4/CapSense_1.c **** * Parameters:
1746:Generated_Source\PSoC4/CapSense_1.c **** *  table[] - array with bit masks.
1747:Generated_Source\PSoC4/CapSense_1.c **** *  position - position of bit in the table[] array.
1748:Generated_Source\PSoC4/CapSense_1.c **** *  value: 0 - bit is not set; 1 - bit is set.
1749:Generated_Source\PSoC4/CapSense_1.c **** *
1750:Generated_Source\PSoC4/CapSense_1.c **** * Return:
1751:Generated_Source\PSoC4/CapSense_1.c **** *  None
1752:Generated_Source\PSoC4/CapSense_1.c **** *
1753:Generated_Source\PSoC4/CapSense_1.c **** * Global Variables:
1754:Generated_Source\PSoC4/CapSense_1.c **** *  None
1755:Generated_Source\PSoC4/CapSense_1.c **** *
1756:Generated_Source\PSoC4/CapSense_1.c **** * Side Effects:
1757:Generated_Source\PSoC4/CapSense_1.c **** *  None
1758:Generated_Source\PSoC4/CapSense_1.c **** *
1759:Generated_Source\PSoC4/CapSense_1.c **** *******************************************************************************/
1760:Generated_Source\PSoC4/CapSense_1.c **** void CapSense_1_SetBitValue(uint8 table[], uint32 position, uint32 value)
1761:Generated_Source\PSoC4/CapSense_1.c **** {
 2091              		.loc 1 1761 0
 2092              		.cfi_startproc
 2093              		@ args = 0, pretend = 0, frame = 24
 2094              		@ frame_needed = 1, uses_anonymous_args = 0
 2095 0000 80B5     		push	{r7, lr}
 2096              		.cfi_def_cfa_offset 8
 2097              		.cfi_offset 7, -8
 2098              		.cfi_offset 14, -4
 2099 0002 86B0     		sub	sp, sp, #24
 2100              		.cfi_def_cfa_offset 32
 2101 0004 00AF     		add	r7, sp, #0
 2102              		.cfi_def_cfa_register 7
ARM GAS  C:\Users\d4hhm\AppData\Local\Temp\ccLEMF4D.s 			page 69


 2103 0006 F860     		str	r0, [r7, #12]
 2104 0008 B960     		str	r1, [r7, #8]
 2105 000a 7A60     		str	r2, [r7, #4]
1762:Generated_Source\PSoC4/CapSense_1.c ****     uint32 offset;
1763:Generated_Source\PSoC4/CapSense_1.c ****     uint8 enMask;
1764:Generated_Source\PSoC4/CapSense_1.c **** 
1765:Generated_Source\PSoC4/CapSense_1.c ****     /* position is divided by 8 to calculate the element of the
1766:Generated_Source\PSoC4/CapSense_1.c ****        table[] array that contains the enable bit
1767:Generated_Source\PSoC4/CapSense_1.c ****        for an appropriate sensor.
1768:Generated_Source\PSoC4/CapSense_1.c ****     */
1769:Generated_Source\PSoC4/CapSense_1.c ****     offset = (position >> 3u);
 2106              		.loc 1 1769 0
 2107 000c BB68     		ldr	r3, [r7, #8]
 2108 000e DB08     		lsrs	r3, r3, #3
 2109 0010 7B61     		str	r3, [r7, #20]
1770:Generated_Source\PSoC4/CapSense_1.c **** 
1771:Generated_Source\PSoC4/CapSense_1.c ****     /* The enMask calculation for the appropriate sensor. Operation (position & 0x07u)
1772:Generated_Source\PSoC4/CapSense_1.c ****        intends to calculate the enable bit offset for the 8-bit element of the
1773:Generated_Source\PSoC4/CapSense_1.c ****        table[] array.
1774:Generated_Source\PSoC4/CapSense_1.c ****     */
1775:Generated_Source\PSoC4/CapSense_1.c ****     enMask = 0x01u << (position & 0x07u);
 2110              		.loc 1 1775 0
 2111 0012 BB68     		ldr	r3, [r7, #8]
 2112 0014 0722     		movs	r2, #7
 2113 0016 1340     		ands	r3, r2
 2114 0018 0122     		movs	r2, #1
 2115 001a 9A40     		lsls	r2, r2, r3
 2116 001c 1323     		movs	r3, #19
 2117 001e FB18     		adds	r3, r7, r3
 2118 0020 1A70     		strb	r2, [r3]
1776:Generated_Source\PSoC4/CapSense_1.c **** 
1777:Generated_Source\PSoC4/CapSense_1.c ****     if(0u != value)
 2119              		.loc 1 1777 0
 2120 0022 7B68     		ldr	r3, [r7, #4]
 2121 0024 002B     		cmp	r3, #0
 2122 0026 0DD0     		beq	.L106
1778:Generated_Source\PSoC4/CapSense_1.c ****     {
1779:Generated_Source\PSoC4/CapSense_1.c ****         table[offset] |= enMask;
 2123              		.loc 1 1779 0
 2124 0028 FA68     		ldr	r2, [r7, #12]
 2125 002a 7B69     		ldr	r3, [r7, #20]
 2126 002c D318     		adds	r3, r2, r3
 2127 002e F968     		ldr	r1, [r7, #12]
 2128 0030 7A69     		ldr	r2, [r7, #20]
 2129 0032 8A18     		adds	r2, r1, r2
 2130 0034 1178     		ldrb	r1, [r2]
 2131 0036 1322     		movs	r2, #19
 2132 0038 BA18     		adds	r2, r7, r2
 2133 003a 1278     		ldrb	r2, [r2]
 2134 003c 0A43     		orrs	r2, r1
 2135 003e D2B2     		uxtb	r2, r2
 2136 0040 1A70     		strb	r2, [r3]
1780:Generated_Source\PSoC4/CapSense_1.c ****     }
1781:Generated_Source\PSoC4/CapSense_1.c ****     else
1782:Generated_Source\PSoC4/CapSense_1.c ****     {
1783:Generated_Source\PSoC4/CapSense_1.c ****         table[offset] &= (uint8)~(enMask);
1784:Generated_Source\PSoC4/CapSense_1.c ****     }
ARM GAS  C:\Users\d4hhm\AppData\Local\Temp\ccLEMF4D.s 			page 70


1785:Generated_Source\PSoC4/CapSense_1.c **** }
 2137              		.loc 1 1785 0
 2138 0042 0EE0     		b	.L108
 2139              	.L106:
1783:Generated_Source\PSoC4/CapSense_1.c ****     }
 2140              		.loc 1 1783 0
 2141 0044 FA68     		ldr	r2, [r7, #12]
 2142 0046 7B69     		ldr	r3, [r7, #20]
 2143 0048 D318     		adds	r3, r2, r3
 2144 004a F968     		ldr	r1, [r7, #12]
 2145 004c 7A69     		ldr	r2, [r7, #20]
 2146 004e 8A18     		adds	r2, r1, r2
 2147 0050 1278     		ldrb	r2, [r2]
 2148 0052 1321     		movs	r1, #19
 2149 0054 7918     		adds	r1, r7, r1
 2150 0056 0978     		ldrb	r1, [r1]
 2151 0058 C943     		mvns	r1, r1
 2152 005a C9B2     		uxtb	r1, r1
 2153 005c 0A40     		ands	r2, r1
 2154 005e D2B2     		uxtb	r2, r2
 2155 0060 1A70     		strb	r2, [r3]
 2156              	.L108:
 2157              		.loc 1 1785 0
 2158 0062 C046     		nop
 2159 0064 BD46     		mov	sp, r7
 2160 0066 06B0     		add	sp, sp, #24
 2161              		@ sp needed
 2162 0068 80BD     		pop	{r7, pc}
 2163              		.cfi_endproc
 2164              	.LFE59:
 2165              		.size	CapSense_1_SetBitValue, .-CapSense_1_SetBitValue
 2166 006a C046     		.section	.text.CapSense_1_GetSenseClkDivider,"ax",%progbits
 2167              		.align	2
 2168              		.global	CapSense_1_GetSenseClkDivider
 2169              		.code	16
 2170              		.thumb_func
 2171              		.type	CapSense_1_GetSenseClkDivider, %function
 2172              	CapSense_1_GetSenseClkDivider:
 2173              	.LFB60:
1786:Generated_Source\PSoC4/CapSense_1.c **** 
1787:Generated_Source\PSoC4/CapSense_1.c **** 
1788:Generated_Source\PSoC4/CapSense_1.c **** 
1789:Generated_Source\PSoC4/CapSense_1.c **** /*******************************************************************************
1790:Generated_Source\PSoC4/CapSense_1.c **** * Function Name: CapSense_1_GetSenseClkDivider
1791:Generated_Source\PSoC4/CapSense_1.c **** ********************************************************************************
1792:Generated_Source\PSoC4/CapSense_1.c **** *
1793:Generated_Source\PSoC4/CapSense_1.c **** * Summary:
1794:Generated_Source\PSoC4/CapSense_1.c **** *  This API returns a value of the sense clock divider for the  sensor.
1795:Generated_Source\PSoC4/CapSense_1.c **** *
1796:Generated_Source\PSoC4/CapSense_1.c **** * Parameters:
1797:Generated_Source\PSoC4/CapSense_1.c **** *  sensor: sensor index. The index value can be
1798:Generated_Source\PSoC4/CapSense_1.c **** *  from 0 to (CapSense_1_TOTAL_SENSOR_COUNT-1).
1799:Generated_Source\PSoC4/CapSense_1.c **** *
1800:Generated_Source\PSoC4/CapSense_1.c **** * Return:
1801:Generated_Source\PSoC4/CapSense_1.c **** *  This API returns the sense clock divider of the sensor.
1802:Generated_Source\PSoC4/CapSense_1.c **** *
1803:Generated_Source\PSoC4/CapSense_1.c **** * Global Variables:
ARM GAS  C:\Users\d4hhm\AppData\Local\Temp\ccLEMF4D.s 			page 71


1804:Generated_Source\PSoC4/CapSense_1.c **** *  CapSense_1_senseClkDividerVal[] - stores the sense clock divider values.
1805:Generated_Source\PSoC4/CapSense_1.c **** *
1806:Generated_Source\PSoC4/CapSense_1.c **** * Side Effects:
1807:Generated_Source\PSoC4/CapSense_1.c **** *  None
1808:Generated_Source\PSoC4/CapSense_1.c **** *
1809:Generated_Source\PSoC4/CapSense_1.c **** *******************************************************************************/
1810:Generated_Source\PSoC4/CapSense_1.c **** uint32 CapSense_1_GetSenseClkDivider(uint32 sensor)
1811:Generated_Source\PSoC4/CapSense_1.c **** {
 2174              		.loc 1 1811 0
 2175              		.cfi_startproc
 2176              		@ args = 0, pretend = 0, frame = 8
 2177              		@ frame_needed = 1, uses_anonymous_args = 0
 2178 0000 80B5     		push	{r7, lr}
 2179              		.cfi_def_cfa_offset 8
 2180              		.cfi_offset 7, -8
 2181              		.cfi_offset 14, -4
 2182 0002 82B0     		sub	sp, sp, #8
 2183              		.cfi_def_cfa_offset 16
 2184 0004 00AF     		add	r7, sp, #0
 2185              		.cfi_def_cfa_register 7
 2186 0006 7860     		str	r0, [r7, #4]
1812:Generated_Source\PSoC4/CapSense_1.c ****     #if(0u != CapSense_1_MULTIPLE_FREQUENCY_SET)
1813:Generated_Source\PSoC4/CapSense_1.c ****         return((uint32)CapSense_1_senseClkDividerVal[sensor]);
 2187              		.loc 1 1813 0
 2188 0008 0223     		movs	r3, #2
1814:Generated_Source\PSoC4/CapSense_1.c ****     #else
1815:Generated_Source\PSoC4/CapSense_1.c ****         return((uint32)CapSense_1_senseClkDividerVal);
1816:Generated_Source\PSoC4/CapSense_1.c ****     #endif /* (0u != CapSense_1_MULTIPLE_FREQUENCY_SET) */
1817:Generated_Source\PSoC4/CapSense_1.c **** }
 2189              		.loc 1 1817 0
 2190 000a 1800     		movs	r0, r3
 2191 000c BD46     		mov	sp, r7
 2192 000e 02B0     		add	sp, sp, #8
 2193              		@ sp needed
 2194 0010 80BD     		pop	{r7, pc}
 2195              		.cfi_endproc
 2196              	.LFE60:
 2197              		.size	CapSense_1_GetSenseClkDivider, .-CapSense_1_GetSenseClkDivider
 2198 0012 C046     		.section	.text.CapSense_1_GetModulatorClkDivider,"ax",%progbits
 2199              		.align	2
 2200              		.global	CapSense_1_GetModulatorClkDivider
 2201              		.code	16
 2202              		.thumb_func
 2203              		.type	CapSense_1_GetModulatorClkDivider, %function
 2204              	CapSense_1_GetModulatorClkDivider:
 2205              	.LFB61:
1818:Generated_Source\PSoC4/CapSense_1.c **** 
1819:Generated_Source\PSoC4/CapSense_1.c **** #if (CapSense_1_TUNING_METHOD != CapSense_1__TUNING_NONE)
1820:Generated_Source\PSoC4/CapSense_1.c ****     /*******************************************************************************
1821:Generated_Source\PSoC4/CapSense_1.c ****     * Function Name: CapSense_1_SetSenseClkDivider
1822:Generated_Source\PSoC4/CapSense_1.c ****     ********************************************************************************
1823:Generated_Source\PSoC4/CapSense_1.c ****     *
1824:Generated_Source\PSoC4/CapSense_1.c ****     * Summary:
1825:Generated_Source\PSoC4/CapSense_1.c ****     *  This API sets a value of the sense clock divider for the  sensor.
1826:Generated_Source\PSoC4/CapSense_1.c ****     *
1827:Generated_Source\PSoC4/CapSense_1.c ****     * Parameters:
1828:Generated_Source\PSoC4/CapSense_1.c ****     *  sensor:  Sensor index.
ARM GAS  C:\Users\d4hhm\AppData\Local\Temp\ccLEMF4D.s 			page 72


1829:Generated_Source\PSoC4/CapSense_1.c ****     *  senseClk: represents the sense clock value.
1830:Generated_Source\PSoC4/CapSense_1.c ****     *
1831:Generated_Source\PSoC4/CapSense_1.c ****     * Return:
1832:Generated_Source\PSoC4/CapSense_1.c ****     *  None.
1833:Generated_Source\PSoC4/CapSense_1.c ****     *
1834:Generated_Source\PSoC4/CapSense_1.c ****     * Global Variables:
1835:Generated_Source\PSoC4/CapSense_1.c ****     *  CapSense_1_senseClkDividerVal[] - stores the sense clock divider values.
1836:Generated_Source\PSoC4/CapSense_1.c ****     *
1837:Generated_Source\PSoC4/CapSense_1.c ****     * Side Effects:
1838:Generated_Source\PSoC4/CapSense_1.c ****     *  None
1839:Generated_Source\PSoC4/CapSense_1.c ****     *
1840:Generated_Source\PSoC4/CapSense_1.c ****     *******************************************************************************/
1841:Generated_Source\PSoC4/CapSense_1.c ****     void CapSense_1_SetSenseClkDivider(uint32 sensor, uint32 senseClk)
1842:Generated_Source\PSoC4/CapSense_1.c ****     {
1843:Generated_Source\PSoC4/CapSense_1.c ****         #if(0u != CapSense_1_MULTIPLE_FREQUENCY_SET)
1844:Generated_Source\PSoC4/CapSense_1.c ****             CapSense_1_senseClkDividerVal[sensor] = (uint8)senseClk;
1845:Generated_Source\PSoC4/CapSense_1.c ****         #else
1846:Generated_Source\PSoC4/CapSense_1.c ****             CapSense_1_senseClkDividerVal = (uint8)senseClk;
1847:Generated_Source\PSoC4/CapSense_1.c ****         #endif /* (0u != CapSense_1_MULTIPLE_FREQUENCY_SET) */
1848:Generated_Source\PSoC4/CapSense_1.c ****     }
1849:Generated_Source\PSoC4/CapSense_1.c **** #endif /* (CapSense_1_TUNING_METHOD != CapSense_1__TUNING_NONE) */
1850:Generated_Source\PSoC4/CapSense_1.c **** 
1851:Generated_Source\PSoC4/CapSense_1.c **** 
1852:Generated_Source\PSoC4/CapSense_1.c **** /*******************************************************************************
1853:Generated_Source\PSoC4/CapSense_1.c **** * Function Name: CapSense_1_GetModulatorClkDivider
1854:Generated_Source\PSoC4/CapSense_1.c **** ********************************************************************************
1855:Generated_Source\PSoC4/CapSense_1.c **** *
1856:Generated_Source\PSoC4/CapSense_1.c **** * Summary:
1857:Generated_Source\PSoC4/CapSense_1.c **** *  This API returns a value of the modulator sample clock divider for the  sensor.
1858:Generated_Source\PSoC4/CapSense_1.c **** *
1859:Generated_Source\PSoC4/CapSense_1.c **** * Parameters:
1860:Generated_Source\PSoC4/CapSense_1.c **** *  sensor: sensor index. The value of index can be
1861:Generated_Source\PSoC4/CapSense_1.c **** *  from 0 to (CapSense_1_TOTAL_SENSOR_COUNT-1).
1862:Generated_Source\PSoC4/CapSense_1.c **** *
1863:Generated_Source\PSoC4/CapSense_1.c **** * Return:
1864:Generated_Source\PSoC4/CapSense_1.c **** *  This API returns the modulator sample clock divider for the  sensor.
1865:Generated_Source\PSoC4/CapSense_1.c **** *
1866:Generated_Source\PSoC4/CapSense_1.c **** * Global Variables:
1867:Generated_Source\PSoC4/CapSense_1.c **** *  CapSense_1_sampleClkDividerVal[] - stores the modulator sample divider values.
1868:Generated_Source\PSoC4/CapSense_1.c **** *
1869:Generated_Source\PSoC4/CapSense_1.c **** * Side Effects:
1870:Generated_Source\PSoC4/CapSense_1.c **** *  None
1871:Generated_Source\PSoC4/CapSense_1.c **** *
1872:Generated_Source\PSoC4/CapSense_1.c **** *******************************************************************************/
1873:Generated_Source\PSoC4/CapSense_1.c **** uint32 CapSense_1_GetModulatorClkDivider(uint32 sensor)
1874:Generated_Source\PSoC4/CapSense_1.c **** {
 2206              		.loc 1 1874 0
 2207              		.cfi_startproc
 2208              		@ args = 0, pretend = 0, frame = 8
 2209              		@ frame_needed = 1, uses_anonymous_args = 0
 2210 0000 80B5     		push	{r7, lr}
 2211              		.cfi_def_cfa_offset 8
 2212              		.cfi_offset 7, -8
 2213              		.cfi_offset 14, -4
 2214 0002 82B0     		sub	sp, sp, #8
 2215              		.cfi_def_cfa_offset 16
 2216 0004 00AF     		add	r7, sp, #0
ARM GAS  C:\Users\d4hhm\AppData\Local\Temp\ccLEMF4D.s 			page 73


 2217              		.cfi_def_cfa_register 7
 2218 0006 7860     		str	r0, [r7, #4]
1875:Generated_Source\PSoC4/CapSense_1.c ****     #if(0u != CapSense_1_MULTIPLE_FREQUENCY_SET)
1876:Generated_Source\PSoC4/CapSense_1.c ****         return((uint32)CapSense_1_sampleClkDividerVal[sensor]);
 2219              		.loc 1 1876 0
 2220 0008 0223     		movs	r3, #2
1877:Generated_Source\PSoC4/CapSense_1.c ****     #else
1878:Generated_Source\PSoC4/CapSense_1.c ****         return((uint32)CapSense_1_sampleClkDividerVal);
1879:Generated_Source\PSoC4/CapSense_1.c ****     #endif /* (0u != CapSense_1_MULTIPLE_FREQUENCY_SET) */
1880:Generated_Source\PSoC4/CapSense_1.c **** }
 2221              		.loc 1 1880 0
 2222 000a 1800     		movs	r0, r3
 2223 000c BD46     		mov	sp, r7
 2224 000e 02B0     		add	sp, sp, #8
 2225              		@ sp needed
 2226 0010 80BD     		pop	{r7, pc}
 2227              		.cfi_endproc
 2228              	.LFE61:
 2229              		.size	CapSense_1_GetModulatorClkDivider, .-CapSense_1_GetModulatorClkDivider
 2230 0012 C046     		.section	.text.CapSense_1_GetModulationIDAC,"ax",%progbits
 2231              		.align	2
 2232              		.global	CapSense_1_GetModulationIDAC
 2233              		.code	16
 2234              		.thumb_func
 2235              		.type	CapSense_1_GetModulationIDAC, %function
 2236              	CapSense_1_GetModulationIDAC:
 2237              	.LFB62:
1881:Generated_Source\PSoC4/CapSense_1.c **** 
1882:Generated_Source\PSoC4/CapSense_1.c **** #if (CapSense_1_TUNING_METHOD != CapSense_1__TUNING_NONE)
1883:Generated_Source\PSoC4/CapSense_1.c ****     /*******************************************************************************
1884:Generated_Source\PSoC4/CapSense_1.c ****     * Function Name: CapSense_1_SetModulatorClkDivider
1885:Generated_Source\PSoC4/CapSense_1.c ****     ********************************************************************************
1886:Generated_Source\PSoC4/CapSense_1.c ****     *
1887:Generated_Source\PSoC4/CapSense_1.c ****     * Summary:
1888:Generated_Source\PSoC4/CapSense_1.c ****     *  This API sets a value of the modulator sample clock divider for the  sensor.
1889:Generated_Source\PSoC4/CapSense_1.c ****     *
1890:Generated_Source\PSoC4/CapSense_1.c ****     * Parameters:
1891:Generated_Source\PSoC4/CapSense_1.c ****     *  sensor:  Sensor index.
1892:Generated_Source\PSoC4/CapSense_1.c ****     *  modulatorClk: represents the modulator sample clock value.
1893:Generated_Source\PSoC4/CapSense_1.c ****     *
1894:Generated_Source\PSoC4/CapSense_1.c ****     * Return:
1895:Generated_Source\PSoC4/CapSense_1.c ****     *  None.
1896:Generated_Source\PSoC4/CapSense_1.c ****     *
1897:Generated_Source\PSoC4/CapSense_1.c ****     * Global Variables:
1898:Generated_Source\PSoC4/CapSense_1.c ****     *  CapSense_1_sampleClkDividerVal[] - stores the modulator sample divider values.
1899:Generated_Source\PSoC4/CapSense_1.c ****     *
1900:Generated_Source\PSoC4/CapSense_1.c ****     * Side Effects:
1901:Generated_Source\PSoC4/CapSense_1.c ****     *  None
1902:Generated_Source\PSoC4/CapSense_1.c ****     *
1903:Generated_Source\PSoC4/CapSense_1.c ****     *******************************************************************************/
1904:Generated_Source\PSoC4/CapSense_1.c ****     void CapSense_1_SetModulatorClkDivider(uint32 sensor, uint32 modulatorClk)
1905:Generated_Source\PSoC4/CapSense_1.c ****     {
1906:Generated_Source\PSoC4/CapSense_1.c ****         #if(0u != CapSense_1_MULTIPLE_FREQUENCY_SET)
1907:Generated_Source\PSoC4/CapSense_1.c ****             CapSense_1_sampleClkDividerVal[sensor] = (uint8)modulatorClk;
1908:Generated_Source\PSoC4/CapSense_1.c ****         #else
1909:Generated_Source\PSoC4/CapSense_1.c ****             CapSense_1_sampleClkDividerVal = (uint8)modulatorClk;
1910:Generated_Source\PSoC4/CapSense_1.c ****         #endif /* (0u != CapSense_1_MULTIPLE_FREQUENCY_SET) */
ARM GAS  C:\Users\d4hhm\AppData\Local\Temp\ccLEMF4D.s 			page 74


1911:Generated_Source\PSoC4/CapSense_1.c ****     }
